ARM GAS  1.s 			page 1


   1              		@单片机：N32G430C8L7
   2              		@功能:lcr数字电桥
   3              		@作者：yjmwxwx
   4              		@时间：20220903
   5              		@编译器：arm-none-eabi
   6              		.thumb
   7              		.syntax unified
   8              	.section .text
   9              	vectors:					@向量表
  10 0000 00400020 		.word STACHINIT	
  11 0004 15010000 		.word _start + 1			@复位向量
  12 0008 692A0000 	        .word _nmi_handler + 1 
  13 000c 692A0000 	        .word _hard_fault + 1 
  14 0010 692A0000 	        .word _memory_fault + 1 
  15 0014 692A0000 	        .word _bus_fault + 1
  16 0018 692A0000 	        .word _usage_fault + 1
  17 001c 00000000 		.word 0
  18 0020 00000000 		.word 0
  19 0024 00000000 		.word 0
  20 0028 00000000 		.word 0
  21 002c 692A0000 		.word aaa +1 @_svc_handler + 1
  22 0030 692A0000 		.word aaa +1 @_debugmon_handler + 1
  23 0034 00000000 		.word 0
  24 0038 692A0000 		.word aaa +1 @_pendsv_handler + 1
  25 003c 6B2A0000 		.word __systick_zhongduan +1
  26              		@@@@@@@@@@@@@@@@@@@@@@@@@@@@@@@
  27 0040 692A0000 		.word aaa +1 @0 _wwdg +1
  28 0044 692A0000 		.word aaa +1 @1 _pvd +1
  29 0048 692A0000 		.word aaa +1 @2 _rtc_tamper_stamp +1
  30 004c 692A0000 		.word aaa +1 @3 _rtc_wkup +1
  31 0050 692A0000 		.word aaa +1 @4 _flash +1
  32 0054 692A0000 		.word aaa +1 @5 _rcc +1
  33 0058 692A0000 		.word aaa +1 @6 _exti0 +1
  34 005c 692A0000 		.word aaa +1 @7 _exti1 +1
  35 0060 692A0000 		.word aaa +1 @8 _exti2 +1
  36 0064 692A0000 		.word aaa +1 @9 _exti3 +1
  37 0068 692A0000 		.word aaa +1 @10 _exti4 +1
  38 006c 692A0000 		.word aaa +1 @11 _dma_channel1 +1
  39 0070 692A0000 		.word aaa +1 @12 _dma_channel2 +1
  40 0074 692A0000 		.word aaa +1 @13 _dma_channel3 +1
  41 0078 692A0000 		.word aaa +1 @14 _dma_channel4 +1
  42 007c 692A0000 		.word aaa +1 @15 _dma_channel5 +1
  43 0080 692A0000 		.word aaa +1 @16 _dma_channel6 +1
  44 0084 692A0000 		.word aaa +1 @17 _dma_channel7 +1
  45 0088 692A0000 		.word aaa +1 @18 _dma_channel8 +1
  46 008c 692A0000 		.word aaa +1 @19 _adc +1
  47 0090 692A0000 		.word aaa +1 @20 _mmu +1
  48 0094 692A0000 		.word aaa +1 @21 _comp_1_2_3 +1
  49 0098 692A0000 		.word aaa +1 @22 _exti9_5 +1
  50 009c 692A0000 		.word aaa +1 @23 _tim1_brk +1
  51 00a0 692A0000 		.word aaa +1 @24 _tim1_up +1
  52 00a4 692A0000 		.word aaa +1 @25 _tim1_trg_com +1
  53 00a8 692A0000 		.word aaa +1 @26 _tim1_cc +1
  54 00ac 692A0000 		.word aaa +1 @27 _tim2 +1
  55 00b0 692A0000 		.word aaa +1 @28  _tim3 +1
  56 00b4 692A0000 		.word aaa +1 @29 _tim4 +1
  57 00b8 692A0000 		.word aaa +1 @30 _i2c1_ev +1
ARM GAS  1.s 			page 2


  58 00bc 692A0000 		.word aaa +1 @31 _i2c1_er +1
  59 00c0 692A0000 		.word aaa +1 @32 _i2c2_ev +1
  60 00c4 692A0000 		.word aaa +1 @33 _i2c2_er +1
  61 00c8 692A0000 		.word aaa +1 @34 _spi1 +1
  62 00cc 692A0000 		.word aaa +1 @35 _spi2 +1
  63 00d0 692A0000 		.word aaa +1 @36 _usart1 +1
  64 00d4 692A0000 		.word aaa +1 @37 _usart2 +1
  65 00d8 692A0000 		.word aaa +1 @38 _uart3 +1
  66 00dc 692A0000 		.word aaa +1 @39 _exti15_10 +1
  67 00e0 692A0000 		.word aaa +1 @40 _rtcalarm +1
  68 00e4 692A0000 		.word aaa +1 @41 _lptim_wkup +1
  69 00e8 692A0000 		.word aaa +1 @42 _tim8_brk +1
  70 00ec 692A0000 		.word aaa +1 @43 _tim8_up +1
  71 00f0 692A0000 		.word aaa +1 @44 _tim8_trg +1
  72 00f4 692A0000 		.word aaa +1 @45 _tim8_cc +1
  73 00f8 692A0000 		.word aaa +1 @46 _uart4 +1
  74 00fc 692A0000 		.word aaa +1 @47 _tim5 +1
  75 0100 692A0000 		.word aaa +1 @48 _tim6 +1
  76 0104 692A0000 		.word aaa +1 @49 _can_tx +1
  77 0108 692A0000 		.word aaa +1 @50 _can_rx0 +1
  78 010c 692A0000 		.word aaa +1 @51 _can_rx1 +1
  79 0110 692A0000 		.word aaa +1 @52 _can_sce +1
  80              	_start:
  81 0114 DFF82805 		ldr r0, = 0xe000ed88
  82 0118 4FF47001 		ldr r1, = 0x00f00000
  83 011c 0160     		str r1, [r0]		@开FPU协处理器
  84              	__shizhong:
  85 011e DFF82425 		ldr r2, = 0x40022000   @FLASH访问控制
  86 0122 3321     		movs r1, # 0x33
  87 0124 1160     		str r1, [r2]           @FLASH缓冲 缓冲开启
  88 0126 DFF82005 		ldr r0, = 0x40021000 @ rcc
  89 012a 4FF00111 		ldr r1, = 0x10001
  90 012e 0160     		str r1, [r0]
  91              	__denghse:
  92 0130 0168     		ldr r1, [r0]
  93 0132 8903     		lsls r1, r1, # 14
  94 0134 FCD5     		bpl __denghse
  95              	__dengpllguan:
  96 0136 0168     		ldr r1, [r0]
  97 0138 8901     		lsls r1, r1, # 6
  98 013a FCD4     		bmi __dengpllguan
  99 013c DFF80C15 		ldr r1, = 0x390002
 100 0140 0046     		mov r0, r0
 101 0142 4160     		str r1, [r0, # 0x04]
 102 0144 0046     		mov r0, r0
 103 0146 DFF80815 		ldr r1, = 0x1010000
 104 014a 0046     		mov r0, r0
 105 014c 0160     		str r1, [r0]
 106              	
 107              	__dengpll:
 108 014e 0168     		ldr r1, [r0]
 109 0150 8901     		lsls r1, # 6
 110 0152 FCD5     		bpl __dengpll
 111              	__waishe_shizhong:
 112              	@@@@@@@@@@@@@@@@@@@@@@@@@@@@@@@@@@@@@@@@@@@@@@@@@@@@@@@@@@@@@@@@@@@@@@@@@
 113              		@外设时钟
 114              		@rcc_ahbpclken  0x40021014
ARM GAS  1.s 			page 3


 115              		@0=dma,2=sram,4=flitf,6=crc,7=pa,8=pb,9=pc,10=pd,12=adc
 116              		@rcc_apb2pclken 0x40021018
 117              		@0=afio,1=beeper,11=tim1,12=spi1,13=tim8,14=usart1,17=uart3,19=spi2
 118              		@rcc_apb1pclken 0x4002101c
 119              		@0=tim2,1=tim3,2=tim4,3=tim5,4=tim6,6=comp,7=compfilt,11wwdg,
 120              		@17=usart2,21=i2c1,22=i2c2,25=can,28=pwr
 121              	@@@@@@@@@@@@@@@@@@@@@@@@@@@@@@@@@@@@@@@@@@@@@@@@@@@@@@@@@@@@@@@@@@@@@@@@@@
 122 0154 41F29571 		movw r1, # 0x1795
 123 0158 4161     		str r1, [r0, # 0x14]
 124 015a 43F60001 		movw r1, # 0x3800
 125 015e 8161     		str r1, [r0, # 0x18]
 126 0160 0621     		movs r1, # 0x06
 127 0162 C161     		str r1, [r0, # 0x1c]
 128 0164 43F60041 		movw r1, # 0x3c00
 129 0168 C162     		str r1, [r0, # 0x2c]	@adc
 130 016a 0121     		movs r1, # 0x01
 131 016c C0F88010 		str r1, [r0, # 0x80]	@adc
 132              	
 133              	_waishezhongduan:			@外设中断
 134              		@0xE000E100    0-31  写1开，写0没效
 135              		@0XE000E180    0-31 写1关，写0没效
 136              		@0XE000E200    0-31 挂起，写0没效
 137              		@0XE000E280    0-31 清除， 写0没效
 138              	@	ldr r0, =  0xe000e100
 139              	@	ldr r1, = 0x800	@tim4
 140              	@	str r1, [r0]
 141              	
 142              	_neicunqingling:
 143 0170 DFF8E004 		ldr r0, = 0x20004000
 144 0174 4FF00052 		ldr r2, = 0x20000000
 145 0178 0021     		movs r1, # 0
 146              	_neicunqinglingxunhuan:
 147 017a 0438     		subs r0, r0, # 4
 148 017c 0160     		str r1, [r0]
 149 017e 9042     		cmp r0, r2
 150 0180 FBD1     		bne _neicunqinglingxunhuan
 151              	
 152              	
 153 0182 DFF8D404 		ldr r0, = zhengxian_100khz
 154 0186 DFF8D414 		ldr r1, = 0x20000100
 155 018a 0024     		movs r4, # 0 
 156              	fuzhi_xunhuan:
 157 018c 025D     		ldrb r2, [r0, r4]
 158 018e 0A55     		strb r2, [r1, r4]
 159 0190 0134     		adds r4, r4, # 1
 160 0192 282C     		cmp r4, # 40
 161 0194 FAD1     		bne fuzhi_xunhuan
 162              		
 163              		
 164              		
 165              	__io_shezhi:
 166              	@@@@@@@@@@@@@@@@@@@@@@@@@@@@@@@@@@@@@@@@@@@@@@@@@@@@@@@@@@@@@@@@@@@@@@@@@@@
 167              		@   pa=0x40023400,    pb=0x40023800,  pc=0x40023c00,  pd=0x40024000
 168              	        @0x00 端口模式寄存器(GPIOx_PMODE)
 169              		@寄存器复位值
 170              		@pa=0xabffffff  pb= 0xfffffebf  pc= 0xfc000000   pd=0xff000000
 171              		@00=输入模式，01=通用输出模式，10=复用功能模式，11模拟功能模式
ARM GAS  1.s 			page 4


 172              		@0x04 端口类型定义寄存器(GPIOx_POTYPE) 复位值0
 173              		@ 0=推挽输出，1=开漏输出
 174              		@0x08 翻转率配置寄存器(GPIOx_SR)
 175              		@复位值，PA=0XFFFF，PB=0XFFFF，PC=0XE000,PD=0XF001
 176              		@0=快速，1=慢速
 177              		@0x0c 端口上下拉寄存器(GPIOx_PUPD)
 178              		@寄存器复位值
 179              		@pa=0x64000000,pb=0x100,pc=0,pd=0x02
 180              		@00=无上拉下拉，01=上拉，10=下拉
 181              		@0x10 端口输入数据寄存器(GPIOx_PID)
 182              		@0x14 端口输出数据寄存器(GPIOx_POD)
 183              		@0x18 GPIO 端口位设置/清除寄存器(GPIOx_PBSC)
 184              		@高16位 pbcy = 1 IO低,  低16位 pbsy = 1 IO高
 185              		@0x1c 端口锁定配置寄存器(GPIOx_PLOCK)
 186              		@高16 PLOCKK=1端口配置锁键位被激活
 187              		@低16 PLOCKY=1锁定端口的配置
 188              		@0x20 复用功能低配置寄存器(GPIOx_AFL)
 189              		@0x24复用功能高配置寄存器(GPIOx_AFH)
 190              		@af0=0000,af1=0001,af2=0010,af3=0011...................
 191              		@0x28 端口位清除寄存器(GPIOx_PBC)
 192              		@pbcy=1 清除对应的 PODy 位为 0
 193              		@0x2c 驱动能力配置寄存器(GPIOx_DS)
 194              		@复位值
 195              		@PA=0X55555555,PB=0X55555555,PC=0X54000000,PD=0X55000001
 196              		@00=2mA,01=8mA,10=4mA,11=12mA
 197              		@@@@@@@@@@@@@@@@@@@@@@@@@@@@@@@@@@@@@@@@@@@@@@@@@@@@@@@@@@@@@@@@@@@@@@@@@@@@@@@@@@
 198              		@PA
 199 0196 DFF8C804 		ldr r0, = 0x40023400
 200 019a DFF8C814 		ldr r1, = 0x6b7e555f
 201 019e 0160     		str r1, [r0]
 202 01a0 41F60061 		movw r1, # 0x1e00
 203 01a4 4160     		str r1, [r0, # 0x04]
 204 01a6 4FF6FF61 		movw r1, # 0xfeff
 205 01aa 8160     		str r1, [r0, # 0x08]
 206 01ac 4FF01051 		ldr r1, = 0x24000000
 207 01b0 C160     		str r1, [r0, # 0x0c]
 208 01b2 4FF00301 		ldr r1, = 0x3
 209 01b6 4162     		str r1, [r0, # 0x24]
 210              		@PB
 211 01b8 DFF8AC04 		ldr r0, = 0x40023800
 212 01bc DFF8AC14 		ldr r1, = 0x5559bd
 213 01c0 0160     		str r1, [r0]
 214 01c2 40F64061 		movw r1, # 0xe40
 215 01c6 4160     		str r1, [r0, # 0x04]
 216 01c8 4FF6FF71 		movw r1, # 0xffff
 217 01cc 8160     		str r1, [r0, # 0x08]
 218 01ce 4FF0AA41 		ldr r1, = 0x55000000
 219 01d2 C160     		str r1, [r0, # 0x0c]
 220 01d4 DFF89814 		ldr r1, = 0x3102000
 221 01d8 0162     		str r1, [r0, # 0x20]
 222              		
 223              	__dma_chushihua:
 224 01da DFF89804 		ldr r0, = 0x40020000
 225 01de 0021     	        movs r1, # 0
 226 01e0 8160     		str r1, [r0, # 0x08]
 227 01e2 DFF89414 		ldr r1, = 0x4002084c
 228 01e6 0161     		str r1, [r0, # 0x10]
ARM GAS  1.s 			page 5


 229 01e8 DFF89014 		ldr r1, = dianyabiao
 230 01ec 4161     		str r1, [r0, # 0x14]
 231 01ee 4FF47A61 		ldr r1, = 4000			@采样数量	sl
 232 01f2 C160     		str r1, [r0, # 0x0c]
 233 01f4 43F2A151 		movw r1, # 0x35a1 			@0x3581(单次)，0x35a1(循环) 
 234 01f8 8160     		str r1, [r0, # 0x08]
 235              	
 236 01fa DFF88404 	        ldr r0, = 0x40020014
 237 01fe 0021     		movs r1, # 0
 238 0200 8160     		str r1, [r0, # 0x08]
 239 0202 DFF88014 		ldr r1, = 0x40012c34
 240 0206 0161     		str r1, [r0, # 0x10]
 241 0208 DFF84C14 		ldr r1, = zhengxian_100khz
 242 020c 4161     		str r1, [r0, # 0x14]
 243 020e 4FF02801 		ldr r1, = 40
 244 0212 C160     		str r1, [r0, # 0x0c]
 245 0214 1121     		movs r1, # 0x11
 246 0216 8161     		str r1, [r0, # 0x18]
 247 0218 43F2B121 		movw r1, # 0x32b1
 248 021c 8160     		str r1, [r0, # 0x08]
 249              		
 250              	__adc_chushihua:
 251              		@采样时间1\128000000（MHZ）*14(周期)= 9142857HZ
 252 021e DFF86804 		ldr r0, = 0x40020800
 253 0222 4FF00501 		ldr r1, =  0x05
 254 0226 8160     		str r1, [r0, # 0x08]		@开ADC和校准
 255              	__deng_adc_jiaozhun:	
 256 0228 8168     		ldr r1, [r0, # 0x08]
 257 022a 4907     		lsls r1, r1, # 29
 258 022c FCD4     		bmi __deng_adc_jiaozhun		@等ADC校准
 259              	__deng_adc_zhunbeihao:
 260 022e 816D     		ldr r1, [r0, # 0x58]
 261 0230 8906     		lsls r1, r1, # 26
 262 0232 FCD5     		bpl __deng_adc_zhunbeihao	@等ADC准备好
 263              	@	ldr r1, = 0x100000
 264              	@	str r1, [r0, # 0x2c]		@几个通道循环
 265 0234 0121     		movs r1, # 0x01			@通道选择
 266 0236 4163     		str r1, [r0, # 0x34]  		
 267              	@	movw r1, # 0x100
 268              	@	str r1, [r0, # 0x04]		@通道循环采
 269 0238 DFF85014 		ldr r1, = 0x180101	@0X100101  @0x180101
 270 023c 8160     		str r1, [r0, # 0x08]
 271 023e 8160     	        str r1, [r0, # 0x08]		@为啥还要开两次。。。
 272              	
 273              	
 274              	
 275 0240 DFF84C04 		ldr r0, = lvbo_changdu
 276 0244 DFF84C14 		ldr r1, = lvbo_youyi
 277 0248 6422     		movs r2, # 100
 278 024a 0260     		str r2, [r0]
 279 024c 0D22     		movs r2, # 13
 280 024e 0A60     		str r2, [r1]
 281              		
 282              	 @       ldr r0, = 0xe000e010
 283              	@	ldr r1, = 127999
 284              	@	str r1, [r0, # 4]
 285              	@	str r1, [r0, # 8]
ARM GAS  1.s 			page 6


 286              	@	movs r1, # 0x07
 287              	@	str r1, [r0]    @systick 开
 288              	
 289              		
 290              	__tim3chushihua:
 291 0250 DFF84434 		ldr r3, = 0x40000400 @ tim3_cr1
 292 0254 4FF00002 		ldr r2, = 0
 293 0258 9A62     		str r2, [r3, # 0x28] @ psc
 294 025a 4FF01F02 		ldr r2, = 31                  @639=200KHZ
 295 025e DA62     		str r2, [r3, # 0x2c] @ ARR
 296 0260 2022     		movs r2, # 0x20
 297 0262 5A60     		str r2, [r3, # 0x04] @ TRGO
 298 0264 0122     		movs r2, # 0x01
 299 0266 DA60     		str r2, [r3, # 0x0c]
 300 0268 8122     		movs r2, # 0x81
 301              	__tim1_chushiha:
 302 026a DFF83044 		ldr r4, = 0x40012c00 @ tim1_cr1
 303 026e 0025     		movs r5, # 0
 304 0270 A562     		str r5, [r4, # 0x28] @ psc
 305 0272 4FF01F05 		ldr r5, = 31
 306 0276 E562     		str r5, [r4, # 0x2c] @ ARR
 307              	@	movs r2, # 0x20
 308              	@	str r2, [r4, # 0x04]	 @TRGO
 309 0278 40F20025 		movw r5, # 0x200
 310 027c E560     		str r5, [r4, # 0x0c]
 311 027e 6825     		movs r5, # 0x68
 312 0280 A561     		str r5, [r4, # 0x18]   
 313 0282 0325     		movs r5, # 0x03
 314 0284 2562     		str r5, [r4, # 0x20] @ ccer
 315 0286 4FF40045 		ldr r5, = 0x8000
 316 028a 6564     		str r5, [r4, # 0x44] @ BDTR
 317 028c 4FF08105 		ldr r5, = 0x81
 318 0290 2560     		str r5, [r4]
 319 0292 1A60     		str r2, [r3]
 320              	
 321              	
 322              	__spi_chushihua:
 323 0294 DFF80804 		ldr r0, = 0x40013000	
 324 0298 44F26C31 		movw r1, # 0x436c
 325 029c 0160     		str r1, [r0]
 326              	
 327              	__lcd_chushihua:
 328 029e DFF80404 		ldr r0,  = 0x40023418
 329 02a2 48F20001 		movw r1, # 0x8000
 330 02a6 0160     		str r1, [r0]		@RST=1
 331 02a8 FF4A     		ldr r2, = 0x1ffff
 332 02aa 02F045F9 		bl __lcd_yanshi
 333              		
 334 02ae 0904     		lsls r1, r1, # 16
 335 02b0 0160     		str r1, [r0]		@RST=0
 336 02b2 FD4A     		ldr r2, = 0x1ffff
 337 02b4 02F040F9 		bl __lcd_yanshi
 338              		
 339 02b8 090C     		lsrs r1, r1, # 16
 340 02ba 0160     		str r1, [r0]		@RST=1
 341 02bc FA4A     		ldr r2, = 0x1ffff
 342 02be 02F03BF9 		bl __lcd_yanshi
ARM GAS  1.s 			page 7


 343              	
 344 02c2 FA48     		ldr r0, = 0x40023818
 345 02c4 1021     		movs r1, # 0x10
 346 02c6 0904     		lsls r1, r1, # 16
 347 02c8 0160     		str r1, [r0]		@RS=0
 348 02ca F74A     		ldr r2, = 0x1ffff
 349 02cc 02F034F9 		bl __lcd_yanshi
 350              	
 351 02d0 A220     		movs r0, # 0xa2		@ 偏置选择
 352 02d2 02F0FBF8 		bl __xie_spi1
 353 02d6 A020     		movs r0, # 0xa0		@SEG方向（横 0=0到131，1=131到0）
 354 02d8 02F0F8F8 		bl __xie_spi1
 355 02dc C820     		movs r0, # 0xc8		@选择COM方向（竖 0=0到63, 1=63到1）
 356 02de 02F0F5F8 		bl __xie_spi1
 357 02e2 2F20     		movs r0, # 0x2f		@选择调节率
 358 02e4 02F0F2F8 		bl __xie_spi1
 359 02e8 8120     		movs r0, # 0x81		@设置EV命令
 360 02ea 02F0EFF8 		bl __xie_spi1
 361 02ee 2520     		movs r0, # 0x25		@设置EV（0x00-0x3f 对比度）
 362 02f0 02F0ECF8 		bl __xie_spi1
 363 02f4 2F20     		movs r0, # 0x2f		@助推器开启
 364 02f6 02F0E9F8 		bl __xie_spi1		@调节器开、追踪器开
 365 02fa AF20     		movs r0, # 0xaf		@显示开
 366 02fc 02F0E6F8 		bl __xie_spi1
 367              	
 368              	
 369              	
 370              		
 371 0300 02F01DF9 		bl __lcd_qingping
 372              	
 373 0304 EA48     		ldr r0, = liangcheng
 374 0306 0421     		movs r1, # 0x04
 375 0308 0160     		str r1, [r0]
 376              		
 377              	ting:
 378              	
 379              	__qiehuan_shangbi1:
 380 030a D748     		ldr r0, = 0x40023800
 381 030c 0121     		movs r1, # 1
 382 030e 0904     		lsls r1, r1, # 16
 383 0310 E74B     		ldr r3, = liangcheng
 384 0312 E84C     		ldr r4, = shangbi_liangcheng
 385 0314 1B68     		ldr r3, [r3]
 386 0316 D24A     		ldr r2, = 0x40023400
 387 0318 5569     		ldr r5, [r2, 0x14]
 388 031a E35C     		ldrb r3, [r4, r3]
 389 031c 2D0A     		lsrs r5, r5, # 8
 390 031e 2D02     		lsls r5, r5, # 8
 391 0320 2B43     		orrs r3, r3, r5
 392 0322 8161     		str r1, [r0, # 0x18]
 393 0324 5361     		str r3, [r2, # 0x14]
 394              		
 395 0326 E448     		ldr r0, = 100000
 396              	y:
 397 0328 0138     		subs r0, r0, # 1
 398 032a FDD1     		bne y
 399              		
ARM GAS  1.s 			page 8


 400 032c E348     		ldr r0, = cos_sin
 401 032e E449     		ldr r1, = cos_sin_100khz
 402 0330 E44A     		ldr r2, = dft_shuliang
 403 0332 0160     		str r1, [r0]
 404 0334 1921     		movs r1, # 25
 405 0336 1160     		str r1, [r2]
 406 0338 00F0F4FA 		bl __dft_jisuan1
 407 033c C043     		mvns r0, r0
 408 033e 0130     		adds r0, r0, # 1
 409 0340 C943     		mvns r1, r1
 410 0342 0131     		adds r1, r1, # 1
 411 0344 03B4     		push {r0-r1}
 412              		
 413 0346 0446     		mov r4, r0
 414 0348 DF4A     		ldr r2, = lvboqizhizhen2
 415 034a E048     		ldr r0, =lvboqihuanchong2
 416 034c 00F060F9 		bl __lv_bo_qi
 417 0350 DF4A     		ldr r2, = shangbi_i
 418 0352 1060     		str r0, [r2]
 419              	
 420 0354 2146     		mov r1, r4
 421 0356 DF4A     		ldr r2, = lvboqizhizhen3
 422 0358 DF48     		ldr r0, =lvboqihuanchong3
 423 035a 00F059F9 		bl __lv_bo_qi
 424 035e DF4A     		ldr r2, = shangbi_r
 425 0360 1060     		str r0, [r2]
 426              		
 427              	__qiehuan_xiabi1:
 428 0362 C148     		ldr r0, = 0x40023800
 429 0364 0121     		movs r1, # 1
 430 0366 D24B     		ldr r3, = liangcheng
 431 0368 DD4C     		ldr r4, = xiabi_liangcheng
 432 036a 1B68     		ldr r3, [r3]
 433 036c BC4A     		ldr r2, = 0x40023400
 434 036e 5569     		ldr r5, [r2, # 0x14]
 435 0370 E35C     		ldrb r3, [r4, r3]
 436 0372 2D0A     		lsrs r5, r5, # 8
 437 0374 2D02     		lsls r5, r5, # 8
 438 0376 2B43     		orrs r3, r3, r5
 439 0378 8161     		str r1, [r0, # 0x18]
 440 037a 5361     		str r3, [r2, # 0x14]
 441              		
 442              	
 443              		
 444 037c CE48     		ldr r0, = 100000
 445              	y1:	
 446 037e 0138     		subs r0, r0, # 1
 447 0380 FDD1     		bne y1
 448 0382 CE48     		ldr r0, = cos_sin
 449 0384 CE49     		ldr r1, = cos_sin_100khz
 450 0386 CF4A     		ldr r2, = dft_shuliang
 451 0388 0160     		str r1, [r0]
 452 038a 1921     		movs r1, # 25
 453 038c 1160     		str r1, [r2]
 454 038e 00F0C9FA 		bl __dft_jisuan1
 455 0392 03B4     		push {r0-r1}
 456 0394 0446     		mov r4, r0
ARM GAS  1.s 			page 9


 457 0396 D34A     		ldr r2, = lvboqizhizhen
 458 0398 D348     		ldr r0, =lvboqihuanchong
 459 039a 00F039F9 		bl __lv_bo_qi
 460 039e D34A     		ldr r2, = xiabi_i
 461 03a0 1060     		str r0, [r2]
 462              	
 463 03a2 2146     		mov r1, r4
 464 03a4 D24A     		ldr r2, = lvboqizhizhen1
 465 03a6 D348     		ldr r0, =lvboqihuanchong1
 466 03a8 00F032F9 		bl __lv_bo_qi
 467 03ac D24A     		ldr r2, = xiabi_r
 468 03ae 1060     		str r0, [r2]
 469              	
 470 03b0 00F0E2F8 		bl __jisuan_zukang
 471              		
 472 03b4 0FBC     		pop {r0-r3}
 473 03b6 8011     		asrs r0, r0, # 6
 474 03b8 8911     		asrs r1, r1, # 6
 475 03ba 9211     		asrs r2, r2, # 6
 476 03bc 9B11     		asrs r3, r3, # 6
 477 03be CF4C     		ldr r4, = xiabi_rr
 478 03c0 2060     		str r0, [r4]
 479 03c2 6160     		str r1, [r4, # 0x04]
 480 03c4 A260     		str r2, [r4, # 0x08]
 481 03c6 E360     		str r3, [r4, # 0x0c]
 482 03c8 00F0C8F8 		bl __jisuan_z_fudu1
 483 03cc 0646     		mov r6, r0
 484              	
 485 03ce C348     		ldr r0, = shangbi_r
 486 03d0 BF49     		ldr r1, = shangbi_i
 487 03d2 C94A     		ldr r2, = xiabi_r
 488 03d4 C54B     		ldr r3, = xiabi_i
 489 03d6 0068     		ldr r0, [r0]
 490 03d8 0968     		ldr r1, [r1]
 491 03da 1268     		ldr r2, [r2]
 492 03dc 1B68     		ldr r3, [r3]
 493 03de C010     		asrs r0, r0, # 3
 494 03e0 C910     		asrs r1, r1, # 3
 495 03e2 D210     		asrs r2, r2, # 3
 496 03e4 DB10     		asrs r3, r3, # 3
 497 03e6 00F0ABF8 		bl __jisuan_z_fudu
 498 03ea 0146     		mov r1, r0
 499 03ec 801B     		subs r0, r0, r6
 500 03ee 00D5     		bpl __kuaiman_jiance
 501 03f0 701A     		subs r0, r6, r1
 502              	__kuaiman_jiance:
 503 03f2 1428     		cmp r0, # 20
 504 03f4 07D8     		bhi __kuaisu
 505 03f6 FFE7     		b __mansu
 506              	
 507              	__mansu:
 508              		
 509              	
 510 03f8 00F096F9 		bl __xianshi_shangxia_bi
 511              	
 512              	
 513 03fc 00F0BCF8 		bl __jisuan_zukang
ARM GAS  1.s 			page 10


 514 0400 00F05CF8 		bl __xianshi_zukang
 515 0404 81E7     		b ting
 516              		
 517              		
 518              		
 519              		@	ldr r0, = 0x20000200
 520              		@	ldrh r0, [r0]
 521              	@	mov r0, r1
 522              	@	movs r1, # 6
 523              	@	ldr r2, = asciibiao
 524              	@	movs r3, # 0xff            @小数点位置
 525              	@	bl _zhuanascii
 526              	@	movs r0, # 6            @写几个字
 527              	@	movs r1, # 48           @字库单字长度
 528              	@	movs r2, # 3            @宽度
 529              	@	movw r3, # 0x1102              @lcd位置
 530              	@	bl __xie_lcd_ascii
 531              	@	b ting
 532              	__kuaisu:
 533 0406 BE48     		ldr r0, = shangbi_rr
 534 0408 BE49     		ldr r1, = shangbi_ii
 535 040a BC4A     		ldr r2, = xiabi_rr
 536 040c BE4B     		ldr r3, = xiabi_ii
 537 040e 0068     		ldr r0, [r0]
 538 0410 0968     		ldr r1, [r1]
 539 0412 1268     		ldr r2, [r2]
 540 0414 1B68     		ldr r3, [r3]
 541 0416 B14C     		ldr r4, = shangbi_r
 542 0418 AD4D     		ldr r5, = shangbi_i
 543 041a B74E     		ldr r6, = xiabi_r
 544 041c B34F     		ldr r7, = xiabi_i
 545 041e 2060     		str r0, [r4]
 546 0420 2960     		str r1, [r5]
 547 0422 3260     		str r2, [r6]
 548 0424 3B60     		str r3, [r7]
 549              	
 550 0426 00F07FF9 		bl __xianshi_shangxia_bi
 551 042a 00F0A5F8 		bl __jisuan_zukang
 552 042e 00F045F8 		bl __xianshi_zukang
 553 0432 6AE7     		b ting
 554              		
 555 0434 3046     		mov r0, r6
 556 0436 0621     	        movs r1, # 6
 557 0438 B44A     		ldr r2, = asciibiao
 558 043a FF23     		movs r3, # 0xff            @小数点位置
 559 043c 02F057F9 		bl _zhuanascii
 560 0440 0620     		movs r0, # 6            @写几个字
 561 0442 3021     		movs r1, # 48           @字库单字长度
 562 0444 0322     		movs r2, # 3            @宽度
 563 0446 41F20513 		movw r3, # 0x1105              @lcd位置
 564 044a 02F009F9 		bl __xie_lcd_ascii
 565 044e 5CE7     		b ting
 566              		
 567 0450 00F092F8 		bl __jisuan_zukang
 568 0454 00F032F8 		bl __xianshi_zukang
 569 0458 57E7     		b ting
 570              	
ARM GAS  1.s 			page 11


 571 045a 8B48     		ldr r0, = 0x40020800
 572 045c B0F84C00 		ldrh r0, [r0, # 0x4c]
 573 0460 0521     		movs r1, # 5             @转换几个字符
 574 0462 AA4A     		ldr r2, = asciibiao
 575 0464 FF23     		movs r3, # 0xff             @小数点位置
 576 0466 02F05AF9 		bl __zhuanascii
 577 046a A848     		ldr r0, = asciibiao
 578 046c 0521     		movs r1, # 5           @显示几个字符
 579 046e 40F20002 		movw r2, # 0x00         @LCD位置lcd位置(高8位0-0x83,低8位0-7)
 580 0472 02F0ADF8 		bl __xie_ascii
 581              	
 582 0476 7C48     		ldr r0, = 0x40023800
 583 0478 784B     		ldr r3, = 0x20000100
 584 047a 1C68     		ldr r4, [r3]
 585 047c 012C     		cmp r4, # 1
 586 047e 0ED1     		bne __shangbi_kai
 587              	__xiabi_kai:
 588 0480 0121     		movs r1, # 1
 589 0482 8161     		str r1, [r0, # 0x18]
 590 0484 41E7     		b ting
 591              	
 592              		
 593 0486 A249     		ldr r1, = 0x20000104
 594 0488 0A68     		ldr r2, [r1]
 595 048a 0132     		adds r2, r2, # 1
 596 048c 0A60     		str r2, [r1]
 597 048e 642A     		cmp r2, # 100
 598 0490 7FF63BAF 		bls ting
 599 0494 0022     		movs r2, # 0
 600 0496 0A60     		str r2, [r1]
 601 0498 0021     		movs r1, # 0
 602 049a 1960     		str r1, [r3]
 603 049c 35E7     		b ting
 604              	__shangbi_kai:	
 605 049e 0121     		movs r1, # 1
 606              	@	lsls r1, r1, # 16
 607 04a0 8161     		str r1, [r0, # 0x18]
 608 04a2 32E7     		b ting
 609              		
 610 04a4 9A49     		ldr r1, = 0x20000104
 611 04a6 0A68     		ldr r2, [r1]
 612 04a8 0132     		adds r2, r2, # 1
 613 04aa 0A60     		str r2, [r1]
 614 04ac 642A     		cmp r2, # 100
 615 04ae 7FF62CAF 		bls ting
 616 04b2 0022     		movs r2, # 0
 617 04b4 0A60     		str r2, [r1]
 618 04b6 0121     		movs r1, # 1
 619 04b8 1960     		str r1, [r3]
 620 04ba 26E7     		b ting
 621              	
 622              	__xianshi_zukang:
 623 04bc 7FB5     		push {r0-r6,lr}
 624 04be 9548     	        ldr r0, = z_r
 625 04c0 9549     		ldr r1, = z_i
 626 04c2 0068     		ldr r0, [r0]
 627 04c4 0D68     		ldr r5, [r1]
ARM GAS  1.s 			page 12


 628 04c6 0600     		movs r6, r0
 629 04c8 06D4     		bmi __z_r_shi_fu
 630              	__z_r_bushi_fu:
 631 04ca 9448     		ldr r0, = kong
 632 04cc 0121     		movs r1, # 1           @显示几个字符
 633 04ce 40F20002 		movw r2, # 0x00         @LCD位置lcd位置(高8位0-0x83,低8位0-7)
 634 04d2 02F07DF8 		bl __xie_ascii
 635 04d6 07E0     		b __xianshi_z_r
 636              	__z_r_shi_fu:
 637 04d8 9148     		ldr r0, = fu
 638 04da 0121     		movs r1, # 1           @显示几个字符
 639 04dc 40F20002 		movw r2, # 0x00         @LCD位置lcd位置(高8位0-0x83,低8位0-7)
 640 04e0 02F076F8 		bl __xie_ascii
 641 04e4 F643     		mvns r6, r6
 642 04e6 0136     		adds r6, r6, # 1
 643              	__xianshi_z_r:
 644 04e8 3046     		mov r0, r6
 645 04ea 0621     	        movs r1, # 6
 646 04ec 874A     		ldr r2, = asciibiao
 647 04ee 0323     		movs r3, # 3            @小数点位置
 648 04f0 02F0FDF8 		bl _zhuanascii
 649 04f4 0620     		movs r0, # 6            @写几个字
 650 04f6 3021     		movs r1, # 48           @字库单字长度
 651 04f8 0322     		movs r2, # 3            @宽度
 652 04fa 41F20213 		movw r3, # 0x1102              @lcd位置
 653 04fe 02F0AFF8 		bl __xie_lcd_ascii
 654              		
 655              	
 656 0502 2E00     		movs r6, r5
 657 0504 06D4     		bmi __z_i_shi_fu
 658              	__z_i_bushi_fu:
 659 0506 8548     		ldr r0, = kong
 660 0508 0121     		movs r1, # 1           @显示几个字符
 661 050a 44F20022 		movw r2, # 0x4200         @LCD位置lcd位置(高8位0-0x83,低8位0-7)
 662 050e 02F05FF8 		bl __xie_ascii
 663 0512 07E0     		b __xianshi_z_i
 664              	__z_i_shi_fu:
 665 0514 8248     		ldr r0, = fu
 666 0516 0121     		movs r1, # 1           @显示几个字符
 667 0518 44F20022 		movw r2, # 0x4200         @LCD位置lcd位置(高8位0-0x83,低8位0-7)
 668 051c 02F058F8 		bl __xie_ascii
 669 0520 F643     		mvns r6, r6
 670 0522 0136     		adds r6, r6, # 1
 671              	__xianshi_z_i:
 672 0524 3046     		mov r0, r6
 673 0526 0621     	        movs r1, # 6
 674 0528 784A     		ldr r2, = asciibiao
 675 052a 0323     		movs r3, # 3            @小数点位置
 676 052c 02F0DFF8 		bl _zhuanascii
 677 0530 0620     		movs r0, # 6            @写几个字
 678 0532 3021     		movs r1, # 48           @字库单字长度
 679 0534 0322     		movs r2, # 3            @宽度
 680 0536 41F20513 		movw r3, # 0x1105              @lcd位置
 681 053a 02F091F8 		bl __xie_lcd_ascii
 682 053e 7FBD     		pop {r0-r6,pc}
 683              		
 684              	
ARM GAS  1.s 			page 13


 685              	__jisuan_z_fudu:
 686              		@入口R0=a，R1=b，R2=c，R3=d
 687 0540 10B5     		push {r4,lr}
 688 0542 02F058F9 		bl __ji_suan_fu_du
 689 0546 0446     		mov r4, r0
 690 0548 1046     		mov r0, r2
 691 054a 1946     		mov r1, r3
 692 054c 02F053F9 		bl __ji_suan_fu_du
 693 0550 4FF47A72 		ldr r2, = 1000
 694 0554 5443     		muls r4, r4, r2
 695 0556 B4FBF0F0 		udiv r0, r4, r0
 696 055a 10BD     		pop {r4,pc}
 697              	
 698              	__jisuan_z_fudu1:
 699              		@入口R0=c，R1=d，R2=a，R3=b
 700 055c 10B5     		push {r4,lr}
 701 055e 02F04AF9 		bl __ji_suan_fu_du
 702 0562 0446     		mov r4, r0
 703 0564 1046     		mov r0, r2
 704 0566 1946     		mov r1, r3
 705 0568 02F045F9 		bl __ji_suan_fu_du
 706 056c 4FF47A72 		ldr r2, = 1000
 707 0570 5043     		muls r0, r0, r2
 708 0572 B0FBF4F0 		udiv r0, r0, r4
 709 0576 10BD     		pop {r4,pc}
 710              		
 711              		
 712              	__jisuan_zukang:
 713 0578 DFB5     		push {r0-r4,r6-r7,lr}
 714              	@	ldr r0, = zukang_dianzu_biao
 715              	@	ldr r1, = liangcheng
 716              	@	ldr r1, [r1]
 717              	@	lsls r1, r1, # 2
 718              		@	ldr r4, [r0, r1]
 719 057a 42F21074 		ldr r4, = 10000
 720              		
 721 057e 5748     		ldr r0, = shangbi_r
 722 0580 5349     		ldr r1, = shangbi_i
 723 0582 5D4A     		ldr r2, = xiabi_r
 724 0584 594B     		ldr r3, = xiabi_i
 725 0586 0068     		ldr r0, [r0]
 726 0588 0968     		ldr r1, [r1]
 727 058a 1268     		ldr r2, [r2]
 728 058c 1B68     		ldr r3, [r3]
 729 058e 8002     		lsls r0, r0, # 10
 730 0590 8902     		lsls r1, r1, # 10
 731 0592 9202     		lsls r2, r2, # 10
 732 0594 9B02     		lsls r3, r3, # 10
 733 0596 02F0EBF9 		bl __fushu_chufa
 734 059a 0646     		mov r6, r0
 735 059c 0F46     		mov r7, r1
 736 059e 0B46     		mov r3, r1
 737 05a0 2146     		mov r1, r4
 738 05a2 0022     		movs r2, # 0
 739 05a4 0000     		movs r0, r0
 740 05a6 02D5     		bpl __z_r_cheng_dianzu
 741 05a8 0122     		movs r2, # 1
ARM GAS  1.s 			page 14


 742 05aa C043     		mvns r0, r0
 743 05ac 0130     		adds r0, r0, # 1
 744              	__z_r_cheng_dianzu:
 745 05ae 02F0FDF8 		bl __chengfa
 746 05b2 4004     		lsls r0, r0, # 17
 747 05b4 C90B     		lsrs r1, r1, # 15
 748 05b6 0143     		orrs r1, r1, r0
 749 05b8 012A     		cmp r2, # 1
 750 05ba 01D1     		bne __z_i_jiance
 751 05bc C943     		mvns r1, r1
 752 05be 0131     		adds r1, r1, # 1
 753              	__z_i_jiance:
 754 05c0 1846     		mov r0, r3
 755 05c2 0B46     		mov r3, r1
 756 05c4 2146     		mov r1, r4
 757 05c6 0022     		movs r2, # 0
 758 05c8 0000     		movs r0, r0
 759 05ca 02D5     		bpl __z_i_cheng_dianzu
 760 05cc 0122     		movs r2, # 1
 761 05ce C043     		mvns r0, r0
 762 05d0 0130     		adds r0, r0, # 1
 763              	__z_i_cheng_dianzu:
 764 05d2 02F0EBF8 		bl __chengfa
 765 05d6 4004     		lsls r0, r0, # 17
 766 05d8 C90B     		lsrs r1, r1, # 15
 767 05da 0843     		orrs r0, r0, r1
 768 05dc 012A     		cmp r2, # 1
 769 05de 01D1     		bne __jisuan_zukang_fanhui
 770 05e0 C043     		mvns r0, r0
 771 05e2 0130     		adds r0, r0, # 1
 772              	__jisuan_zukang_fanhui:
 773 05e4 1946     		mov r1, r3
 774 05e6 4B4A     		ldr r2, = z_r
 775 05e8 4B4B     		ldr r3, = z_i
 776 05ea 1160     		str r1, [r2]
 777 05ec 1860     		str r0, [r3]
 778 05ee 3046     		mov r0, r6
 779 05f0 3946     		mov r1, r7
 780 05f2 02F08DF9 		bl __suan_atan2
 781 05f6 6421     		movs r1, # 100
 782 05f8 4843     		muls r0, r0, r1
 783 05fa C013     		asrs r0, r0, # 15
 784 05fc 44F25063 		ldr r3, = 18000
 785 0600 9842     		cmp r0, r3
 786 0602 02D9     		bls __bao
 787 0604 48F6A043 		ldr r3, = 36000
 788 0608 C01A     		subs r0, r0, r3
 789              	__bao:
 790 060a 464A     		ldr r2, = z_jiao_du
 791 060c 1060     		str r0, [r2]
 792 060e DFBD     		pop {r0-r4,r6-r7,pc}
 793              	
 794              	
 795              		
 796              	__lv_bo_qi:
 797              		@地址顺序：指针，累加值，缓冲区
 798              		@入口R0=缓冲区，R1=数据, r2,=指针
ARM GAS  1.s 			page 15


 799              		@出口R0
 800 0610 F8B5     		push {r3-r7,lr}
 801 0612 1F4C     		ldr r4, = lvbo_changdu
 802 0614 1F4F     		ldr r7, = lvbo_youyi
 803 0616 2468     		ldr r4, [r4]
 804 0618 3F68     		ldr r7, [r7]
 805 061a 1568     		ldr r5, [r2]
 806 061c 2B46     		mov r3, r5
 807 061e AB00     		lsls r3, r5, # 2
 808 0620 C658     		ldr r6, [r0, r3]
 809 0622 C150     		str r1, [r0, r3]
 810 0624 0135     		adds r5, r5, # 1
 811 0626 1560     		str r5, [r2]
 812 0628 A542     		cmp r5, r4
 813 062a 01D1     		bne __huanchong_leijia
 814 062c 0025     		movs r5, # 0
 815 062e 1560     		str r5, [r2]
 816              	__huanchong_leijia:
 817 0630 0438     		subs r0, r0, # 4
 818 0632 0568     		ldr r5, [r0]
 819 0634 4919     		adds r1, r1, r5
 820 0636 891B     		subs r1, r1, r6
 821 0638 0160     		str r1, [r0]
 822 063a 3941     		asrs r1, r1, r7	 @# 12 @12 @  7	@128
 823 063c 0846     		mov r0, r1
 824 063e F8BD     		pop {r3-r7,pc}
 825 0640 88ED00E0 		.ltorg
 825      00200240 
 825      00100240 
 825      02003900 
 825      00000101 
 826              	
 827              		
 828              	__xianshi_shangxia_bi:
 829 0728 2DE9FF5F 		push {r0-r12,lr}
 830 072c 6E48     		ldr r0, = shangbi_r
 831 072e 6F49     		ldr r1, = shangbi_i
 832 0730 0068     		ldr r0, [r0]
 833 0732 0F68     		ldr r7, [r1]
 834 0734 0600     		movs r6, r0
 835 0736 06D4     		bmi __shangbi_r_shi_fu
 836              	__shangbi_r_bushi_fu:
 837 0738 6D48     		ldr r0, = kong
 838 073a 0121     		movs r1, # 1           @显示几个字符
 839 073c 40F20002 		movw r2, # 0x00         @LCD位置lcd位置(高8位0-0x83,低8位0-7)
 840 0740 01F046FF 		bl __xie_ascii
 841 0744 07E0     		b __xianshi_shangbi_r
 842              	__shangbi_r_shi_fu:
 843 0746 6B48     		ldr r0, = fu
 844 0748 0121     		movs r1, # 1           @显示几个字符
 845 074a 40F20002 		movw r2, # 0x00         @LCD位置lcd位置(高8位0-0x83,低8位0-7)
 846 074e 01F03FFF 		bl __xie_ascii
 847 0752 F643     		mvns r6, r6
 848 0754 0136     		adds r6, r6, # 1
 849              	__xianshi_shangbi_r:
 850 0756 3046     		mov r0, r6
 851 0758 0821     		movs r1, # 8             @转换几个字符
ARM GAS  1.s 			page 16


 852 075a 674A     		ldr r2, = asciibiao
 853 075c FF23     		movs r3, # 0xff             @小数点位置
 854 075e 01F0DEFF 		bl __zhuanascii
 855 0762 6548     		ldr r0, = asciibiao
 856 0764 0821     		movs r1, # 8           @显示几个字符
 857 0766 40F60002 		movw r2, # 0x800         @LCD位置lcd位置(高8位0-0x83,低8位0-7)
 858 076a 01F031FF 		bl __xie_ascii
 859              	
 860 076e 3E00     	        movs r6, r7
 861 0770 06D4     		bmi __shangbi_i_shi_fu
 862              	__shangbi_i_bushi_fu:
 863 0772 5F48     		ldr r0, = kong
 864 0774 0121     		movs r1, # 1           @显示几个字符
 865 0776 44F20022 		movw r2, # 0x4200         @LCD位置lcd位置(高8位0-0x83,低8位0-7)
 866 077a 01F029FF 		bl __xie_ascii
 867 077e 07E0     		b __xianshi_shangbi_i
 868              	__shangbi_i_shi_fu:
 869 0780 5C48     		ldr r0, = fu
 870 0782 0121     		movs r1, # 1           @显示几个字符
 871 0784 44F20022 		movw r2, # 0x4200         @LCD位置lcd位置(高8位0-0x83,低8位0-7)
 872 0788 01F022FF 		bl __xie_ascii
 873 078c F643     		mvns r6, r6
 874 078e 0136     		adds r6, r6, # 1
 875              	__xianshi_shangbi_i:
 876 0790 3046     		mov r0, r6
 877 0792 0821     		movs r1, # 8             @转换几个字符
 878 0794 584A     		ldr r2, = asciibiao
 879 0796 FF23     		movs r3, # 0xff             @小数点位置
 880 0798 01F0C1FF 		bl __zhuanascii
 881 079c 5648     		ldr r0, = asciibiao
 882 079e 0821     		movs r1, # 8           @显示几个字符
 883 07a0 44F60022 		movw r2, # 0x4a00         @LCD位置lcd位置(高8位0-0x83,低8位0-7)
 884 07a4 01F014FF 		bl __xie_ascii
 885              	
 886 07a8 5448     	        ldr r0, = xiabi_r
 887 07aa 5549     		ldr r1, = xiabi_i
 888 07ac 0068     		ldr r0, [r0]
 889 07ae 0F68     		ldr r7, [r1]
 890 07b0 0600     		movs r6, r0
 891 07b2 06D4     		bmi __xiabi_r_shi_fu
 892              	__xiabi_r_bushi_fu:
 893 07b4 4E48     		ldr r0, = kong
 894 07b6 0121     		movs r1, # 1           @显示几个字符
 895 07b8 40F20102 		movw r2, # 0x01         @LCD位置lcd位置(高8位0-0x83,低8位0-7)
 896 07bc 01F008FF 		bl __xie_ascii
 897 07c0 07E0     		b __xianshi_xiabi_r
 898              	__xiabi_r_shi_fu:
 899 07c2 4C48     		ldr r0, = fu
 900 07c4 0121     		movs r1, # 1           @显示几个字符
 901 07c6 40F20102 		movw r2, # 0x01         @LCD位置lcd位置(高8位0-0x83,低8位0-7)
 902 07ca 01F001FF 		bl __xie_ascii
 903 07ce F643     		mvns r6, r6
 904 07d0 0136     		adds r6, r6, # 1
 905              	__xianshi_xiabi_r:
 906 07d2 3046     		mov r0, r6
 907 07d4 0821     		movs r1, # 8             @转换几个字符
 908 07d6 484A     		ldr r2, = asciibiao
ARM GAS  1.s 			page 17


 909 07d8 FF23     		movs r3, # 0xff             @小数点位置
 910 07da 01F0A0FF 		bl __zhuanascii
 911 07de 4648     		ldr r0, = asciibiao
 912 07e0 0821     		movs r1, # 8           @显示几个字符
 913 07e2 40F60102 		movw r2, # 0x801         @LCD位置lcd位置(高8位0-0x83,低8位0-7)
 914 07e6 01F0F3FE 		bl __xie_ascii
 915              	
 916 07ea 3E00     		movs r6, r7
 917 07ec 06D4     		bmi __xiabi_i_shi_fu
 918              	__xiabi_i_bushi_fu:
 919 07ee 4048     		ldr r0, = kong
 920 07f0 0121     		movs r1, # 1           @显示几个字符
 921 07f2 44F20122 		movw r2, # 0x4201         @LCD位置lcd位置(高8位0-0x83,低8位0-7)
 922 07f6 01F0EBFE 		bl __xie_ascii
 923 07fa 07E0     		b __xianshi_xiabi_i
 924              	__xiabi_i_shi_fu:
 925 07fc 3D48     		ldr r0, = fu
 926 07fe 0121     		movs r1, # 1           @显示几个字符
 927 0800 44F20122 		movw r2, # 0x4201         @LCD位置lcd位置(高8位0-0x83,低8位0-7)
 928 0804 01F0E4FE 		bl __xie_ascii
 929 0808 F643     		mvns r6, r6
 930 080a 0136     		adds r6, r6, # 1
 931              	__xianshi_xiabi_i:
 932 080c 3046     		mov r0, r6
 933 080e 0821     		movs r1, # 8             @转换几个字符
 934 0810 394A     		ldr r2, = asciibiao
 935 0812 FF23     		movs r3, # 0xff             @小数点位置
 936 0814 01F083FF 		bl __zhuanascii
 937 0818 3748     		ldr r0, = asciibiao
 938 081a 0821     		movs r1, # 8           @显示几个字符
 939 081c 44F60122 		movw r2, # 0x4a01         @LCD位置lcd位置(高8位0-0x83,低8位0-7)
 940 0820 01F0D6FE 		bl __xie_ascii
 941              		
 942 0824 BDE8FF9F 		pop {r0-r12,pc}
 943              	
 944              		
 945              	
 946              	__ceshi_dft_shijian:
 947 0828 3648     		ldr r0, = 0xe000e010
 948 082a 6FF07F41 		ldr r1, = 0xffffff
 949 082e 4160     		str r1, [r0, # 4]
 950 0830 8160     		str r1, [r0, # 8]
 951 0832 0721     		movs r1, # 0x07
 952 0834 0160     		str r1, [r0]    @systick 开
 953              	
 954 0836 3448     		ldr r0, = cos_sin
 955 0838 3449     		ldr r1, = cos_sin_100khz
 956 083a 0160     		str r1, [r0]
 957 083c 3448     		ldr r0, = dft_shuliang
 958 083e 3221     		movs r1, # 50
 959 0840 0160     		str r1, [r0]
 960 0842 01F019F8 		bl __dft_jisuan
 961              	
 962 0846 3348     		ldr r0, = 0xe000e018
 963 0848 D0F800A0 		ldr r10, [r0]
 964 084c 01BE     		bkpt # 1
 965              		
ARM GAS  1.s 			page 18


 966              	
 967              	__lcd_xianshi_shuju_shiyan:	
 968 084e 43F23900 		ldr r0, = 12345
 969 0852 0621     		movs r1, # 6
 970 0854 284A     		ldr r2, = asciibiao
 971 0856 0423     		movs r3, # 4            @小数点位置
 972 0858 01F049FF 		bl _zhuanascii
 973 085c 0620     		movs r0, # 6            @写几个字
 974 085e 3021     		movs r1, # 48           @字库单字长度
 975 0860 0322     		movs r2, # 3            @宽度
 976 0862 41F20013 		movw r3, # 0x1100              @lcd位置
 977 0866 01F0FBFE 		bl __xie_lcd_ascii
 978              		
 979 086a 43F23900 		ldr r0, = 12345
 980 086e 0621     		movs r1, # 6
 981 0870 214A     		ldr r2, = asciibiao
 982 0872 0423     		movs r3, # 4            @小数点位置
 983 0874 01F03BFF 		bl _zhuanascii
 984 0878 0620     		movs r0, # 6            @写几个字
 985 087a 3021     		movs r1, # 48           @字库单字长度
 986 087c 0322     		movs r2, # 3            @宽度
 987 087e 41F20313 		movw r3, # 0x1103              @lcd位置
 988 0882 01F0EDFE 		bl __xie_lcd_ascii
 989              		
 990              		
 991 0886 4FF02900 		ldr r0, = 41
 992 088a 0221     		movs r1, # 2             @两个字符
 993 088c 1A4A     		ldr r2, = asciibiao
 994 088e FF23     		movs r3, # 0xff
 995 0890 01F02DFF 		bl _zhuanascii
 996 0894 0220     		movs r0, # 2            @写几个字
 997 0896 2D21     		movs r1, # 45           @字库单字长度
 998 0898 0322     		movs r2, # 3            @宽度
 999 089a 46F20053 		movw r3, # 0x6500              @lcd位置(高8位0-0x83,低8位0-7)
 1000 089e 1E4C     		ldr r4, = danweibiao
 1001 08a0 01F0B7FE 		bl __xie_alabo
 1002              		
 1003              		
 1004 08a4 4FF00700 		ldr r0, = 07
 1005 08a8 0221     		movs r1, # 2             @转换几个字符
 1006 08aa 134A     		ldr r2, = asciibiao
 1007 08ac FF23     		movs r3, # 0xff
 1008 08ae 01F01EFF 		bl _zhuanascii
 1009 08b2 0220     		movs r0, # 2            @写几个字
 1010 08b4 2D21     		movs r1, # 45           @字库单字长度
 1011 08b6 0322     		movs r2, # 3            @宽度
 1012 08b8 46F20353 		movw r3, # 0x6503              @lcd位置(高8位0-0x83,低8位0-7)
 1013 08bc 164C     		ldr r4, = danweibiao
 1014 08be 01F0A8FE 		bl __xie_alabo
 1015              	
 1016 08c2 1648     		ldr r0, = yjmwxwx
 1017 08c4 0721     		movs r1, # 7
 1018 08c6 40F20602 		movw r2, # 0x06
 1019 08ca 01F081FE 		bl __xie_ascii
 1020              		
 1021 08ce 1448     	        ldr r0, = 123456789
 1022 08d0 0A21     		movs r1, # 10             @转换几个字符
ARM GAS  1.s 			page 19


 1023 08d2 094A     		ldr r2, = asciibiao
 1024 08d4 0323     		movs r3, # 3		 @小数点位置
 1025 08d6 01F022FF 		bl __zhuanascii
 1026 08da 0748     		ldr r0, = asciibiao	 
 1027 08dc 0A21     		movs r1, # 10		@显示几个字符
 1028 08de 40F20702 		movw r2, # 0x07		@LCD位置lcd位置(高8位0-0x83,低8位0-7)
 1029 08e2 01F075FE 		bl __xie_ascii
 1030 08e6 7047     		bx lr
 1031 08e8 EC010020 		.ltorg
 1031      F0010020 
 1031      07000000 
 1031      08000000 
 1031      00000020 
 1032              	
 1033              		
 1034              	__dft_jisuan1:	 
 1035              		@出口R0=实部，R1=虚部
 1036 0924 2DE9FC5F 		push {r2-r12,lr}
 1037 0928 DFF83C0F 		ldr r0, = sp_zhizhen
 1038 092c C0F800D0 		str sp, [r0]
 1039 0930 DFF838DF 		ldr sp, = cos_sin
 1040 0934 DDF800D0 		ldr sp, [sp]
 1041 0938 DFF834CF 		ldr r12, = dianyabiao          @dianyabiao
 1042 093c 5FF0000A 		movs r10, # 0
 1043 0940 5FF0000B 		movs r11, # 0
 1044              	__dft_xunhuan1:
 1045              		@0 (4 ge)
 1046 0944 BDE8FC03 		pop {r2-r9}
 1047 0948 BCE80300 		ldmia r12!, {r0-r1}
 1048 094c 8646     		mov lr, r0
 1049 094e 5FEA1E4E 		lsrs lr, lr, # 16
 1050 0952 0004     		lsls r0, r0, # 16
 1051 0954 000C     		lsrs r0, r0, # 16
 1052 0956 02FB0EF2 		mul r2, r2, lr
 1053 095a 03FB0EF3 		mul r3, r3, lr
 1054 095e 04FB00F4 		mul r4, r4, r0
 1055 0962 05FB00F5 		mul r5, r5, r0
 1056 0966 8E46     		mov lr, r1
 1057 0968 5FEA1E4E 		lsrs lr, lr, # 16
 1058 096c 0904     		lsls r1, r1, # 16
 1059 096e 090C     		lsrs r1, r1, # 16
 1060 0970 06FB0EF6 		mul r6, r6, lr
 1061 0974 07FB0EF7 		mul r7, r7, lr
 1062 0978 08FB01F8 		mul r8, r8, r1
 1063 097c 09FB01F9 		mul r9, r9, r1
 1064 0980 5213     		asrs r2, r2, # 13
 1065 0982 5B13     		asrs r3, r3, # 13
 1066 0984 6413     		asrs r4, r4, # 13
 1067 0986 6D13     		asrs r5, r5, # 13
 1068 0988 7613     		asrs r6, r6, # 13
 1069 098a 7F13     		asrs r7, r7, # 13
 1070 098c 5FEA6838 		asrs r8, r8, # 13
 1071 0990 5FEA6939 		asrs r9, r9, # 13
 1072 0994 9244     		add r10, r10, r2
 1073 0996 A244     		add r10, r10, r4
 1074 0998 B244     		add r10, r10, r6
 1075 099a C244     		add r10, r10, r8
ARM GAS  1.s 			page 20


 1076 099c 9B44     		add r11, r11, r3
 1077 099e AB44     		add r11, r11, r5
 1078 09a0 BB44     		add r11, r11, r7
 1079 09a2 CB44     		add r11, r11, r9
 1080              		@1
 1081 09a4 BDE8FC03 		pop {r2-r9}
 1082 09a8 BCE80300 		ldmia r12!, {r0-r1}
 1083 09ac 8646     		mov lr, r0
 1084 09ae 5FEA1E4E 		lsrs lr, lr, # 16
 1085 09b2 0004     		lsls r0, r0, # 16
 1086 09b4 000C     		lsrs r0, r0, # 16
 1087 09b6 02FB0EF2 		mul r2, r2, lr
 1088 09ba 03FB0EF3 		mul r3, r3, lr
 1089 09be 04FB00F4 		mul r4, r4, r0
 1090 09c2 05FB00F5 		mul r5, r5, r0
 1091 09c6 8E46     		mov lr, r1
 1092 09c8 5FEA1E4E 		lsrs lr, lr, # 16
 1093 09cc 0904     		lsls r1, r1, # 16
 1094 09ce 090C     		lsrs r1, r1, # 16
 1095 09d0 06FB0EF6 		mul r6, r6, lr
 1096 09d4 07FB0EF7 		mul r7, r7, lr
 1097 09d8 08FB01F8 		mul r8, r8, r1
 1098 09dc 09FB01F9 		mul r9, r9, r1
 1099 09e0 5213     		asrs r2, r2, # 13
 1100 09e2 5B13     		asrs r3, r3, # 13
 1101 09e4 6413     		asrs r4, r4, # 13
 1102 09e6 6D13     		asrs r5, r5, # 13
 1103 09e8 7613     		asrs r6, r6, # 13
 1104 09ea 7F13     		asrs r7, r7, # 13
 1105 09ec 5FEA6838 		asrs r8, r8, # 13
 1106 09f0 5FEA6939 		asrs r9, r9, # 13
 1107 09f4 9244     		add r10, r10, r2
 1108 09f6 A244     		add r10, r10, r4
 1109 09f8 B244     		add r10, r10, r6
 1110 09fa C244     		add r10, r10, r8
 1111 09fc 9B44     		add r11, r11, r3
 1112 09fe AB44     		add r11, r11, r5
 1113 0a00 BB44     		add r11, r11, r7
 1114 0a02 CB44     		add r11, r11, r9
 1115              		@2
 1116 0a04 BDE8FC03 		pop {r2-r9}
 1117 0a08 BCE80300 		ldmia r12!, {r0-r1}
 1118 0a0c 8646     		mov lr, r0
 1119 0a0e 5FEA1E4E 		lsrs lr, lr, # 16
 1120 0a12 0004     		lsls r0, r0, # 16
 1121 0a14 000C     		lsrs r0, r0, # 16
 1122 0a16 02FB0EF2 		mul r2, r2, lr
 1123 0a1a 03FB0EF3 		mul r3, r3, lr
 1124 0a1e 04FB00F4 		mul r4, r4, r0
 1125 0a22 05FB00F5 		mul r5, r5, r0
 1126 0a26 8E46     		mov lr, r1
 1127 0a28 5FEA1E4E 		lsrs lr, lr, # 16
 1128 0a2c 0904     		lsls r1, r1, # 16
 1129 0a2e 090C     		lsrs r1, r1, # 16
 1130 0a30 06FB0EF6 		mul r6, r6, lr
 1131 0a34 07FB0EF7 		mul r7, r7, lr
 1132 0a38 08FB01F8 		mul r8, r8, r1
ARM GAS  1.s 			page 21


 1133 0a3c 09FB01F9 		mul r9, r9, r1
 1134 0a40 5213     		asrs r2, r2, # 13
 1135 0a42 5B13     		asrs r3, r3, # 13
 1136 0a44 6413     		asrs r4, r4, # 13
 1137 0a46 6D13     		asrs r5, r5, # 13
 1138 0a48 7613     		asrs r6, r6, # 13
 1139 0a4a 7F13     		asrs r7, r7, # 13
 1140 0a4c 5FEA6838 		asrs r8, r8, # 13
 1141 0a50 5FEA6939 		asrs r9, r9, # 13
 1142 0a54 9244     		add r10, r10, r2
 1143 0a56 A244     		add r10, r10, r4
 1144 0a58 B244     		add r10, r10, r6
 1145 0a5a C244     		add r10, r10, r8
 1146 0a5c 9B44     		add r11, r11, r3
 1147 0a5e AB44     		add r11, r11, r5
 1148 0a60 BB44     		add r11, r11, r7
 1149 0a62 CB44     		add r11, r11, r9
 1150              		@3
 1151 0a64 BDE8FC03 		pop {r2-r9}
 1152 0a68 BCE80300 		ldmia r12!, {r0-r1}
 1153 0a6c 8646     		mov lr, r0
 1154 0a6e 5FEA1E4E 		lsrs lr, lr, # 16
 1155 0a72 0004     		lsls r0, r0, # 16
 1156 0a74 000C     		lsrs r0, r0, # 16
 1157 0a76 02FB0EF2 		mul r2, r2, lr
 1158 0a7a 03FB0EF3 		mul r3, r3, lr
 1159 0a7e 04FB00F4 		mul r4, r4, r0
 1160 0a82 05FB00F5 		mul r5, r5, r0
 1161 0a86 8E46     		mov lr, r1
 1162 0a88 5FEA1E4E 		lsrs lr, lr, # 16
 1163 0a8c 0904     		lsls r1, r1, # 16
 1164 0a8e 090C     		lsrs r1, r1, # 16
 1165 0a90 06FB0EF6 		mul r6, r6, lr
 1166 0a94 07FB0EF7 		mul r7, r7, lr
 1167 0a98 08FB01F8 		mul r8, r8, r1
 1168 0a9c 09FB01F9 		mul r9, r9, r1
 1169 0aa0 5213     		asrs r2, r2, # 13
 1170 0aa2 5B13     		asrs r3, r3, # 13
 1171 0aa4 6413     		asrs r4, r4, # 13
 1172 0aa6 6D13     		asrs r5, r5, # 13
 1173 0aa8 7613     		asrs r6, r6, # 13
 1174 0aaa 7F13     		asrs r7, r7, # 13
 1175 0aac 5FEA6838 		asrs r8, r8, # 13
 1176 0ab0 5FEA6939 		asrs r9, r9, # 13
 1177 0ab4 9244     		add r10, r10, r2
 1178 0ab6 A244     		add r10, r10, r4
 1179 0ab8 B244     		add r10, r10, r6
 1180 0aba C244     		add r10, r10, r8
 1181 0abc 9B44     		add r11, r11, r3
 1182 0abe AB44     		add r11, r11, r5
 1183 0ac0 BB44     		add r11, r11, r7
 1184 0ac2 CB44     		add r11, r11, r9
 1185              		@4
 1186 0ac4 BDE8FC03 		pop {r2-r9}
 1187 0ac8 BCE80300 		ldmia r12!, {r0-r1}
 1188 0acc 8646     		mov lr, r0
 1189 0ace 5FEA1E4E 		lsrs lr, lr, # 16
ARM GAS  1.s 			page 22


 1190 0ad2 0004     		lsls r0, r0, # 16
 1191 0ad4 000C     		lsrs r0, r0, # 16
 1192 0ad6 02FB0EF2 		mul r2, r2, lr
 1193 0ada 03FB0EF3 		mul r3, r3, lr
 1194 0ade 04FB00F4 		mul r4, r4, r0
 1195 0ae2 05FB00F5 		mul r5, r5, r0
 1196 0ae6 8E46     		mov lr, r1
 1197 0ae8 5FEA1E4E 		lsrs lr, lr, # 16
 1198 0aec 0904     		lsls r1, r1, # 16
 1199 0aee 090C     		lsrs r1, r1, # 16
 1200 0af0 06FB0EF6 		mul r6, r6, lr
 1201 0af4 07FB0EF7 		mul r7, r7, lr
 1202 0af8 08FB01F8 		mul r8, r8, r1
 1203 0afc 09FB01F9 		mul r9, r9, r1
 1204 0b00 5213     		asrs r2, r2, # 13
 1205 0b02 5B13     		asrs r3, r3, # 13
 1206 0b04 6413     		asrs r4, r4, # 13
 1207 0b06 6D13     		asrs r5, r5, # 13
 1208 0b08 7613     		asrs r6, r6, # 13
 1209 0b0a 7F13     		asrs r7, r7, # 13
 1210 0b0c 5FEA6838 		asrs r8, r8, # 13
 1211 0b10 5FEA6939 		asrs r9, r9, # 13
 1212 0b14 9244     		add r10, r10, r2
 1213 0b16 A244     		add r10, r10, r4
 1214 0b18 B244     		add r10, r10, r6
 1215 0b1a C244     		add r10, r10, r8
 1216 0b1c 9B44     		add r11, r11, r3
 1217 0b1e AB44     		add r11, r11, r5
 1218 0b20 BB44     		add r11, r11, r7
 1219 0b22 CB44     		add r11, r11, r9
 1220              		@5
 1221 0b24 BDE8FC03 		pop {r2-r9}
 1222 0b28 BCE80300 		ldmia r12!, {r0-r1}
 1223 0b2c 8646     		mov lr, r0
 1224 0b2e 5FEA1E4E 		lsrs lr, lr, # 16
 1225 0b32 0004     		lsls r0, r0, # 16
 1226 0b34 000C     		lsrs r0, r0, # 16
 1227 0b36 02FB0EF2 		mul r2, r2, lr
 1228 0b3a 03FB0EF3 		mul r3, r3, lr
 1229 0b3e 04FB00F4 		mul r4, r4, r0
 1230 0b42 05FB00F5 		mul r5, r5, r0
 1231 0b46 8E46     		mov lr, r1
 1232 0b48 5FEA1E4E 		lsrs lr, lr, # 16
 1233 0b4c 0904     		lsls r1, r1, # 16
 1234 0b4e 090C     		lsrs r1, r1, # 16
 1235 0b50 06FB0EF6 		mul r6, r6, lr
 1236 0b54 07FB0EF7 		mul r7, r7, lr
 1237 0b58 08FB01F8 		mul r8, r8, r1
 1238 0b5c 09FB01F9 		mul r9, r9, r1
 1239 0b60 5213     		asrs r2, r2, # 13
 1240 0b62 5B13     		asrs r3, r3, # 13
 1241 0b64 6413     		asrs r4, r4, # 13
 1242 0b66 6D13     		asrs r5, r5, # 13
 1243 0b68 7613     		asrs r6, r6, # 13
 1244 0b6a 7F13     		asrs r7, r7, # 13
 1245 0b6c 5FEA6838 		asrs r8, r8, # 13
 1246 0b70 5FEA6939 		asrs r9, r9, # 13
ARM GAS  1.s 			page 23


 1247 0b74 9244     		add r10, r10, r2
 1248 0b76 A244     		add r10, r10, r4
 1249 0b78 B244     		add r10, r10, r6
 1250 0b7a C244     		add r10, r10, r8
 1251 0b7c 9B44     		add r11, r11, r3
 1252 0b7e AB44     		add r11, r11, r5
 1253 0b80 BB44     		add r11, r11, r7
 1254 0b82 CB44     		add r11, r11, r9
 1255              		@6
 1256 0b84 BDE8FC03 		pop {r2-r9}
 1257 0b88 BCE80300 		ldmia r12!, {r0-r1}
 1258 0b8c 8646     		mov lr, r0
 1259 0b8e 5FEA1E4E 		lsrs lr, lr, # 16
 1260 0b92 0004     		lsls r0, r0, # 16
 1261 0b94 000C     		lsrs r0, r0, # 16
 1262 0b96 02FB0EF2 		mul r2, r2, lr
 1263 0b9a 03FB0EF3 		mul r3, r3, lr
 1264 0b9e 04FB00F4 		mul r4, r4, r0
 1265 0ba2 05FB00F5 		mul r5, r5, r0
 1266 0ba6 8E46     		mov lr, r1
 1267 0ba8 5FEA1E4E 		lsrs lr, lr, # 16
 1268 0bac 0904     		lsls r1, r1, # 16
 1269 0bae 090C     		lsrs r1, r1, # 16
 1270 0bb0 06FB0EF6 		mul r6, r6, lr
 1271 0bb4 07FB0EF7 		mul r7, r7, lr
 1272 0bb8 08FB01F8 		mul r8, r8, r1
 1273 0bbc 09FB01F9 		mul r9, r9, r1
 1274 0bc0 5213     		asrs r2, r2, # 13
 1275 0bc2 5B13     		asrs r3, r3, # 13
 1276 0bc4 6413     		asrs r4, r4, # 13
 1277 0bc6 6D13     		asrs r5, r5, # 13
 1278 0bc8 7613     		asrs r6, r6, # 13
 1279 0bca 7F13     		asrs r7, r7, # 13
 1280 0bcc 5FEA6838 		asrs r8, r8, # 13
 1281 0bd0 5FEA6939 		asrs r9, r9, # 13
 1282 0bd4 9244     		add r10, r10, r2
 1283 0bd6 A244     		add r10, r10, r4
 1284 0bd8 B244     		add r10, r10, r6
 1285 0bda C244     		add r10, r10, r8
 1286 0bdc 9B44     		add r11, r11, r3
 1287 0bde AB44     		add r11, r11, r5
 1288 0be0 BB44     		add r11, r11, r7
 1289 0be2 CB44     		add r11, r11, r9
 1290              		@7
 1291 0be4 BDE8FC03 		pop {r2-r9}
 1292 0be8 BCE80300 		ldmia r12!, {r0-r1}
 1293 0bec 8646     		mov lr, r0
 1294 0bee 5FEA1E4E 		lsrs lr, lr, # 16
 1295 0bf2 0004     		lsls r0, r0, # 16
 1296 0bf4 000C     		lsrs r0, r0, # 16
 1297 0bf6 02FB0EF2 		mul r2, r2, lr
 1298 0bfa 03FB0EF3 		mul r3, r3, lr
 1299 0bfe 04FB00F4 		mul r4, r4, r0
 1300 0c02 05FB00F5 		mul r5, r5, r0
 1301 0c06 8E46     		mov lr, r1
 1302 0c08 5FEA1E4E 		lsrs lr, lr, # 16
 1303 0c0c 0904     		lsls r1, r1, # 16
ARM GAS  1.s 			page 24


 1304 0c0e 090C     		lsrs r1, r1, # 16
 1305 0c10 06FB0EF6 		mul r6, r6, lr
 1306 0c14 07FB0EF7 		mul r7, r7, lr
 1307 0c18 08FB01F8 		mul r8, r8, r1
 1308 0c1c 09FB01F9 		mul r9, r9, r1
 1309 0c20 5213     		asrs r2, r2, # 13
 1310 0c22 5B13     		asrs r3, r3, # 13
 1311 0c24 6413     		asrs r4, r4, # 13
 1312 0c26 6D13     		asrs r5, r5, # 13
 1313 0c28 7613     		asrs r6, r6, # 13
 1314 0c2a 7F13     		asrs r7, r7, # 13
 1315 0c2c 5FEA6838 		asrs r8, r8, # 13
 1316 0c30 5FEA6939 		asrs r9, r9, # 13
 1317 0c34 9244     		add r10, r10, r2
 1318 0c36 A244     		add r10, r10, r4
 1319 0c38 B244     		add r10, r10, r6
 1320 0c3a C244     		add r10, r10, r8
 1321 0c3c 9B44     		add r11, r11, r3
 1322 0c3e AB44     		add r11, r11, r5
 1323 0c40 BB44     		add r11, r11, r7
 1324 0c42 CB44     		add r11, r11, r9
 1325              		@8
 1326 0c44 BDE8FC03 		pop {r2-r9}
 1327 0c48 BCE80300 		ldmia r12!, {r0-r1}
 1328 0c4c 8646     		mov lr, r0
 1329 0c4e 5FEA1E4E 		lsrs lr, lr, # 16
 1330 0c52 0004     		lsls r0, r0, # 16
 1331 0c54 000C     		lsrs r0, r0, # 16
 1332 0c56 02FB0EF2 		mul r2, r2, lr
 1333 0c5a 03FB0EF3 		mul r3, r3, lr
 1334 0c5e 04FB00F4 		mul r4, r4, r0
 1335 0c62 05FB00F5 		mul r5, r5, r0
 1336 0c66 8E46     		mov lr, r1
 1337 0c68 5FEA1E4E 		lsrs lr, lr, # 16
 1338 0c6c 0904     		lsls r1, r1, # 16
 1339 0c6e 090C     		lsrs r1, r1, # 16
 1340 0c70 06FB0EF6 		mul r6, r6, lr
 1341 0c74 07FB0EF7 		mul r7, r7, lr
 1342 0c78 08FB01F8 		mul r8, r8, r1
 1343 0c7c 09FB01F9 		mul r9, r9, r1
 1344 0c80 5213     		asrs r2, r2, # 13
 1345 0c82 5B13     		asrs r3, r3, # 13
 1346 0c84 6413     		asrs r4, r4, # 13
 1347 0c86 6D13     		asrs r5, r5, # 13
 1348 0c88 7613     		asrs r6, r6, # 13
 1349 0c8a 7F13     		asrs r7, r7, # 13
 1350 0c8c 5FEA6838 		asrs r8, r8, # 13
 1351 0c90 5FEA6939 		asrs r9, r9, # 13
 1352 0c94 9244     		add r10, r10, r2
 1353 0c96 A244     		add r10, r10, r4
 1354 0c98 B244     		add r10, r10, r6
 1355 0c9a C244     		add r10, r10, r8
 1356 0c9c 9B44     		add r11, r11, r3
 1357 0c9e AB44     		add r11, r11, r5
 1358 0ca0 BB44     		add r11, r11, r7
 1359 0ca2 CB44     		add r11, r11, r9
 1360              		@9
ARM GAS  1.s 			page 25


 1361 0ca4 BDE8FC03 		pop {r2-r9}
 1362 0ca8 BCE80300 		ldmia r12!, {r0-r1}
 1363 0cac 8646     		mov lr, r0
 1364 0cae 5FEA1E4E 		lsrs lr, lr, # 16
 1365 0cb2 0004     		lsls r0, r0, # 16
 1366 0cb4 000C     		lsrs r0, r0, # 16
 1367 0cb6 02FB0EF2 		mul r2, r2, lr
 1368 0cba 03FB0EF3 		mul r3, r3, lr
 1369 0cbe 04FB00F4 		mul r4, r4, r0
 1370 0cc2 05FB00F5 		mul r5, r5, r0
 1371 0cc6 8E46     		mov lr, r1
 1372 0cc8 5FEA1E4E 		lsrs lr, lr, # 16
 1373 0ccc 0904     		lsls r1, r1, # 16
 1374 0cce 090C     		lsrs r1, r1, # 16
 1375 0cd0 06FB0EF6 		mul r6, r6, lr
 1376 0cd4 07FB0EF7 		mul r7, r7, lr
 1377 0cd8 08FB01F8 		mul r8, r8, r1
 1378 0cdc 09FB01F9 		mul r9, r9, r1
 1379 0ce0 5213     		asrs r2, r2, # 13
 1380 0ce2 5B13     		asrs r3, r3, # 13
 1381 0ce4 6413     		asrs r4, r4, # 13
 1382 0ce6 6D13     		asrs r5, r5, # 13
 1383 0ce8 7613     		asrs r6, r6, # 13
 1384 0cea 7F13     		asrs r7, r7, # 13
 1385 0cec 5FEA6838 		asrs r8, r8, # 13
 1386 0cf0 5FEA6939 		asrs r9, r9, # 13
 1387 0cf4 9244     		add r10, r10, r2
 1388 0cf6 A244     		add r10, r10, r4
 1389 0cf8 B244     		add r10, r10, r6
 1390 0cfa C244     		add r10, r10, r8
 1391 0cfc 9B44     		add r11, r11, r3
 1392 0cfe AB44     		add r11, r11, r5
 1393 0d00 BB44     		add r11, r11, r7
 1394 0d02 CB44     		add r11, r11, r9
 1395              	
 1396              		@0 (4 ge)
 1397 0d04 BDE8FC03 		pop {r2-r9}
 1398 0d08 BCE80300 		ldmia r12!, {r0-r1}
 1399 0d0c 8646     		mov lr, r0
 1400 0d0e 5FEA1E4E 		lsrs lr, lr, # 16
 1401 0d12 0004     		lsls r0, r0, # 16
 1402 0d14 000C     		lsrs r0, r0, # 16
 1403 0d16 02FB0EF2 		mul r2, r2, lr
 1404 0d1a 03FB0EF3 		mul r3, r3, lr
 1405 0d1e 04FB00F4 		mul r4, r4, r0
 1406 0d22 05FB00F5 		mul r5, r5, r0
 1407 0d26 8E46     		mov lr, r1
 1408 0d28 5FEA1E4E 		lsrs lr, lr, # 16
 1409 0d2c 0904     		lsls r1, r1, # 16
 1410 0d2e 090C     		lsrs r1, r1, # 16
 1411 0d30 06FB0EF6 		mul r6, r6, lr
 1412 0d34 07FB0EF7 		mul r7, r7, lr
 1413 0d38 08FB01F8 		mul r8, r8, r1
 1414 0d3c 09FB01F9 		mul r9, r9, r1
 1415 0d40 5213     		asrs r2, r2, # 13
 1416 0d42 5B13     		asrs r3, r3, # 13
 1417 0d44 6413     		asrs r4, r4, # 13
ARM GAS  1.s 			page 26


 1418 0d46 6D13     		asrs r5, r5, # 13
 1419 0d48 7613     		asrs r6, r6, # 13
 1420 0d4a 7F13     		asrs r7, r7, # 13
 1421 0d4c 5FEA6838 		asrs r8, r8, # 13
 1422 0d50 5FEA6939 		asrs r9, r9, # 13
 1423 0d54 9244     		add r10, r10, r2
 1424 0d56 A244     		add r10, r10, r4
 1425 0d58 B244     		add r10, r10, r6
 1426 0d5a C244     		add r10, r10, r8
 1427 0d5c 9B44     		add r11, r11, r3
 1428 0d5e AB44     		add r11, r11, r5
 1429 0d60 BB44     		add r11, r11, r7
 1430 0d62 CB44     		add r11, r11, r9
 1431              		@1
 1432 0d64 BDE8FC03 		pop {r2-r9}
 1433 0d68 BCE80300 		ldmia r12!, {r0-r1}
 1434 0d6c 8646     		mov lr, r0
 1435 0d6e 5FEA1E4E 		lsrs lr, lr, # 16
 1436 0d72 0004     		lsls r0, r0, # 16
 1437 0d74 000C     		lsrs r0, r0, # 16
 1438 0d76 02FB0EF2 		mul r2, r2, lr
 1439 0d7a 03FB0EF3 		mul r3, r3, lr
 1440 0d7e 04FB00F4 		mul r4, r4, r0
 1441 0d82 05FB00F5 		mul r5, r5, r0
 1442 0d86 8E46     		mov lr, r1
 1443 0d88 5FEA1E4E 		lsrs lr, lr, # 16
 1444 0d8c 0904     		lsls r1, r1, # 16
 1445 0d8e 090C     		lsrs r1, r1, # 16
 1446 0d90 06FB0EF6 		mul r6, r6, lr
 1447 0d94 07FB0EF7 		mul r7, r7, lr
 1448 0d98 08FB01F8 		mul r8, r8, r1
 1449 0d9c 09FB01F9 		mul r9, r9, r1
 1450 0da0 5213     		asrs r2, r2, # 13
 1451 0da2 5B13     		asrs r3, r3, # 13
 1452 0da4 6413     		asrs r4, r4, # 13
 1453 0da6 6D13     		asrs r5, r5, # 13
 1454 0da8 7613     		asrs r6, r6, # 13
 1455 0daa 7F13     		asrs r7, r7, # 13
 1456 0dac 5FEA6838 		asrs r8, r8, # 13
 1457 0db0 5FEA6939 		asrs r9, r9, # 13
 1458 0db4 9244     		add r10, r10, r2
 1459 0db6 A244     		add r10, r10, r4
 1460 0db8 B244     		add r10, r10, r6
 1461 0dba C244     		add r10, r10, r8
 1462 0dbc 9B44     		add r11, r11, r3
 1463 0dbe AB44     		add r11, r11, r5
 1464 0dc0 BB44     		add r11, r11, r7
 1465 0dc2 CB44     		add r11, r11, r9
 1466              		@2
 1467 0dc4 BDE8FC03 		pop {r2-r9}
 1468 0dc8 BCE80300 		ldmia r12!, {r0-r1}
 1469 0dcc 8646     		mov lr, r0
 1470 0dce 5FEA1E4E 		lsrs lr, lr, # 16
 1471 0dd2 0004     		lsls r0, r0, # 16
 1472 0dd4 000C     		lsrs r0, r0, # 16
 1473 0dd6 02FB0EF2 		mul r2, r2, lr
 1474 0dda 03FB0EF3 		mul r3, r3, lr
ARM GAS  1.s 			page 27


 1475 0dde 04FB00F4 		mul r4, r4, r0
 1476 0de2 05FB00F5 		mul r5, r5, r0
 1477 0de6 8E46     		mov lr, r1
 1478 0de8 5FEA1E4E 		lsrs lr, lr, # 16
 1479 0dec 0904     		lsls r1, r1, # 16
 1480 0dee 090C     		lsrs r1, r1, # 16
 1481 0df0 06FB0EF6 		mul r6, r6, lr
 1482 0df4 07FB0EF7 		mul r7, r7, lr
 1483 0df8 08FB01F8 		mul r8, r8, r1
 1484 0dfc 09FB01F9 		mul r9, r9, r1
 1485 0e00 5213     		asrs r2, r2, # 13
 1486 0e02 5B13     		asrs r3, r3, # 13
 1487 0e04 6413     		asrs r4, r4, # 13
 1488 0e06 6D13     		asrs r5, r5, # 13
 1489 0e08 7613     		asrs r6, r6, # 13
 1490 0e0a 7F13     		asrs r7, r7, # 13
 1491 0e0c 5FEA6838 		asrs r8, r8, # 13
 1492 0e10 5FEA6939 		asrs r9, r9, # 13
 1493 0e14 9244     		add r10, r10, r2
 1494 0e16 A244     		add r10, r10, r4
 1495 0e18 B244     		add r10, r10, r6
 1496 0e1a C244     		add r10, r10, r8
 1497 0e1c 9B44     		add r11, r11, r3
 1498 0e1e AB44     		add r11, r11, r5
 1499 0e20 BB44     		add r11, r11, r7
 1500 0e22 CB44     		add r11, r11, r9
 1501              		@3
 1502 0e24 BDE8FC03 		pop {r2-r9}
 1503 0e28 BCE80300 		ldmia r12!, {r0-r1}
 1504 0e2c 8646     		mov lr, r0
 1505 0e2e 5FEA1E4E 		lsrs lr, lr, # 16
 1506 0e32 0004     		lsls r0, r0, # 16
 1507 0e34 000C     		lsrs r0, r0, # 16
 1508 0e36 02FB0EF2 		mul r2, r2, lr
 1509 0e3a 03FB0EF3 		mul r3, r3, lr
 1510 0e3e 04FB00F4 		mul r4, r4, r0
 1511 0e42 05FB00F5 		mul r5, r5, r0
 1512 0e46 8E46     		mov lr, r1
 1513 0e48 5FEA1E4E 		lsrs lr, lr, # 16
 1514 0e4c 0904     		lsls r1, r1, # 16
 1515 0e4e 090C     		lsrs r1, r1, # 16
 1516 0e50 06FB0EF6 		mul r6, r6, lr
 1517 0e54 07FB0EF7 		mul r7, r7, lr
 1518 0e58 08FB01F8 		mul r8, r8, r1
 1519 0e5c 09FB01F9 		mul r9, r9, r1
 1520 0e60 5213     		asrs r2, r2, # 13
 1521 0e62 5B13     		asrs r3, r3, # 13
 1522 0e64 6413     		asrs r4, r4, # 13
 1523 0e66 6D13     		asrs r5, r5, # 13
 1524 0e68 7613     		asrs r6, r6, # 13
 1525 0e6a 7F13     		asrs r7, r7, # 13
 1526 0e6c 5FEA6838 		asrs r8, r8, # 13
 1527 0e70 5FEA6939 		asrs r9, r9, # 13
 1528 0e74 9244     		add r10, r10, r2
 1529 0e76 A244     		add r10, r10, r4
 1530 0e78 B244     		add r10, r10, r6
 1531 0e7a C244     		add r10, r10, r8
ARM GAS  1.s 			page 28


 1532 0e7c 9B44     		add r11, r11, r3
 1533 0e7e AB44     		add r11, r11, r5
 1534 0e80 BB44     		add r11, r11, r7
 1535 0e82 CB44     		add r11, r11, r9
 1536              		@4
 1537 0e84 BDE8FC03 		pop {r2-r9}
 1538 0e88 BCE80300 		ldmia r12!, {r0-r1}
 1539 0e8c 8646     		mov lr, r0
 1540 0e8e 5FEA1E4E 		lsrs lr, lr, # 16
 1541 0e92 0004     		lsls r0, r0, # 16
 1542 0e94 000C     		lsrs r0, r0, # 16
 1543 0e96 02FB0EF2 		mul r2, r2, lr
 1544 0e9a 03FB0EF3 		mul r3, r3, lr
 1545 0e9e 04FB00F4 		mul r4, r4, r0
 1546 0ea2 05FB00F5 		mul r5, r5, r0
 1547 0ea6 8E46     		mov lr, r1
 1548 0ea8 5FEA1E4E 		lsrs lr, lr, # 16
 1549 0eac 0904     		lsls r1, r1, # 16
 1550 0eae 090C     		lsrs r1, r1, # 16
 1551 0eb0 06FB0EF6 		mul r6, r6, lr
 1552 0eb4 07FB0EF7 		mul r7, r7, lr
 1553 0eb8 08FB01F8 		mul r8, r8, r1
 1554 0ebc 09FB01F9 		mul r9, r9, r1
 1555 0ec0 5213     		asrs r2, r2, # 13
 1556 0ec2 5B13     		asrs r3, r3, # 13
 1557 0ec4 6413     		asrs r4, r4, # 13
 1558 0ec6 6D13     		asrs r5, r5, # 13
 1559 0ec8 7613     		asrs r6, r6, # 13
 1560 0eca 7F13     		asrs r7, r7, # 13
 1561 0ecc 5FEA6838 		asrs r8, r8, # 13
 1562 0ed0 5FEA6939 		asrs r9, r9, # 13
 1563 0ed4 9244     		add r10, r10, r2
 1564 0ed6 A244     		add r10, r10, r4
 1565 0ed8 B244     		add r10, r10, r6
 1566 0eda C244     		add r10, r10, r8
 1567 0edc 9B44     		add r11, r11, r3
 1568 0ede AB44     		add r11, r11, r5
 1569 0ee0 BB44     		add r11, r11, r7
 1570 0ee2 CB44     		add r11, r11, r9
 1571              		@5
 1572 0ee4 BDE8FC03 		pop {r2-r9}
 1573 0ee8 BCE80300 		ldmia r12!, {r0-r1}
 1574 0eec 8646     		mov lr, r0
 1575 0eee 5FEA1E4E 		lsrs lr, lr, # 16
 1576 0ef2 0004     		lsls r0, r0, # 16
 1577 0ef4 000C     		lsrs r0, r0, # 16
 1578 0ef6 02FB0EF2 		mul r2, r2, lr
 1579 0efa 03FB0EF3 		mul r3, r3, lr
 1580 0efe 04FB00F4 		mul r4, r4, r0
 1581 0f02 05FB00F5 		mul r5, r5, r0
 1582 0f06 8E46     		mov lr, r1
 1583 0f08 5FEA1E4E 		lsrs lr, lr, # 16
 1584 0f0c 0904     		lsls r1, r1, # 16
 1585 0f0e 090C     		lsrs r1, r1, # 16
 1586 0f10 06FB0EF6 		mul r6, r6, lr
 1587 0f14 07FB0EF7 		mul r7, r7, lr
 1588 0f18 08FB01F8 		mul r8, r8, r1
ARM GAS  1.s 			page 29


 1589 0f1c 09FB01F9 		mul r9, r9, r1
 1590 0f20 5213     		asrs r2, r2, # 13
 1591 0f22 5B13     		asrs r3, r3, # 13
 1592 0f24 6413     		asrs r4, r4, # 13
 1593 0f26 6D13     		asrs r5, r5, # 13
 1594 0f28 7613     		asrs r6, r6, # 13
 1595 0f2a 7F13     		asrs r7, r7, # 13
 1596 0f2c 5FEA6838 		asrs r8, r8, # 13
 1597 0f30 5FEA6939 		asrs r9, r9, # 13
 1598 0f34 9244     		add r10, r10, r2
 1599 0f36 A244     		add r10, r10, r4
 1600 0f38 B244     		add r10, r10, r6
 1601 0f3a C244     		add r10, r10, r8
 1602 0f3c 9B44     		add r11, r11, r3
 1603 0f3e AB44     		add r11, r11, r5
 1604 0f40 BB44     		add r11, r11, r7
 1605 0f42 CB44     		add r11, r11, r9
 1606              		@6
 1607 0f44 BDE8FC03 		pop {r2-r9}
 1608 0f48 BCE80300 		ldmia r12!, {r0-r1}
 1609 0f4c 8646     		mov lr, r0
 1610 0f4e 5FEA1E4E 		lsrs lr, lr, # 16
 1611 0f52 0004     		lsls r0, r0, # 16
 1612 0f54 000C     		lsrs r0, r0, # 16
 1613 0f56 02FB0EF2 		mul r2, r2, lr
 1614 0f5a 03FB0EF3 		mul r3, r3, lr
 1615 0f5e 04FB00F4 		mul r4, r4, r0
 1616 0f62 05FB00F5 		mul r5, r5, r0
 1617 0f66 8E46     		mov lr, r1
 1618 0f68 5FEA1E4E 		lsrs lr, lr, # 16
 1619 0f6c 0904     		lsls r1, r1, # 16
 1620 0f6e 090C     		lsrs r1, r1, # 16
 1621 0f70 06FB0EF6 		mul r6, r6, lr
 1622 0f74 07FB0EF7 		mul r7, r7, lr
 1623 0f78 08FB01F8 		mul r8, r8, r1
 1624 0f7c 09FB01F9 		mul r9, r9, r1
 1625 0f80 5213     		asrs r2, r2, # 13
 1626 0f82 5B13     		asrs r3, r3, # 13
 1627 0f84 6413     		asrs r4, r4, # 13
 1628 0f86 6D13     		asrs r5, r5, # 13
 1629 0f88 7613     		asrs r6, r6, # 13
 1630 0f8a 7F13     		asrs r7, r7, # 13
 1631 0f8c 5FEA6838 		asrs r8, r8, # 13
 1632 0f90 5FEA6939 		asrs r9, r9, # 13
 1633 0f94 9244     		add r10, r10, r2
 1634 0f96 A244     		add r10, r10, r4
 1635 0f98 B244     		add r10, r10, r6
 1636 0f9a C244     		add r10, r10, r8
 1637 0f9c 9B44     		add r11, r11, r3
 1638 0f9e AB44     		add r11, r11, r5
 1639 0fa0 BB44     		add r11, r11, r7
 1640 0fa2 CB44     		add r11, r11, r9
 1641              		@7
 1642 0fa4 BDE8FC03 		pop {r2-r9}
 1643 0fa8 BCE80300 		ldmia r12!, {r0-r1}
 1644 0fac 8646     		mov lr, r0
 1645 0fae 5FEA1E4E 		lsrs lr, lr, # 16
ARM GAS  1.s 			page 30


 1646 0fb2 0004     		lsls r0, r0, # 16
 1647 0fb4 000C     		lsrs r0, r0, # 16
 1648 0fb6 02FB0EF2 		mul r2, r2, lr
 1649 0fba 03FB0EF3 		mul r3, r3, lr
 1650 0fbe 04FB00F4 		mul r4, r4, r0
 1651 0fc2 05FB00F5 		mul r5, r5, r0
 1652 0fc6 8E46     		mov lr, r1
 1653 0fc8 5FEA1E4E 		lsrs lr, lr, # 16
 1654 0fcc 0904     		lsls r1, r1, # 16
 1655 0fce 090C     		lsrs r1, r1, # 16
 1656 0fd0 06FB0EF6 		mul r6, r6, lr
 1657 0fd4 07FB0EF7 		mul r7, r7, lr
 1658 0fd8 08FB01F8 		mul r8, r8, r1
 1659 0fdc 09FB01F9 		mul r9, r9, r1
 1660 0fe0 5213     		asrs r2, r2, # 13
 1661 0fe2 5B13     		asrs r3, r3, # 13
 1662 0fe4 6413     		asrs r4, r4, # 13
 1663 0fe6 6D13     		asrs r5, r5, # 13
 1664 0fe8 7613     		asrs r6, r6, # 13
 1665 0fea 7F13     		asrs r7, r7, # 13
 1666 0fec 5FEA6838 		asrs r8, r8, # 13
 1667 0ff0 5FEA6939 		asrs r9, r9, # 13
 1668 0ff4 9244     		add r10, r10, r2
 1669 0ff6 A244     		add r10, r10, r4
 1670 0ff8 B244     		add r10, r10, r6
 1671 0ffa C244     		add r10, r10, r8
 1672 0ffc 9B44     		add r11, r11, r3
 1673 0ffe AB44     		add r11, r11, r5
 1674 1000 BB44     		add r11, r11, r7
 1675 1002 CB44     		add r11, r11, r9
 1676              		@8
 1677 1004 BDE8FC03 		pop {r2-r9}
 1678 1008 BCE80300 		ldmia r12!, {r0-r1}
 1679 100c 8646     		mov lr, r0
 1680 100e 5FEA1E4E 		lsrs lr, lr, # 16
 1681 1012 0004     		lsls r0, r0, # 16
 1682 1014 000C     		lsrs r0, r0, # 16
 1683 1016 02FB0EF2 		mul r2, r2, lr
 1684 101a 03FB0EF3 		mul r3, r3, lr
 1685 101e 04FB00F4 		mul r4, r4, r0
 1686 1022 05FB00F5 		mul r5, r5, r0
 1687 1026 8E46     		mov lr, r1
 1688 1028 5FEA1E4E 		lsrs lr, lr, # 16
 1689 102c 0904     		lsls r1, r1, # 16
 1690 102e 090C     		lsrs r1, r1, # 16
 1691 1030 06FB0EF6 		mul r6, r6, lr
 1692 1034 07FB0EF7 		mul r7, r7, lr
 1693 1038 08FB01F8 		mul r8, r8, r1
 1694 103c 09FB01F9 		mul r9, r9, r1
 1695 1040 5213     		asrs r2, r2, # 13
 1696 1042 5B13     		asrs r3, r3, # 13
 1697 1044 6413     		asrs r4, r4, # 13
 1698 1046 6D13     		asrs r5, r5, # 13
 1699 1048 7613     		asrs r6, r6, # 13
 1700 104a 7F13     		asrs r7, r7, # 13
 1701 104c 5FEA6838 		asrs r8, r8, # 13
 1702 1050 5FEA6939 		asrs r9, r9, # 13
ARM GAS  1.s 			page 31


 1703 1054 9244     		add r10, r10, r2
 1704 1056 A244     		add r10, r10, r4
 1705 1058 B244     		add r10, r10, r6
 1706 105a C244     		add r10, r10, r8
 1707 105c 9B44     		add r11, r11, r3
 1708 105e AB44     		add r11, r11, r5
 1709 1060 BB44     		add r11, r11, r7
 1710 1062 CB44     		add r11, r11, r9
 1711              		@9
 1712 1064 BDE8FC03 		pop {r2-r9}
 1713 1068 BCE80300 		ldmia r12!, {r0-r1}
 1714 106c 8646     		mov lr, r0
 1715 106e 5FEA1E4E 		lsrs lr, lr, # 16
 1716 1072 0004     		lsls r0, r0, # 16
 1717 1074 000C     		lsrs r0, r0, # 16
 1718 1076 02FB0EF2 		mul r2, r2, lr
 1719 107a 03FB0EF3 		mul r3, r3, lr
 1720 107e 04FB00F4 		mul r4, r4, r0
 1721 1082 05FB00F5 		mul r5, r5, r0
 1722 1086 8E46     		mov lr, r1
 1723 1088 5FEA1E4E 		lsrs lr, lr, # 16
 1724 108c 0904     		lsls r1, r1, # 16
 1725 108e 090C     		lsrs r1, r1, # 16
 1726 1090 06FB0EF6 		mul r6, r6, lr
 1727 1094 07FB0EF7 		mul r7, r7, lr
 1728 1098 08FB01F8 		mul r8, r8, r1
 1729 109c 09FB01F9 		mul r9, r9, r1
 1730 10a0 5213     		asrs r2, r2, # 13
 1731 10a2 5B13     		asrs r3, r3, # 13
 1732 10a4 6413     		asrs r4, r4, # 13
 1733 10a6 6D13     		asrs r5, r5, # 13
 1734 10a8 7613     		asrs r6, r6, # 13
 1735 10aa 7F13     		asrs r7, r7, # 13
 1736 10ac 5FEA6838 		asrs r8, r8, # 13
 1737 10b0 5FEA6939 		asrs r9, r9, # 13
 1738 10b4 9244     		add r10, r10, r2
 1739 10b6 A244     		add r10, r10, r4
 1740 10b8 B244     		add r10, r10, r6
 1741 10ba C244     		add r10, r10, r8
 1742 10bc 9B44     		add r11, r11, r3
 1743 10be AB44     		add r11, r11, r5
 1744 10c0 BB44     		add r11, r11, r7
 1745 10c2 CB44     		add r11, r11, r9
 1746              	
 1747              	
 1748              		@0 (4 ge)
 1749 10c4 BDE8FC03 		pop {r2-r9}
 1750 10c8 BCE80300 		ldmia r12!, {r0-r1}
 1751 10cc 8646     		mov lr, r0
 1752 10ce 5FEA1E4E 		lsrs lr, lr, # 16
 1753 10d2 0004     		lsls r0, r0, # 16
 1754 10d4 000C     		lsrs r0, r0, # 16
 1755 10d6 02FB0EF2 		mul r2, r2, lr
 1756 10da 03FB0EF3 		mul r3, r3, lr
 1757 10de 04FB00F4 		mul r4, r4, r0
 1758 10e2 05FB00F5 		mul r5, r5, r0
 1759 10e6 8E46     		mov lr, r1
ARM GAS  1.s 			page 32


 1760 10e8 5FEA1E4E 		lsrs lr, lr, # 16
 1761 10ec 0904     		lsls r1, r1, # 16
 1762 10ee 090C     		lsrs r1, r1, # 16
 1763 10f0 06FB0EF6 		mul r6, r6, lr
 1764 10f4 07FB0EF7 		mul r7, r7, lr
 1765 10f8 08FB01F8 		mul r8, r8, r1
 1766 10fc 09FB01F9 		mul r9, r9, r1
 1767 1100 5213     		asrs r2, r2, # 13
 1768 1102 5B13     		asrs r3, r3, # 13
 1769 1104 6413     		asrs r4, r4, # 13
 1770 1106 6D13     		asrs r5, r5, # 13
 1771 1108 7613     		asrs r6, r6, # 13
 1772 110a 7F13     		asrs r7, r7, # 13
 1773 110c 5FEA6838 		asrs r8, r8, # 13
 1774 1110 5FEA6939 		asrs r9, r9, # 13
 1775 1114 9244     		add r10, r10, r2
 1776 1116 A244     		add r10, r10, r4
 1777 1118 B244     		add r10, r10, r6
 1778 111a C244     		add r10, r10, r8
 1779 111c 9B44     		add r11, r11, r3
 1780 111e AB44     		add r11, r11, r5
 1781 1120 BB44     		add r11, r11, r7
 1782 1122 CB44     		add r11, r11, r9
 1783              		@1
 1784 1124 BDE8FC03 		pop {r2-r9}
 1785 1128 BCE80300 		ldmia r12!, {r0-r1}
 1786 112c 8646     		mov lr, r0
 1787 112e 5FEA1E4E 		lsrs lr, lr, # 16
 1788 1132 0004     		lsls r0, r0, # 16
 1789 1134 000C     		lsrs r0, r0, # 16
 1790 1136 02FB0EF2 		mul r2, r2, lr
 1791 113a 03FB0EF3 		mul r3, r3, lr
 1792 113e 04FB00F4 		mul r4, r4, r0
 1793 1142 05FB00F5 		mul r5, r5, r0
 1794 1146 8E46     		mov lr, r1
 1795 1148 5FEA1E4E 		lsrs lr, lr, # 16
 1796 114c 0904     		lsls r1, r1, # 16
 1797 114e 090C     		lsrs r1, r1, # 16
 1798 1150 06FB0EF6 		mul r6, r6, lr
 1799 1154 07FB0EF7 		mul r7, r7, lr
 1800 1158 08FB01F8 		mul r8, r8, r1
 1801 115c 09FB01F9 		mul r9, r9, r1
 1802 1160 5213     		asrs r2, r2, # 13
 1803 1162 5B13     		asrs r3, r3, # 13
 1804 1164 6413     		asrs r4, r4, # 13
 1805 1166 6D13     		asrs r5, r5, # 13
 1806 1168 7613     		asrs r6, r6, # 13
 1807 116a 7F13     		asrs r7, r7, # 13
 1808 116c 5FEA6838 		asrs r8, r8, # 13
 1809 1170 5FEA6939 		asrs r9, r9, # 13
 1810 1174 9244     		add r10, r10, r2
 1811 1176 A244     		add r10, r10, r4
 1812 1178 B244     		add r10, r10, r6
 1813 117a C244     		add r10, r10, r8
 1814 117c 9B44     		add r11, r11, r3
 1815 117e AB44     		add r11, r11, r5
 1816 1180 BB44     		add r11, r11, r7
ARM GAS  1.s 			page 33


 1817 1182 CB44     		add r11, r11, r9
 1818              		@2
 1819 1184 BDE8FC03 		pop {r2-r9}
 1820 1188 BCE80300 		ldmia r12!, {r0-r1}
 1821 118c 8646     		mov lr, r0
 1822 118e 5FEA1E4E 		lsrs lr, lr, # 16
 1823 1192 0004     		lsls r0, r0, # 16
 1824 1194 000C     		lsrs r0, r0, # 16
 1825 1196 02FB0EF2 		mul r2, r2, lr
 1826 119a 03FB0EF3 		mul r3, r3, lr
 1827 119e 04FB00F4 		mul r4, r4, r0
 1828 11a2 05FB00F5 		mul r5, r5, r0
 1829 11a6 8E46     		mov lr, r1
 1830 11a8 5FEA1E4E 		lsrs lr, lr, # 16
 1831 11ac 0904     		lsls r1, r1, # 16
 1832 11ae 090C     		lsrs r1, r1, # 16
 1833 11b0 06FB0EF6 		mul r6, r6, lr
 1834 11b4 07FB0EF7 		mul r7, r7, lr
 1835 11b8 08FB01F8 		mul r8, r8, r1
 1836 11bc 09FB01F9 		mul r9, r9, r1
 1837 11c0 5213     		asrs r2, r2, # 13
 1838 11c2 5B13     		asrs r3, r3, # 13
 1839 11c4 6413     		asrs r4, r4, # 13
 1840 11c6 6D13     		asrs r5, r5, # 13
 1841 11c8 7613     		asrs r6, r6, # 13
 1842 11ca 7F13     		asrs r7, r7, # 13
 1843 11cc 5FEA6838 		asrs r8, r8, # 13
 1844 11d0 5FEA6939 		asrs r9, r9, # 13
 1845 11d4 9244     		add r10, r10, r2
 1846 11d6 A244     		add r10, r10, r4
 1847 11d8 B244     		add r10, r10, r6
 1848 11da C244     		add r10, r10, r8
 1849 11dc 9B44     		add r11, r11, r3
 1850 11de AB44     		add r11, r11, r5
 1851 11e0 BB44     		add r11, r11, r7
 1852 11e2 CB44     		add r11, r11, r9
 1853              		@3
 1854 11e4 BDE8FC03 		pop {r2-r9}
 1855 11e8 BCE80300 		ldmia r12!, {r0-r1}
 1856 11ec 8646     		mov lr, r0
 1857 11ee 5FEA1E4E 		lsrs lr, lr, # 16
 1858 11f2 0004     		lsls r0, r0, # 16
 1859 11f4 000C     		lsrs r0, r0, # 16
 1860 11f6 02FB0EF2 		mul r2, r2, lr
 1861 11fa 03FB0EF3 		mul r3, r3, lr
 1862 11fe 04FB00F4 		mul r4, r4, r0
 1863 1202 05FB00F5 		mul r5, r5, r0
 1864 1206 8E46     		mov lr, r1
 1865 1208 5FEA1E4E 		lsrs lr, lr, # 16
 1866 120c 0904     		lsls r1, r1, # 16
 1867 120e 090C     		lsrs r1, r1, # 16
 1868 1210 06FB0EF6 		mul r6, r6, lr
 1869 1214 07FB0EF7 		mul r7, r7, lr
 1870 1218 08FB01F8 		mul r8, r8, r1
 1871 121c 09FB01F9 		mul r9, r9, r1
 1872 1220 5213     		asrs r2, r2, # 13
 1873 1222 5B13     		asrs r3, r3, # 13
ARM GAS  1.s 			page 34


 1874 1224 6413     		asrs r4, r4, # 13
 1875 1226 6D13     		asrs r5, r5, # 13
 1876 1228 7613     		asrs r6, r6, # 13
 1877 122a 7F13     		asrs r7, r7, # 13
 1878 122c 5FEA6838 		asrs r8, r8, # 13
 1879 1230 5FEA6939 		asrs r9, r9, # 13
 1880 1234 9244     		add r10, r10, r2
 1881 1236 A244     		add r10, r10, r4
 1882 1238 B244     		add r10, r10, r6
 1883 123a C244     		add r10, r10, r8
 1884 123c 9B44     		add r11, r11, r3
 1885 123e AB44     		add r11, r11, r5
 1886 1240 BB44     		add r11, r11, r7
 1887 1242 CB44     		add r11, r11, r9
 1888              		@4
 1889 1244 BDE8FC03 		pop {r2-r9}
 1890 1248 BCE80300 		ldmia r12!, {r0-r1}
 1891 124c 8646     		mov lr, r0
 1892 124e 5FEA1E4E 		lsrs lr, lr, # 16
 1893 1252 0004     		lsls r0, r0, # 16
 1894 1254 000C     		lsrs r0, r0, # 16
 1895 1256 02FB0EF2 		mul r2, r2, lr
 1896 125a 03FB0EF3 		mul r3, r3, lr
 1897 125e 04FB00F4 		mul r4, r4, r0
 1898 1262 05FB00F5 		mul r5, r5, r0
 1899 1266 8E46     		mov lr, r1
 1900 1268 5FEA1E4E 		lsrs lr, lr, # 16
 1901 126c 0904     		lsls r1, r1, # 16
 1902 126e 090C     		lsrs r1, r1, # 16
 1903 1270 06FB0EF6 		mul r6, r6, lr
 1904 1274 07FB0EF7 		mul r7, r7, lr
 1905 1278 08FB01F8 		mul r8, r8, r1
 1906 127c 09FB01F9 		mul r9, r9, r1
 1907 1280 5213     		asrs r2, r2, # 13
 1908 1282 5B13     		asrs r3, r3, # 13
 1909 1284 6413     		asrs r4, r4, # 13
 1910 1286 6D13     		asrs r5, r5, # 13
 1911 1288 7613     		asrs r6, r6, # 13
 1912 128a 7F13     		asrs r7, r7, # 13
 1913 128c 5FEA6838 		asrs r8, r8, # 13
 1914 1290 5FEA6939 		asrs r9, r9, # 13
 1915 1294 9244     		add r10, r10, r2
 1916 1296 A244     		add r10, r10, r4
 1917 1298 B244     		add r10, r10, r6
 1918 129a C244     		add r10, r10, r8
 1919 129c 9B44     		add r11, r11, r3
 1920 129e AB44     		add r11, r11, r5
 1921 12a0 BB44     		add r11, r11, r7
 1922 12a2 CB44     		add r11, r11, r9
 1923              		@5
 1924 12a4 BDE8FC03 		pop {r2-r9}
 1925 12a8 BCE80300 		ldmia r12!, {r0-r1}
 1926 12ac 8646     		mov lr, r0
 1927 12ae 5FEA1E4E 		lsrs lr, lr, # 16
 1928 12b2 0004     		lsls r0, r0, # 16
 1929 12b4 000C     		lsrs r0, r0, # 16
 1930 12b6 02FB0EF2 		mul r2, r2, lr
ARM GAS  1.s 			page 35


 1931 12ba 03FB0EF3 		mul r3, r3, lr
 1932 12be 04FB00F4 		mul r4, r4, r0
 1933 12c2 05FB00F5 		mul r5, r5, r0
 1934 12c6 8E46     		mov lr, r1
 1935 12c8 5FEA1E4E 		lsrs lr, lr, # 16
 1936 12cc 0904     		lsls r1, r1, # 16
 1937 12ce 090C     		lsrs r1, r1, # 16
 1938 12d0 06FB0EF6 		mul r6, r6, lr
 1939 12d4 07FB0EF7 		mul r7, r7, lr
 1940 12d8 08FB01F8 		mul r8, r8, r1
 1941 12dc 09FB01F9 		mul r9, r9, r1
 1942 12e0 5213     		asrs r2, r2, # 13
 1943 12e2 5B13     		asrs r3, r3, # 13
 1944 12e4 6413     		asrs r4, r4, # 13
 1945 12e6 6D13     		asrs r5, r5, # 13
 1946 12e8 7613     		asrs r6, r6, # 13
 1947 12ea 7F13     		asrs r7, r7, # 13
 1948 12ec 5FEA6838 		asrs r8, r8, # 13
 1949 12f0 5FEA6939 		asrs r9, r9, # 13
 1950 12f4 9244     		add r10, r10, r2
 1951 12f6 A244     		add r10, r10, r4
 1952 12f8 B244     		add r10, r10, r6
 1953 12fa C244     		add r10, r10, r8
 1954 12fc 9B44     		add r11, r11, r3
 1955 12fe AB44     		add r11, r11, r5
 1956 1300 BB44     		add r11, r11, r7
 1957 1302 CB44     		add r11, r11, r9
 1958              		@6
 1959 1304 BDE8FC03 		pop {r2-r9}
 1960 1308 BCE80300 		ldmia r12!, {r0-r1}
 1961 130c 8646     		mov lr, r0
 1962 130e 5FEA1E4E 		lsrs lr, lr, # 16
 1963 1312 0004     		lsls r0, r0, # 16
 1964 1314 000C     		lsrs r0, r0, # 16
 1965 1316 02FB0EF2 		mul r2, r2, lr
 1966 131a 03FB0EF3 		mul r3, r3, lr
 1967 131e 04FB00F4 		mul r4, r4, r0
 1968 1322 05FB00F5 		mul r5, r5, r0
 1969 1326 8E46     		mov lr, r1
 1970 1328 5FEA1E4E 		lsrs lr, lr, # 16
 1971 132c 0904     		lsls r1, r1, # 16
 1972 132e 090C     		lsrs r1, r1, # 16
 1973 1330 06FB0EF6 		mul r6, r6, lr
 1974 1334 07FB0EF7 		mul r7, r7, lr
 1975 1338 08FB01F8 		mul r8, r8, r1
 1976 133c 09FB01F9 		mul r9, r9, r1
 1977 1340 5213     		asrs r2, r2, # 13
 1978 1342 5B13     		asrs r3, r3, # 13
 1979 1344 6413     		asrs r4, r4, # 13
 1980 1346 6D13     		asrs r5, r5, # 13
 1981 1348 7613     		asrs r6, r6, # 13
 1982 134a 7F13     		asrs r7, r7, # 13
 1983 134c 5FEA6838 		asrs r8, r8, # 13
 1984 1350 5FEA6939 		asrs r9, r9, # 13
 1985 1354 9244     		add r10, r10, r2
 1986 1356 A244     		add r10, r10, r4
 1987 1358 B244     		add r10, r10, r6
ARM GAS  1.s 			page 36


 1988 135a C244     		add r10, r10, r8
 1989 135c 9B44     		add r11, r11, r3
 1990 135e AB44     		add r11, r11, r5
 1991 1360 BB44     		add r11, r11, r7
 1992 1362 CB44     		add r11, r11, r9
 1993              		@7
 1994 1364 BDE8FC03 		pop {r2-r9}
 1995 1368 BCE80300 		ldmia r12!, {r0-r1}
 1996 136c 8646     		mov lr, r0
 1997 136e 5FEA1E4E 		lsrs lr, lr, # 16
 1998 1372 0004     		lsls r0, r0, # 16
 1999 1374 000C     		lsrs r0, r0, # 16
 2000 1376 02FB0EF2 		mul r2, r2, lr
 2001 137a 03FB0EF3 		mul r3, r3, lr
 2002 137e 04FB00F4 		mul r4, r4, r0
 2003 1382 05FB00F5 		mul r5, r5, r0
 2004 1386 8E46     		mov lr, r1
 2005 1388 5FEA1E4E 		lsrs lr, lr, # 16
 2006 138c 0904     		lsls r1, r1, # 16
 2007 138e 090C     		lsrs r1, r1, # 16
 2008 1390 06FB0EF6 		mul r6, r6, lr
 2009 1394 07FB0EF7 		mul r7, r7, lr
 2010 1398 08FB01F8 		mul r8, r8, r1
 2011 139c 09FB01F9 		mul r9, r9, r1
 2012 13a0 5213     		asrs r2, r2, # 13
 2013 13a2 5B13     		asrs r3, r3, # 13
 2014 13a4 6413     		asrs r4, r4, # 13
 2015 13a6 6D13     		asrs r5, r5, # 13
 2016 13a8 7613     		asrs r6, r6, # 13
 2017 13aa 7F13     		asrs r7, r7, # 13
 2018 13ac 5FEA6838 		asrs r8, r8, # 13
 2019 13b0 5FEA6939 		asrs r9, r9, # 13
 2020 13b4 9244     		add r10, r10, r2
 2021 13b6 A244     		add r10, r10, r4
 2022 13b8 B244     		add r10, r10, r6
 2023 13ba C244     		add r10, r10, r8
 2024 13bc 9B44     		add r11, r11, r3
 2025 13be AB44     		add r11, r11, r5
 2026 13c0 BB44     		add r11, r11, r7
 2027 13c2 CB44     		add r11, r11, r9
 2028              		@8
 2029 13c4 BDE8FC03 		pop {r2-r9}
 2030 13c8 BCE80300 		ldmia r12!, {r0-r1}
 2031 13cc 8646     		mov lr, r0
 2032 13ce 5FEA1E4E 		lsrs lr, lr, # 16
 2033 13d2 0004     		lsls r0, r0, # 16
 2034 13d4 000C     		lsrs r0, r0, # 16
 2035 13d6 02FB0EF2 		mul r2, r2, lr
 2036 13da 03FB0EF3 		mul r3, r3, lr
 2037 13de 04FB00F4 		mul r4, r4, r0
 2038 13e2 05FB00F5 		mul r5, r5, r0
 2039 13e6 8E46     		mov lr, r1
 2040 13e8 5FEA1E4E 		lsrs lr, lr, # 16
 2041 13ec 0904     		lsls r1, r1, # 16
 2042 13ee 090C     		lsrs r1, r1, # 16
 2043 13f0 06FB0EF6 		mul r6, r6, lr
 2044 13f4 07FB0EF7 		mul r7, r7, lr
ARM GAS  1.s 			page 37


 2045 13f8 08FB01F8 		mul r8, r8, r1
 2046 13fc 09FB01F9 		mul r9, r9, r1
 2047 1400 5213     		asrs r2, r2, # 13
 2048 1402 5B13     		asrs r3, r3, # 13
 2049 1404 6413     		asrs r4, r4, # 13
 2050 1406 6D13     		asrs r5, r5, # 13
 2051 1408 7613     		asrs r6, r6, # 13
 2052 140a 7F13     		asrs r7, r7, # 13
 2053 140c 5FEA6838 		asrs r8, r8, # 13
 2054 1410 5FEA6939 		asrs r9, r9, # 13
 2055 1414 9244     		add r10, r10, r2
 2056 1416 A244     		add r10, r10, r4
 2057 1418 B244     		add r10, r10, r6
 2058 141a C244     		add r10, r10, r8
 2059 141c 9B44     		add r11, r11, r3
 2060 141e AB44     		add r11, r11, r5
 2061 1420 BB44     		add r11, r11, r7
 2062 1422 CB44     		add r11, r11, r9
 2063              		@9
 2064 1424 BDE8FC03 		pop {r2-r9}
 2065 1428 BCE80300 		ldmia r12!, {r0-r1}
 2066 142c 8646     		mov lr, r0
 2067 142e 5FEA1E4E 		lsrs lr, lr, # 16
 2068 1432 0004     		lsls r0, r0, # 16
 2069 1434 000C     		lsrs r0, r0, # 16
 2070 1436 02FB0EF2 		mul r2, r2, lr
 2071 143a 03FB0EF3 		mul r3, r3, lr
 2072 143e 04FB00F4 		mul r4, r4, r0
 2073 1442 05FB00F5 		mul r5, r5, r0
 2074 1446 8E46     		mov lr, r1
 2075 1448 5FEA1E4E 		lsrs lr, lr, # 16
 2076 144c 0904     		lsls r1, r1, # 16
 2077 144e 090C     		lsrs r1, r1, # 16
 2078 1450 06FB0EF6 		mul r6, r6, lr
 2079 1454 07FB0EF7 		mul r7, r7, lr
 2080 1458 08FB01F8 		mul r8, r8, r1
 2081 145c 09FB01F9 		mul r9, r9, r1
 2082 1460 5213     		asrs r2, r2, # 13
 2083 1462 5B13     		asrs r3, r3, # 13
 2084 1464 6413     		asrs r4, r4, # 13
 2085 1466 6D13     		asrs r5, r5, # 13
 2086 1468 7613     		asrs r6, r6, # 13
 2087 146a 7F13     		asrs r7, r7, # 13
 2088 146c 5FEA6838 		asrs r8, r8, # 13
 2089 1470 5FEA6939 		asrs r9, r9, # 13
 2090 1474 9244     		add r10, r10, r2
 2091 1476 A244     		add r10, r10, r4
 2092 1478 B244     		add r10, r10, r6
 2093 147a C244     		add r10, r10, r8
 2094 147c 9B44     		add r11, r11, r3
 2095 147e AB44     		add r11, r11, r5
 2096 1480 BB44     		add r11, r11, r7
 2097 1482 CB44     		add r11, r11, r9
 2098              	
 2099              	
 2100              		@0 (4 ge)
 2101 1484 BDE8FC03 		pop {r2-r9}
ARM GAS  1.s 			page 38


 2102 1488 BCE80300 		ldmia r12!, {r0-r1}
 2103 148c 8646     		mov lr, r0
 2104 148e 5FEA1E4E 		lsrs lr, lr, # 16
 2105 1492 0004     		lsls r0, r0, # 16
 2106 1494 000C     		lsrs r0, r0, # 16
 2107 1496 02FB0EF2 		mul r2, r2, lr
 2108 149a 03FB0EF3 		mul r3, r3, lr
 2109 149e 04FB00F4 		mul r4, r4, r0
 2110 14a2 05FB00F5 		mul r5, r5, r0
 2111 14a6 8E46     		mov lr, r1
 2112 14a8 5FEA1E4E 		lsrs lr, lr, # 16
 2113 14ac 0904     		lsls r1, r1, # 16
 2114 14ae 090C     		lsrs r1, r1, # 16
 2115 14b0 06FB0EF6 		mul r6, r6, lr
 2116 14b4 07FB0EF7 		mul r7, r7, lr
 2117 14b8 08FB01F8 		mul r8, r8, r1
 2118 14bc 09FB01F9 		mul r9, r9, r1
 2119 14c0 5213     		asrs r2, r2, # 13
 2120 14c2 5B13     		asrs r3, r3, # 13
 2121 14c4 6413     		asrs r4, r4, # 13
 2122 14c6 6D13     		asrs r5, r5, # 13
 2123 14c8 7613     		asrs r6, r6, # 13
 2124 14ca 7F13     		asrs r7, r7, # 13
 2125 14cc 5FEA6838 		asrs r8, r8, # 13
 2126 14d0 5FEA6939 		asrs r9, r9, # 13
 2127 14d4 9244     		add r10, r10, r2
 2128 14d6 A244     		add r10, r10, r4
 2129 14d8 B244     		add r10, r10, r6
 2130 14da C244     		add r10, r10, r8
 2131 14dc 9B44     		add r11, r11, r3
 2132 14de AB44     		add r11, r11, r5
 2133 14e0 BB44     		add r11, r11, r7
 2134 14e2 CB44     		add r11, r11, r9
 2135              		@1
 2136 14e4 BDE8FC03 		pop {r2-r9}
 2137 14e8 BCE80300 		ldmia r12!, {r0-r1}
 2138 14ec 8646     		mov lr, r0
 2139 14ee 5FEA1E4E 		lsrs lr, lr, # 16
 2140 14f2 0004     		lsls r0, r0, # 16
 2141 14f4 000C     		lsrs r0, r0, # 16
 2142 14f6 02FB0EF2 		mul r2, r2, lr
 2143 14fa 03FB0EF3 		mul r3, r3, lr
 2144 14fe 04FB00F4 		mul r4, r4, r0
 2145 1502 05FB00F5 		mul r5, r5, r0
 2146 1506 8E46     		mov lr, r1
 2147 1508 5FEA1E4E 		lsrs lr, lr, # 16
 2148 150c 0904     		lsls r1, r1, # 16
 2149 150e 090C     		lsrs r1, r1, # 16
 2150 1510 06FB0EF6 		mul r6, r6, lr
 2151 1514 07FB0EF7 		mul r7, r7, lr
 2152 1518 08FB01F8 		mul r8, r8, r1
 2153 151c 09FB01F9 		mul r9, r9, r1
 2154 1520 5213     		asrs r2, r2, # 13
 2155 1522 5B13     		asrs r3, r3, # 13
 2156 1524 6413     		asrs r4, r4, # 13
 2157 1526 6D13     		asrs r5, r5, # 13
 2158 1528 7613     		asrs r6, r6, # 13
ARM GAS  1.s 			page 39


 2159 152a 7F13     		asrs r7, r7, # 13
 2160 152c 5FEA6838 		asrs r8, r8, # 13
 2161 1530 5FEA6939 		asrs r9, r9, # 13
 2162 1534 9244     		add r10, r10, r2
 2163 1536 A244     		add r10, r10, r4
 2164 1538 B244     		add r10, r10, r6
 2165 153a C244     		add r10, r10, r8
 2166 153c 9B44     		add r11, r11, r3
 2167 153e AB44     		add r11, r11, r5
 2168 1540 BB44     		add r11, r11, r7
 2169 1542 CB44     		add r11, r11, r9
 2170              		@2
 2171 1544 BDE8FC03 		pop {r2-r9}
 2172 1548 BCE80300 		ldmia r12!, {r0-r1}
 2173 154c 8646     		mov lr, r0
 2174 154e 5FEA1E4E 		lsrs lr, lr, # 16
 2175 1552 0004     		lsls r0, r0, # 16
 2176 1554 000C     		lsrs r0, r0, # 16
 2177 1556 02FB0EF2 		mul r2, r2, lr
 2178 155a 03FB0EF3 		mul r3, r3, lr
 2179 155e 04FB00F4 		mul r4, r4, r0
 2180 1562 05FB00F5 		mul r5, r5, r0
 2181 1566 8E46     		mov lr, r1
 2182 1568 5FEA1E4E 		lsrs lr, lr, # 16
 2183 156c 0904     		lsls r1, r1, # 16
 2184 156e 090C     		lsrs r1, r1, # 16
 2185 1570 06FB0EF6 		mul r6, r6, lr
 2186 1574 07FB0EF7 		mul r7, r7, lr
 2187 1578 08FB01F8 		mul r8, r8, r1
 2188 157c 09FB01F9 		mul r9, r9, r1
 2189 1580 5213     		asrs r2, r2, # 13
 2190 1582 5B13     		asrs r3, r3, # 13
 2191 1584 6413     		asrs r4, r4, # 13
 2192 1586 6D13     		asrs r5, r5, # 13
 2193 1588 7613     		asrs r6, r6, # 13
 2194 158a 7F13     		asrs r7, r7, # 13
 2195 158c 5FEA6838 		asrs r8, r8, # 13
 2196 1590 5FEA6939 		asrs r9, r9, # 13
 2197 1594 9244     		add r10, r10, r2
 2198 1596 A244     		add r10, r10, r4
 2199 1598 B244     		add r10, r10, r6
 2200 159a C244     		add r10, r10, r8
 2201 159c 9B44     		add r11, r11, r3
 2202 159e AB44     		add r11, r11, r5
 2203 15a0 BB44     		add r11, r11, r7
 2204 15a2 CB44     		add r11, r11, r9
 2205              		@3
 2206 15a4 BDE8FC03 		pop {r2-r9}
 2207 15a8 BCE80300 		ldmia r12!, {r0-r1}
 2208 15ac 8646     		mov lr, r0
 2209 15ae 5FEA1E4E 		lsrs lr, lr, # 16
 2210 15b2 0004     		lsls r0, r0, # 16
 2211 15b4 000C     		lsrs r0, r0, # 16
 2212 15b6 02FB0EF2 		mul r2, r2, lr
 2213 15ba 03FB0EF3 		mul r3, r3, lr
 2214 15be 04FB00F4 		mul r4, r4, r0
 2215 15c2 05FB00F5 		mul r5, r5, r0
ARM GAS  1.s 			page 40


 2216 15c6 8E46     		mov lr, r1
 2217 15c8 5FEA1E4E 		lsrs lr, lr, # 16
 2218 15cc 0904     		lsls r1, r1, # 16
 2219 15ce 090C     		lsrs r1, r1, # 16
 2220 15d0 06FB0EF6 		mul r6, r6, lr
 2221 15d4 07FB0EF7 		mul r7, r7, lr
 2222 15d8 08FB01F8 		mul r8, r8, r1
 2223 15dc 09FB01F9 		mul r9, r9, r1
 2224 15e0 5213     		asrs r2, r2, # 13
 2225 15e2 5B13     		asrs r3, r3, # 13
 2226 15e4 6413     		asrs r4, r4, # 13
 2227 15e6 6D13     		asrs r5, r5, # 13
 2228 15e8 7613     		asrs r6, r6, # 13
 2229 15ea 7F13     		asrs r7, r7, # 13
 2230 15ec 5FEA6838 		asrs r8, r8, # 13
 2231 15f0 5FEA6939 		asrs r9, r9, # 13
 2232 15f4 9244     		add r10, r10, r2
 2233 15f6 A244     		add r10, r10, r4
 2234 15f8 B244     		add r10, r10, r6
 2235 15fa C244     		add r10, r10, r8
 2236 15fc 9B44     		add r11, r11, r3
 2237 15fe AB44     		add r11, r11, r5
 2238 1600 BB44     		add r11, r11, r7
 2239 1602 CB44     		add r11, r11, r9
 2240              		@4
 2241 1604 BDE8FC03 		pop {r2-r9}
 2242 1608 BCE80300 		ldmia r12!, {r0-r1}
 2243 160c 8646     		mov lr, r0
 2244 160e 5FEA1E4E 		lsrs lr, lr, # 16
 2245 1612 0004     		lsls r0, r0, # 16
 2246 1614 000C     		lsrs r0, r0, # 16
 2247 1616 02FB0EF2 		mul r2, r2, lr
 2248 161a 03FB0EF3 		mul r3, r3, lr
 2249 161e 04FB00F4 		mul r4, r4, r0
 2250 1622 05FB00F5 		mul r5, r5, r0
 2251 1626 8E46     		mov lr, r1
 2252 1628 5FEA1E4E 		lsrs lr, lr, # 16
 2253 162c 0904     		lsls r1, r1, # 16
 2254 162e 090C     		lsrs r1, r1, # 16
 2255 1630 06FB0EF6 		mul r6, r6, lr
 2256 1634 07FB0EF7 		mul r7, r7, lr
 2257 1638 08FB01F8 		mul r8, r8, r1
 2258 163c 09FB01F9 		mul r9, r9, r1
 2259 1640 5213     		asrs r2, r2, # 13
 2260 1642 5B13     		asrs r3, r3, # 13
 2261 1644 6413     		asrs r4, r4, # 13
 2262 1646 6D13     		asrs r5, r5, # 13
 2263 1648 7613     		asrs r6, r6, # 13
 2264 164a 7F13     		asrs r7, r7, # 13
 2265 164c 5FEA6838 		asrs r8, r8, # 13
 2266 1650 5FEA6939 		asrs r9, r9, # 13
 2267 1654 9244     		add r10, r10, r2
 2268 1656 A244     		add r10, r10, r4
 2269 1658 B244     		add r10, r10, r6
 2270 165a C244     		add r10, r10, r8
 2271 165c 9B44     		add r11, r11, r3
 2272 165e AB44     		add r11, r11, r5
ARM GAS  1.s 			page 41


 2273 1660 BB44     		add r11, r11, r7
 2274 1662 CB44     		add r11, r11, r9
 2275              		@5
 2276 1664 BDE8FC03 		pop {r2-r9}
 2277 1668 BCE80300 		ldmia r12!, {r0-r1}
 2278 166c 8646     		mov lr, r0
 2279 166e 5FEA1E4E 		lsrs lr, lr, # 16
 2280 1672 0004     		lsls r0, r0, # 16
 2281 1674 000C     		lsrs r0, r0, # 16
 2282 1676 02FB0EF2 		mul r2, r2, lr
 2283 167a 03FB0EF3 		mul r3, r3, lr
 2284 167e 04FB00F4 		mul r4, r4, r0
 2285 1682 05FB00F5 		mul r5, r5, r0
 2286 1686 8E46     		mov lr, r1
 2287 1688 5FEA1E4E 		lsrs lr, lr, # 16
 2288 168c 0904     		lsls r1, r1, # 16
 2289 168e 090C     		lsrs r1, r1, # 16
 2290 1690 06FB0EF6 		mul r6, r6, lr
 2291 1694 07FB0EF7 		mul r7, r7, lr
 2292 1698 08FB01F8 		mul r8, r8, r1
 2293 169c 09FB01F9 		mul r9, r9, r1
 2294 16a0 5213     		asrs r2, r2, # 13
 2295 16a2 5B13     		asrs r3, r3, # 13
 2296 16a4 6413     		asrs r4, r4, # 13
 2297 16a6 6D13     		asrs r5, r5, # 13
 2298 16a8 7613     		asrs r6, r6, # 13
 2299 16aa 7F13     		asrs r7, r7, # 13
 2300 16ac 5FEA6838 		asrs r8, r8, # 13
 2301 16b0 5FEA6939 		asrs r9, r9, # 13
 2302 16b4 9244     		add r10, r10, r2
 2303 16b6 A244     		add r10, r10, r4
 2304 16b8 B244     		add r10, r10, r6
 2305 16ba C244     		add r10, r10, r8
 2306 16bc 9B44     		add r11, r11, r3
 2307 16be AB44     		add r11, r11, r5
 2308 16c0 BB44     		add r11, r11, r7
 2309 16c2 CB44     		add r11, r11, r9
 2310              		@6
 2311 16c4 BDE8FC03 		pop {r2-r9}
 2312 16c8 BCE80300 		ldmia r12!, {r0-r1}
 2313 16cc 8646     		mov lr, r0
 2314 16ce 5FEA1E4E 		lsrs lr, lr, # 16
 2315 16d2 0004     		lsls r0, r0, # 16
 2316 16d4 000C     		lsrs r0, r0, # 16
 2317 16d6 02FB0EF2 		mul r2, r2, lr
 2318 16da 03FB0EF3 		mul r3, r3, lr
 2319 16de 04FB00F4 		mul r4, r4, r0
 2320 16e2 05FB00F5 		mul r5, r5, r0
 2321 16e6 8E46     		mov lr, r1
 2322 16e8 5FEA1E4E 		lsrs lr, lr, # 16
 2323 16ec 0904     		lsls r1, r1, # 16
 2324 16ee 090C     		lsrs r1, r1, # 16
 2325 16f0 06FB0EF6 		mul r6, r6, lr
 2326 16f4 07FB0EF7 		mul r7, r7, lr
 2327 16f8 08FB01F8 		mul r8, r8, r1
 2328 16fc 09FB01F9 		mul r9, r9, r1
 2329 1700 5213     		asrs r2, r2, # 13
ARM GAS  1.s 			page 42


 2330 1702 5B13     		asrs r3, r3, # 13
 2331 1704 6413     		asrs r4, r4, # 13
 2332 1706 6D13     		asrs r5, r5, # 13
 2333 1708 7613     		asrs r6, r6, # 13
 2334 170a 7F13     		asrs r7, r7, # 13
 2335 170c 5FEA6838 		asrs r8, r8, # 13
 2336 1710 5FEA6939 		asrs r9, r9, # 13
 2337 1714 9244     		add r10, r10, r2
 2338 1716 A244     		add r10, r10, r4
 2339 1718 B244     		add r10, r10, r6
 2340 171a C244     		add r10, r10, r8
 2341 171c 9B44     		add r11, r11, r3
 2342 171e AB44     		add r11, r11, r5
 2343 1720 BB44     		add r11, r11, r7
 2344 1722 CB44     		add r11, r11, r9
 2345              		@7
 2346 1724 BDE8FC03 		pop {r2-r9}
 2347 1728 BCE80300 		ldmia r12!, {r0-r1}
 2348 172c 8646     		mov lr, r0
 2349 172e 5FEA1E4E 		lsrs lr, lr, # 16
 2350 1732 0004     		lsls r0, r0, # 16
 2351 1734 000C     		lsrs r0, r0, # 16
 2352 1736 02FB0EF2 		mul r2, r2, lr
 2353 173a 03FB0EF3 		mul r3, r3, lr
 2354 173e 04FB00F4 		mul r4, r4, r0
 2355 1742 05FB00F5 		mul r5, r5, r0
 2356 1746 8E46     		mov lr, r1
 2357 1748 5FEA1E4E 		lsrs lr, lr, # 16
 2358 174c 0904     		lsls r1, r1, # 16
 2359 174e 090C     		lsrs r1, r1, # 16
 2360 1750 06FB0EF6 		mul r6, r6, lr
 2361 1754 07FB0EF7 		mul r7, r7, lr
 2362 1758 08FB01F8 		mul r8, r8, r1
 2363 175c 09FB01F9 		mul r9, r9, r1
 2364 1760 5213     		asrs r2, r2, # 13
 2365 1762 5B13     		asrs r3, r3, # 13
 2366 1764 6413     		asrs r4, r4, # 13
 2367 1766 6D13     		asrs r5, r5, # 13
 2368 1768 7613     		asrs r6, r6, # 13
 2369 176a 7F13     		asrs r7, r7, # 13
 2370 176c 5FEA6838 		asrs r8, r8, # 13
 2371 1770 5FEA6939 		asrs r9, r9, # 13
 2372 1774 9244     		add r10, r10, r2
 2373 1776 A244     		add r10, r10, r4
 2374 1778 B244     		add r10, r10, r6
 2375 177a C244     		add r10, r10, r8
 2376 177c 9B44     		add r11, r11, r3
 2377 177e AB44     		add r11, r11, r5
 2378 1780 BB44     		add r11, r11, r7
 2379 1782 CB44     		add r11, r11, r9
 2380              		@8
 2381 1784 BDE8FC03 		pop {r2-r9}
 2382 1788 BCE80300 		ldmia r12!, {r0-r1}
 2383 178c 8646     		mov lr, r0
 2384 178e 5FEA1E4E 		lsrs lr, lr, # 16
 2385 1792 0004     		lsls r0, r0, # 16
 2386 1794 000C     		lsrs r0, r0, # 16
ARM GAS  1.s 			page 43


 2387 1796 02FB0EF2 		mul r2, r2, lr
 2388 179a 03FB0EF3 		mul r3, r3, lr
 2389 179e 04FB00F4 		mul r4, r4, r0
 2390 17a2 05FB00F5 		mul r5, r5, r0
 2391 17a6 8E46     		mov lr, r1
 2392 17a8 5FEA1E4E 		lsrs lr, lr, # 16
 2393 17ac 0904     		lsls r1, r1, # 16
 2394 17ae 090C     		lsrs r1, r1, # 16
 2395 17b0 06FB0EF6 		mul r6, r6, lr
 2396 17b4 07FB0EF7 		mul r7, r7, lr
 2397 17b8 08FB01F8 		mul r8, r8, r1
 2398 17bc 09FB01F9 		mul r9, r9, r1
 2399 17c0 5213     		asrs r2, r2, # 13
 2400 17c2 5B13     		asrs r3, r3, # 13
 2401 17c4 6413     		asrs r4, r4, # 13
 2402 17c6 6D13     		asrs r5, r5, # 13
 2403 17c8 7613     		asrs r6, r6, # 13
 2404 17ca 7F13     		asrs r7, r7, # 13
 2405 17cc 5FEA6838 		asrs r8, r8, # 13
 2406 17d0 5FEA6939 		asrs r9, r9, # 13
 2407 17d4 9244     		add r10, r10, r2
 2408 17d6 A244     		add r10, r10, r4
 2409 17d8 B244     		add r10, r10, r6
 2410 17da C244     		add r10, r10, r8
 2411 17dc 9B44     		add r11, r11, r3
 2412 17de AB44     		add r11, r11, r5
 2413 17e0 BB44     		add r11, r11, r7
 2414 17e2 CB44     		add r11, r11, r9
 2415              		@9
 2416 17e4 BDE8FC03 		pop {r2-r9}
 2417 17e8 BCE80300 		ldmia r12!, {r0-r1}
 2418 17ec 8646     		mov lr, r0
 2419 17ee 5FEA1E4E 		lsrs lr, lr, # 16
 2420 17f2 0004     		lsls r0, r0, # 16
 2421 17f4 000C     		lsrs r0, r0, # 16
 2422 17f6 02FB0EF2 		mul r2, r2, lr
 2423 17fa 03FB0EF3 		mul r3, r3, lr
 2424 17fe 04FB00F4 		mul r4, r4, r0
 2425 1802 05FB00F5 		mul r5, r5, r0
 2426 1806 8E46     		mov lr, r1
 2427 1808 5FEA1E4E 		lsrs lr, lr, # 16
 2428 180c 0904     		lsls r1, r1, # 16
 2429 180e 090C     		lsrs r1, r1, # 16
 2430 1810 06FB0EF6 		mul r6, r6, lr
 2431 1814 07FB0EF7 		mul r7, r7, lr
 2432 1818 08FB01F8 		mul r8, r8, r1
 2433 181c 09FB01F9 		mul r9, r9, r1
 2434 1820 5213     		asrs r2, r2, # 13
 2435 1822 5B13     		asrs r3, r3, # 13
 2436 1824 6413     		asrs r4, r4, # 13
 2437 1826 6D13     		asrs r5, r5, # 13
 2438 1828 7613     		asrs r6, r6, # 13
 2439 182a 7F13     		asrs r7, r7, # 13
 2440 182c 5FEA6838 		asrs r8, r8, # 13
 2441 1830 5FEA6939 		asrs r9, r9, # 13
 2442 1834 9244     		add r10, r10, r2
 2443 1836 A244     		add r10, r10, r4
ARM GAS  1.s 			page 44


 2444 1838 B244     		add r10, r10, r6
 2445 183a C244     		add r10, r10, r8
 2446 183c 9B44     		add r11, r11, r3
 2447 183e AB44     		add r11, r11, r5
 2448 1840 BB44     		add r11, r11, r7
 2449 1842 CB44     		add r11, r11, r9
 2450              	
 2451              	
 2452              	
 2453              	
 2454              	
 2455 1844 DFF824D0 		ldr sp, = cos_sin
 2456 1848 DDF800D0 		ldr sp, [sp]
 2457 184c 0948     		ldr r0, = dft_shuliang
 2458 184e 0168     		ldr r1, [r0]
 2459 1850 0139     		subs r1, r1, # 1
 2460 1852 0160     		str r1, [r0]
 2461 1854 0029     		cmp r1, # 0
 2462 1856 7FF475A8 		bne __dft_xunhuan1
 2463              	
 2464              	
 2465 185a 5046     		mov r0, r10
 2466 185c 5946     		mov r1, r11
 2467 185e 024A     		ldr r2, = sp_zhizhen
 2468 1860 D2F800D0 		ldr sp, [r2]
 2469 1864 BDE8FC9F 		pop {r2-r12,pc}
 2470              		
 2471 1868 FC010020 		.ltorg
 2471      F4010020 
 2471      00020020 
 2471      F8010020 
 2472              		
 2473              	
 2474              	__dft_jisuan:	@0.86毫秒6400点
 2475              		@出口R0=实部，R1=虚部
 2476 1878 2DE9FC5F 		push {r2-r12,lr}
 2477 187c DFF83C0C 		ldr r0, = sp_zhizhen
 2478 1880 C0F800D0 		str sp, [r0]
 2479 1884 DFF838DC 		ldr sp, = cos_sin
 2480 1888 DDF800D0 		ldr sp, [sp]
 2481 188c DFF834CC 		ldr r12, = dianyabiao          @dianyabiao
 2482 1890 5FF0000A 		movs r10, # 0
 2483 1894 5FF0000B 		movs r11, # 0
 2484              	__dft_xunhuan:
 2485              		@0 (4 ge)
 2486 1898 BDE8FC03 		pop {r2-r9}
 2487 189c BCE80300 		ldmia r12!, {r0-r1}
 2488 18a0 8646     		mov lr, r0
 2489 18a2 5FEA1E4E 		lsrs lr, lr, # 16
 2490 18a6 0004     		lsls r0, r0, # 16
 2491 18a8 000C     		lsrs r0, r0, # 16
 2492 18aa 02FB0EF2 		mul r2, r2, lr
 2493 18ae 03FB0EF3 		mul r3, r3, lr
 2494 18b2 04FB00F4 		mul r4, r4, r0
 2495 18b6 05FB00F5 		mul r5, r5, r0
 2496 18ba 8E46     		mov lr, r1
 2497 18bc 5FEA1E4E 		lsrs lr, lr, # 16
ARM GAS  1.s 			page 45


 2498 18c0 0904     		lsls r1, r1, # 16
 2499 18c2 090C     		lsrs r1, r1, # 16
 2500 18c4 06FB0EF6 		mul r6, r6, lr
 2501 18c8 07FB0EF7 		mul r7, r7, lr
 2502 18cc 08FB01F8 		mul r8, r8, r1
 2503 18d0 09FB01F9 		mul r9, r9, r1
 2504 18d4 5213     		asrs r2, r2, # 13
 2505 18d6 5B13     		asrs r3, r3, # 13
 2506 18d8 6413     		asrs r4, r4, # 13
 2507 18da 6D13     		asrs r5, r5, # 13
 2508 18dc 7613     		asrs r6, r6, # 13
 2509 18de 7F13     		asrs r7, r7, # 13
 2510 18e0 5FEA6838 		asrs r8, r8, # 13
 2511 18e4 5FEA6939 		asrs r9, r9, # 13
 2512 18e8 9244     		add r10, r10, r2
 2513 18ea A244     		add r10, r10, r4
 2514 18ec B244     		add r10, r10, r6
 2515 18ee C244     		add r10, r10, r8
 2516 18f0 9B44     		add r11, r11, r3
 2517 18f2 AB44     		add r11, r11, r5
 2518 18f4 BB44     		add r11, r11, r7
 2519 18f6 CB44     		add r11, r11, r9
 2520              	
 2521              		@ 1
 2522 18f8 BDE8FC03 		pop {r2-r9}
 2523 18fc BCE80300 		ldmia r12!, {r0-r1}
 2524 1900 8646     		mov lr, r0
 2525 1902 5FEA1E4E 		lsrs lr, lr, # 16
 2526 1906 0004     		lsls r0, r0, # 16
 2527 1908 000C     		lsrs r0, r0, # 16
 2528 190a 02FB0EF2 		mul r2, r2, lr
 2529 190e 03FB0EF3 		mul r3, r3, lr
 2530 1912 04FB00F4 		mul r4, r4, r0
 2531 1916 05FB00F5 		mul r5, r5, r0
 2532 191a 8E46     		mov lr, r1
 2533 191c 5FEA1E4E 		lsrs lr, lr, # 16
 2534 1920 0904     		lsls r1, r1, # 16
 2535 1922 090C     		lsrs r1, r1, # 16
 2536 1924 06FB0EF6 		mul r6, r6, lr
 2537 1928 07FB0EF7 		mul r7, r7, lr
 2538 192c 08FB01F8 		mul r8, r8, r1
 2539 1930 09FB01F9 		mul r9, r9, r1
 2540 1934 5213     		asrs r2, r2, # 13
 2541 1936 5B13     		asrs r3, r3, # 13
 2542 1938 6413     		asrs r4, r4, # 13
 2543 193a 6D13     		asrs r5, r5, # 13
 2544 193c 7613     		asrs r6, r6, # 13
 2545 193e 7F13     		asrs r7, r7, # 13
 2546 1940 5FEA6838 		asrs r8, r8, # 13
 2547 1944 5FEA6939 		asrs r9, r9, # 13
 2548 1948 9244     		add r10, r10, r2
 2549 194a A244     		add r10, r10, r4
 2550 194c B244     		add r10, r10, r6
 2551 194e C244     		add r10, r10, r8
 2552 1950 9B44     		add r11, r11, r3
 2553 1952 AB44     		add r11, r11, r5
 2554 1954 BB44     		add r11, r11, r7
ARM GAS  1.s 			page 46


 2555 1956 CB44     		add r11, r11, r9
 2556              	
 2557              		@2
 2558 1958 BDE8FC03 		pop {r2-r9}
 2559 195c BCE80300 		ldmia r12!, {r0-r1}
 2560 1960 8646     		mov lr, r0
 2561 1962 5FEA1E4E 		lsrs lr, lr, # 16
 2562 1966 0004     		lsls r0, r0, # 16
 2563 1968 000C     		lsrs r0, r0, # 16
 2564 196a 02FB0EF2 		mul r2, r2, lr
 2565 196e 03FB0EF3 		mul r3, r3, lr
 2566 1972 04FB00F4 		mul r4, r4, r0
 2567 1976 05FB00F5 		mul r5, r5, r0
 2568 197a 8E46     		mov lr, r1
 2569 197c 5FEA1E4E 		lsrs lr, lr, # 16
 2570 1980 0904     		lsls r1, r1, # 16
 2571 1982 090C     		lsrs r1, r1, # 16
 2572 1984 06FB0EF6 		mul r6, r6, lr
 2573 1988 07FB0EF7 		mul r7, r7, lr
 2574 198c 08FB01F8 		mul r8, r8, r1
 2575 1990 09FB01F9 		mul r9, r9, r1
 2576 1994 5213     		asrs r2, r2, # 13
 2577 1996 5B13     		asrs r3, r3, # 13
 2578 1998 6413     		asrs r4, r4, # 13
 2579 199a 6D13     		asrs r5, r5, # 13
 2580 199c 7613     		asrs r6, r6, # 13
 2581 199e 7F13     		asrs r7, r7, # 13
 2582 19a0 5FEA6838 		asrs r8, r8, # 13
 2583 19a4 5FEA6939 		asrs r9, r9, # 13
 2584 19a8 9244     		add r10, r10, r2
 2585 19aa A244     		add r10, r10, r4
 2586 19ac B244     		add r10, r10, r6
 2587 19ae C244     		add r10, r10, r8
 2588 19b0 9B44     		add r11, r11, r3
 2589 19b2 AB44     		add r11, r11, r5
 2590 19b4 BB44     		add r11, r11, r7
 2591 19b6 CB44     		add r11, r11, r9
 2592              	
 2593              		@3
 2594 19b8 BDE8FC03 		pop {r2-r9}
 2595 19bc BCE80300 		ldmia r12!, {r0-r1}
 2596 19c0 8646     		mov lr, r0
 2597 19c2 5FEA1E4E 		lsrs lr, lr, # 16
 2598 19c6 0004     		lsls r0, r0, # 16
 2599 19c8 000C     		lsrs r0, r0, # 16
 2600 19ca 02FB0EF2 		mul r2, r2, lr
 2601 19ce 03FB0EF3 		mul r3, r3, lr
 2602 19d2 04FB00F4 		mul r4, r4, r0
 2603 19d6 05FB00F5 		mul r5, r5, r0
 2604 19da 8E46     		mov lr, r1
 2605 19dc 5FEA1E4E 		lsrs lr, lr, # 16
 2606 19e0 0904     		lsls r1, r1, # 16
 2607 19e2 090C     		lsrs r1, r1, # 16
 2608 19e4 06FB0EF6 		mul r6, r6, lr
 2609 19e8 07FB0EF7 		mul r7, r7, lr
 2610 19ec 08FB01F8 		mul r8, r8, r1
 2611 19f0 09FB01F9 		mul r9, r9, r1
ARM GAS  1.s 			page 47


 2612 19f4 5213     		asrs r2, r2, # 13
 2613 19f6 5B13     		asrs r3, r3, # 13
 2614 19f8 6413     		asrs r4, r4, # 13
 2615 19fa 6D13     		asrs r5, r5, # 13
 2616 19fc 7613     		asrs r6, r6, # 13
 2617 19fe 7F13     		asrs r7, r7, # 13
 2618 1a00 5FEA6838 		asrs r8, r8, # 13
 2619 1a04 5FEA6939 		asrs r9, r9, # 13
 2620 1a08 9244     		add r10, r10, r2
 2621 1a0a A244     		add r10, r10, r4
 2622 1a0c B244     		add r10, r10, r6
 2623 1a0e C244     		add r10, r10, r8
 2624 1a10 9B44     		add r11, r11, r3
 2625 1a12 AB44     		add r11, r11, r5
 2626 1a14 BB44     		add r11, r11, r7
 2627 1a16 CB44     		add r11, r11, r9
 2628              	
 2629              		@4
 2630 1a18 BDE8FC03 		pop {r2-r9}
 2631 1a1c BCE80300 		ldmia r12!, {r0-r1}
 2632 1a20 8646     		mov lr, r0
 2633 1a22 5FEA1E4E 		lsrs lr, lr, # 16
 2634 1a26 0004     		lsls r0, r0, # 16
 2635 1a28 000C     		lsrs r0, r0, # 16
 2636 1a2a 02FB0EF2 		mul r2, r2, lr
 2637 1a2e 03FB0EF3 		mul r3, r3, lr
 2638 1a32 04FB00F4 		mul r4, r4, r0
 2639 1a36 05FB00F5 		mul r5, r5, r0
 2640 1a3a 8E46     		mov lr, r1
 2641 1a3c 5FEA1E4E 		lsrs lr, lr, # 16
 2642 1a40 0904     		lsls r1, r1, # 16
 2643 1a42 090C     		lsrs r1, r1, # 16
 2644 1a44 06FB0EF6 		mul r6, r6, lr
 2645 1a48 07FB0EF7 		mul r7, r7, lr
 2646 1a4c 08FB01F8 		mul r8, r8, r1
 2647 1a50 09FB01F9 		mul r9, r9, r1
 2648 1a54 5213     		asrs r2, r2, # 13
 2649 1a56 5B13     		asrs r3, r3, # 13
 2650 1a58 6413     		asrs r4, r4, # 13
 2651 1a5a 6D13     		asrs r5, r5, # 13
 2652 1a5c 7613     		asrs r6, r6, # 13
 2653 1a5e 7F13     		asrs r7, r7, # 13
 2654 1a60 5FEA6838 		asrs r8, r8, # 13
 2655 1a64 5FEA6939 		asrs r9, r9, # 13
 2656 1a68 9244     		add r10, r10, r2
 2657 1a6a A244     		add r10, r10, r4
 2658 1a6c B244     		add r10, r10, r6
 2659 1a6e C244     		add r10, r10, r8
 2660 1a70 9B44     		add r11, r11, r3
 2661 1a72 AB44     		add r11, r11, r5
 2662 1a74 BB44     		add r11, r11, r7
 2663 1a76 CB44     		add r11, r11, r9
 2664              	
 2665              		@5
 2666 1a78 BDE8FC03 		pop {r2-r9}
 2667 1a7c BCE80300 		ldmia r12!, {r0-r1}
 2668 1a80 8646     		mov lr, r0
ARM GAS  1.s 			page 48


 2669 1a82 5FEA1E4E 		lsrs lr, lr, # 16
 2670 1a86 0004     		lsls r0, r0, # 16
 2671 1a88 000C     		lsrs r0, r0, # 16
 2672 1a8a 02FB0EF2 		mul r2, r2, lr
 2673 1a8e 03FB0EF3 		mul r3, r3, lr
 2674 1a92 04FB00F4 		mul r4, r4, r0
 2675 1a96 05FB00F5 		mul r5, r5, r0
 2676 1a9a 8E46     		mov lr, r1
 2677 1a9c 5FEA1E4E 		lsrs lr, lr, # 16
 2678 1aa0 0904     		lsls r1, r1, # 16
 2679 1aa2 090C     		lsrs r1, r1, # 16
 2680 1aa4 06FB0EF6 		mul r6, r6, lr
 2681 1aa8 07FB0EF7 		mul r7, r7, lr
 2682 1aac 08FB01F8 		mul r8, r8, r1
 2683 1ab0 09FB01F9 		mul r9, r9, r1
 2684 1ab4 5213     		asrs r2, r2, # 13
 2685 1ab6 5B13     		asrs r3, r3, # 13
 2686 1ab8 6413     		asrs r4, r4, # 13
 2687 1aba 6D13     		asrs r5, r5, # 13
 2688 1abc 7613     		asrs r6, r6, # 13
 2689 1abe 7F13     		asrs r7, r7, # 13
 2690 1ac0 5FEA6838 		asrs r8, r8, # 13
 2691 1ac4 5FEA6939 		asrs r9, r9, # 13
 2692 1ac8 9244     		add r10, r10, r2
 2693 1aca A244     		add r10, r10, r4
 2694 1acc B244     		add r10, r10, r6
 2695 1ace C244     		add r10, r10, r8
 2696 1ad0 9B44     		add r11, r11, r3
 2697 1ad2 AB44     		add r11, r11, r5
 2698 1ad4 BB44     		add r11, r11, r7
 2699 1ad6 CB44     		add r11, r11, r9
 2700              	
 2701              		@6
 2702 1ad8 BDE8FC03 		pop {r2-r9}
 2703 1adc BCE80300 		ldmia r12!, {r0-r1}
 2704 1ae0 8646     		mov lr, r0
 2705 1ae2 5FEA1E4E 		lsrs lr, lr, # 16
 2706 1ae6 0004     		lsls r0, r0, # 16
 2707 1ae8 000C     		lsrs r0, r0, # 16
 2708 1aea 02FB0EF2 		mul r2, r2, lr
 2709 1aee 03FB0EF3 		mul r3, r3, lr
 2710 1af2 04FB00F4 		mul r4, r4, r0
 2711 1af6 05FB00F5 		mul r5, r5, r0
 2712 1afa 8E46     		mov lr, r1
 2713 1afc 5FEA1E4E 		lsrs lr, lr, # 16
 2714 1b00 0904     		lsls r1, r1, # 16
 2715 1b02 090C     		lsrs r1, r1, # 16
 2716 1b04 06FB0EF6 		mul r6, r6, lr
 2717 1b08 07FB0EF7 		mul r7, r7, lr
 2718 1b0c 08FB01F8 		mul r8, r8, r1
 2719 1b10 09FB01F9 		mul r9, r9, r1
 2720 1b14 5213     		asrs r2, r2, # 13
 2721 1b16 5B13     		asrs r3, r3, # 13
 2722 1b18 6413     		asrs r4, r4, # 13
 2723 1b1a 6D13     		asrs r5, r5, # 13
 2724 1b1c 7613     		asrs r6, r6, # 13
 2725 1b1e 7F13     		asrs r7, r7, # 13
ARM GAS  1.s 			page 49


 2726 1b20 5FEA6838 		asrs r8, r8, # 13
 2727 1b24 5FEA6939 		asrs r9, r9, # 13
 2728 1b28 9244     		add r10, r10, r2
 2729 1b2a A244     		add r10, r10, r4
 2730 1b2c B244     		add r10, r10, r6
 2731 1b2e C244     		add r10, r10, r8
 2732 1b30 9B44     		add r11, r11, r3
 2733 1b32 AB44     		add r11, r11, r5
 2734 1b34 BB44     		add r11, r11, r7
 2735 1b36 CB44     		add r11, r11, r9
 2736              	
 2737              		@7
 2738 1b38 BDE8FC03 		pop {r2-r9}
 2739 1b3c BCE80300 		ldmia r12!, {r0-r1}
 2740 1b40 8646     		mov lr, r0
 2741 1b42 5FEA1E4E 		lsrs lr, lr, # 16
 2742 1b46 0004     		lsls r0, r0, # 16
 2743 1b48 000C     		lsrs r0, r0, # 16
 2744 1b4a 02FB0EF2 		mul r2, r2, lr
 2745 1b4e 03FB0EF3 		mul r3, r3, lr
 2746 1b52 04FB00F4 		mul r4, r4, r0
 2747 1b56 05FB00F5 		mul r5, r5, r0
 2748 1b5a 8E46     		mov lr, r1
 2749 1b5c 5FEA1E4E 		lsrs lr, lr, # 16
 2750 1b60 0904     		lsls r1, r1, # 16
 2751 1b62 090C     		lsrs r1, r1, # 16
 2752 1b64 06FB0EF6 		mul r6, r6, lr
 2753 1b68 07FB0EF7 		mul r7, r7, lr
 2754 1b6c 08FB01F8 		mul r8, r8, r1
 2755 1b70 09FB01F9 		mul r9, r9, r1
 2756 1b74 5213     		asrs r2, r2, # 13
 2757 1b76 5B13     		asrs r3, r3, # 13
 2758 1b78 6413     		asrs r4, r4, # 13
 2759 1b7a 6D13     		asrs r5, r5, # 13
 2760 1b7c 7613     		asrs r6, r6, # 13
 2761 1b7e 7F13     		asrs r7, r7, # 13
 2762 1b80 5FEA6838 		asrs r8, r8, # 13
 2763 1b84 5FEA6939 		asrs r9, r9, # 13
 2764 1b88 9244     		add r10, r10, r2
 2765 1b8a A244     		add r10, r10, r4
 2766 1b8c B244     		add r10, r10, r6
 2767 1b8e C244     		add r10, r10, r8
 2768 1b90 9B44     		add r11, r11, r3
 2769 1b92 AB44     		add r11, r11, r5
 2770 1b94 BB44     		add r11, r11, r7
 2771 1b96 CB44     		add r11, r11, r9
 2772              	
 2773              		@8
 2774 1b98 BDE8FC03 		pop {r2-r9}
 2775 1b9c BCE80300 		ldmia r12!, {r0-r1}
 2776 1ba0 8646     		mov lr, r0
 2777 1ba2 5FEA1E4E 		lsrs lr, lr, # 16
 2778 1ba6 0004     		lsls r0, r0, # 16
 2779 1ba8 000C     		lsrs r0, r0, # 16
 2780 1baa 02FB0EF2 		mul r2, r2, lr
 2781 1bae 03FB0EF3 		mul r3, r3, lr
 2782 1bb2 04FB00F4 		mul r4, r4, r0
ARM GAS  1.s 			page 50


 2783 1bb6 05FB00F5 		mul r5, r5, r0
 2784 1bba 8E46     		mov lr, r1
 2785 1bbc 5FEA1E4E 		lsrs lr, lr, # 16
 2786 1bc0 0904     		lsls r1, r1, # 16
 2787 1bc2 090C     		lsrs r1, r1, # 16
 2788 1bc4 06FB0EF6 		mul r6, r6, lr
 2789 1bc8 07FB0EF7 		mul r7, r7, lr
 2790 1bcc 08FB01F8 		mul r8, r8, r1
 2791 1bd0 09FB01F9 		mul r9, r9, r1
 2792 1bd4 5213     		asrs r2, r2, # 13
 2793 1bd6 5B13     		asrs r3, r3, # 13
 2794 1bd8 6413     		asrs r4, r4, # 13
 2795 1bda 6D13     		asrs r5, r5, # 13
 2796 1bdc 7613     		asrs r6, r6, # 13
 2797 1bde 7F13     		asrs r7, r7, # 13
 2798 1be0 5FEA6838 		asrs r8, r8, # 13
 2799 1be4 5FEA6939 		asrs r9, r9, # 13
 2800 1be8 9244     		add r10, r10, r2
 2801 1bea A244     		add r10, r10, r4
 2802 1bec B244     		add r10, r10, r6
 2803 1bee C244     		add r10, r10, r8
 2804 1bf0 9B44     		add r11, r11, r3
 2805 1bf2 AB44     		add r11, r11, r5
 2806 1bf4 BB44     		add r11, r11, r7
 2807 1bf6 CB44     		add r11, r11, r9
 2808              	
 2809              		@9
 2810 1bf8 BDE8FC03 		pop {r2-r9}
 2811 1bfc BCE80300 		ldmia r12!, {r0-r1}
 2812 1c00 8646     		mov lr, r0
 2813 1c02 5FEA1E4E 		lsrs lr, lr, # 16
 2814 1c06 0004     		lsls r0, r0, # 16
 2815 1c08 000C     		lsrs r0, r0, # 16
 2816 1c0a 02FB0EF2 		mul r2, r2, lr
 2817 1c0e 03FB0EF3 		mul r3, r3, lr
 2818 1c12 04FB00F4 		mul r4, r4, r0
 2819 1c16 05FB00F5 		mul r5, r5, r0
 2820 1c1a 8E46     		mov lr, r1
 2821 1c1c 5FEA1E4E 		lsrs lr, lr, # 16
 2822 1c20 0904     		lsls r1, r1, # 16
 2823 1c22 090C     		lsrs r1, r1, # 16
 2824 1c24 06FB0EF6 		mul r6, r6, lr
 2825 1c28 07FB0EF7 		mul r7, r7, lr
 2826 1c2c 08FB01F8 		mul r8, r8, r1
 2827 1c30 09FB01F9 		mul r9, r9, r1
 2828 1c34 5213     		asrs r2, r2, # 13
 2829 1c36 5B13     		asrs r3, r3, # 13
 2830 1c38 6413     		asrs r4, r4, # 13
 2831 1c3a 6D13     		asrs r5, r5, # 13
 2832 1c3c 7613     		asrs r6, r6, # 13
 2833 1c3e 7F13     		asrs r7, r7, # 13
 2834 1c40 5FEA6838 		asrs r8, r8, # 13
 2835 1c44 5FEA6939 		asrs r9, r9, # 13
 2836 1c48 9244     		add r10, r10, r2
 2837 1c4a A244     		add r10, r10, r4
 2838 1c4c B244     		add r10, r10, r6
 2839 1c4e C244     		add r10, r10, r8
ARM GAS  1.s 			page 51


 2840 1c50 9B44     		add r11, r11, r3
 2841 1c52 AB44     		add r11, r11, r5
 2842 1c54 BB44     		add r11, r11, r7
 2843 1c56 CB44     		add r11, r11, r9
 2844              	
 2845              		@10
 2846 1c58 BDE8FC03 		pop {r2-r9}
 2847 1c5c BCE80300 		ldmia r12!, {r0-r1}
 2848 1c60 8646     		mov lr, r0
 2849 1c62 5FEA1E4E 		lsrs lr, lr, # 16
 2850 1c66 0004     		lsls r0, r0, # 16
 2851 1c68 000C     		lsrs r0, r0, # 16
 2852 1c6a 02FB0EF2 		mul r2, r2, lr
 2853 1c6e 03FB0EF3 		mul r3, r3, lr
 2854 1c72 04FB00F4 		mul r4, r4, r0
 2855 1c76 05FB00F5 		mul r5, r5, r0
 2856 1c7a 8E46     		mov lr, r1
 2857 1c7c 5FEA1E4E 		lsrs lr, lr, # 16
 2858 1c80 0904     		lsls r1, r1, # 16
 2859 1c82 090C     		lsrs r1, r1, # 16
 2860 1c84 06FB0EF6 		mul r6, r6, lr
 2861 1c88 07FB0EF7 		mul r7, r7, lr
 2862 1c8c 08FB01F8 		mul r8, r8, r1
 2863 1c90 09FB01F9 		mul r9, r9, r1
 2864 1c94 5213     		asrs r2, r2, # 13
 2865 1c96 5B13     		asrs r3, r3, # 13
 2866 1c98 6413     		asrs r4, r4, # 13
 2867 1c9a 6D13     		asrs r5, r5, # 13
 2868 1c9c 7613     		asrs r6, r6, # 13
 2869 1c9e 7F13     		asrs r7, r7, # 13
 2870 1ca0 5FEA6838 		asrs r8, r8, # 13
 2871 1ca4 5FEA6939 		asrs r9, r9, # 13
 2872 1ca8 9244     		add r10, r10, r2
 2873 1caa A244     		add r10, r10, r4
 2874 1cac B244     		add r10, r10, r6
 2875 1cae C244     		add r10, r10, r8
 2876 1cb0 9B44     		add r11, r11, r3
 2877 1cb2 AB44     		add r11, r11, r5
 2878 1cb4 BB44     		add r11, r11, r7
 2879 1cb6 CB44     		add r11, r11, r9
 2880              	
 2881              		@11
 2882 1cb8 BDE8FC03 		pop {r2-r9}
 2883 1cbc BCE80300 		ldmia r12!, {r0-r1}
 2884 1cc0 8646     		mov lr, r0
 2885 1cc2 5FEA1E4E 		lsrs lr, lr, # 16
 2886 1cc6 0004     		lsls r0, r0, # 16
 2887 1cc8 000C     		lsrs r0, r0, # 16
 2888 1cca 02FB0EF2 		mul r2, r2, lr
 2889 1cce 03FB0EF3 		mul r3, r3, lr
 2890 1cd2 04FB00F4 		mul r4, r4, r0
 2891 1cd6 05FB00F5 		mul r5, r5, r0
 2892 1cda 8E46     		mov lr, r1
 2893 1cdc 5FEA1E4E 		lsrs lr, lr, # 16
 2894 1ce0 0904     		lsls r1, r1, # 16
 2895 1ce2 090C     		lsrs r1, r1, # 16
 2896 1ce4 06FB0EF6 		mul r6, r6, lr
ARM GAS  1.s 			page 52


 2897 1ce8 07FB0EF7 		mul r7, r7, lr
 2898 1cec 08FB01F8 		mul r8, r8, r1
 2899 1cf0 09FB01F9 		mul r9, r9, r1
 2900 1cf4 5213     		asrs r2, r2, # 13
 2901 1cf6 5B13     		asrs r3, r3, # 13
 2902 1cf8 6413     		asrs r4, r4, # 13
 2903 1cfa 6D13     		asrs r5, r5, # 13
 2904 1cfc 7613     		asrs r6, r6, # 13
 2905 1cfe 7F13     		asrs r7, r7, # 13
 2906 1d00 5FEA6838 		asrs r8, r8, # 13
 2907 1d04 5FEA6939 		asrs r9, r9, # 13
 2908 1d08 9244     		add r10, r10, r2
 2909 1d0a A244     		add r10, r10, r4
 2910 1d0c B244     		add r10, r10, r6
 2911 1d0e C244     		add r10, r10, r8
 2912 1d10 9B44     		add r11, r11, r3
 2913 1d12 AB44     		add r11, r11, r5
 2914 1d14 BB44     		add r11, r11, r7
 2915 1d16 CB44     		add r11, r11, r9
 2916              	
 2917              		@12
 2918 1d18 BDE8FC03 		pop {r2-r9}
 2919 1d1c BCE80300 		ldmia r12!, {r0-r1}
 2920 1d20 8646     		mov lr, r0
 2921 1d22 5FEA1E4E 		lsrs lr, lr, # 16
 2922 1d26 0004     		lsls r0, r0, # 16
 2923 1d28 000C     		lsrs r0, r0, # 16
 2924 1d2a 02FB0EF2 		mul r2, r2, lr
 2925 1d2e 03FB0EF3 		mul r3, r3, lr
 2926 1d32 04FB00F4 		mul r4, r4, r0
 2927 1d36 05FB00F5 		mul r5, r5, r0
 2928 1d3a 8E46     		mov lr, r1
 2929 1d3c 5FEA1E4E 		lsrs lr, lr, # 16
 2930 1d40 0904     		lsls r1, r1, # 16
 2931 1d42 090C     		lsrs r1, r1, # 16
 2932 1d44 06FB0EF6 		mul r6, r6, lr
 2933 1d48 07FB0EF7 		mul r7, r7, lr
 2934 1d4c 08FB01F8 		mul r8, r8, r1
 2935 1d50 09FB01F9 		mul r9, r9, r1
 2936 1d54 5213     		asrs r2, r2, # 13
 2937 1d56 5B13     		asrs r3, r3, # 13
 2938 1d58 6413     		asrs r4, r4, # 13
 2939 1d5a 6D13     		asrs r5, r5, # 13
 2940 1d5c 7613     		asrs r6, r6, # 13
 2941 1d5e 7F13     		asrs r7, r7, # 13
 2942 1d60 5FEA6838 		asrs r8, r8, # 13
 2943 1d64 5FEA6939 		asrs r9, r9, # 13
 2944 1d68 9244     		add r10, r10, r2
 2945 1d6a A244     		add r10, r10, r4
 2946 1d6c B244     		add r10, r10, r6
 2947 1d6e C244     		add r10, r10, r8
 2948 1d70 9B44     		add r11, r11, r3
 2949 1d72 AB44     		add r11, r11, r5
 2950 1d74 BB44     		add r11, r11, r7
 2951 1d76 CB44     		add r11, r11, r9
 2952              	
 2953              		@13
ARM GAS  1.s 			page 53


 2954 1d78 BDE8FC03 		pop {r2-r9}
 2955 1d7c BCE80300 		ldmia r12!, {r0-r1}
 2956 1d80 8646     		mov lr, r0
 2957 1d82 5FEA1E4E 		lsrs lr, lr, # 16
 2958 1d86 0004     		lsls r0, r0, # 16
 2959 1d88 000C     		lsrs r0, r0, # 16
 2960 1d8a 02FB0EF2 		mul r2, r2, lr
 2961 1d8e 03FB0EF3 		mul r3, r3, lr
 2962 1d92 04FB00F4 		mul r4, r4, r0
 2963 1d96 05FB00F5 		mul r5, r5, r0
 2964 1d9a 8E46     		mov lr, r1
 2965 1d9c 5FEA1E4E 		lsrs lr, lr, # 16
 2966 1da0 0904     		lsls r1, r1, # 16
 2967 1da2 090C     		lsrs r1, r1, # 16
 2968 1da4 06FB0EF6 		mul r6, r6, lr
 2969 1da8 07FB0EF7 		mul r7, r7, lr
 2970 1dac 08FB01F8 		mul r8, r8, r1
 2971 1db0 09FB01F9 		mul r9, r9, r1
 2972 1db4 5213     		asrs r2, r2, # 13
 2973 1db6 5B13     		asrs r3, r3, # 13
 2974 1db8 6413     		asrs r4, r4, # 13
 2975 1dba 6D13     		asrs r5, r5, # 13
 2976 1dbc 7613     		asrs r6, r6, # 13
 2977 1dbe 7F13     		asrs r7, r7, # 13
 2978 1dc0 5FEA6838 		asrs r8, r8, # 13
 2979 1dc4 5FEA6939 		asrs r9, r9, # 13
 2980 1dc8 9244     		add r10, r10, r2
 2981 1dca A244     		add r10, r10, r4
 2982 1dcc B244     		add r10, r10, r6
 2983 1dce C244     		add r10, r10, r8
 2984 1dd0 9B44     		add r11, r11, r3
 2985 1dd2 AB44     		add r11, r11, r5
 2986 1dd4 BB44     		add r11, r11, r7
 2987 1dd6 CB44     		add r11, r11, r9
 2988              	
 2989              		@14
 2990 1dd8 BDE8FC03 		pop {r2-r9}
 2991 1ddc BCE80300 		ldmia r12!, {r0-r1}
 2992 1de0 8646     		mov lr, r0
 2993 1de2 5FEA1E4E 		lsrs lr, lr, # 16
 2994 1de6 0004     		lsls r0, r0, # 16
 2995 1de8 000C     		lsrs r0, r0, # 16
 2996 1dea 02FB0EF2 		mul r2, r2, lr
 2997 1dee 03FB0EF3 		mul r3, r3, lr
 2998 1df2 04FB00F4 		mul r4, r4, r0
 2999 1df6 05FB00F5 		mul r5, r5, r0
 3000 1dfa 8E46     		mov lr, r1
 3001 1dfc 5FEA1E4E 		lsrs lr, lr, # 16
 3002 1e00 0904     		lsls r1, r1, # 16
 3003 1e02 090C     		lsrs r1, r1, # 16
 3004 1e04 06FB0EF6 		mul r6, r6, lr
 3005 1e08 07FB0EF7 		mul r7, r7, lr
 3006 1e0c 08FB01F8 		mul r8, r8, r1
 3007 1e10 09FB01F9 		mul r9, r9, r1
 3008 1e14 5213     		asrs r2, r2, # 13
 3009 1e16 5B13     		asrs r3, r3, # 13
 3010 1e18 6413     		asrs r4, r4, # 13
ARM GAS  1.s 			page 54


 3011 1e1a 6D13     		asrs r5, r5, # 13
 3012 1e1c 7613     		asrs r6, r6, # 13
 3013 1e1e 7F13     		asrs r7, r7, # 13
 3014 1e20 5FEA6838 		asrs r8, r8, # 13
 3015 1e24 5FEA6939 		asrs r9, r9, # 13
 3016 1e28 9244     		add r10, r10, r2
 3017 1e2a A244     		add r10, r10, r4
 3018 1e2c B244     		add r10, r10, r6
 3019 1e2e C244     		add r10, r10, r8
 3020 1e30 9B44     		add r11, r11, r3
 3021 1e32 AB44     		add r11, r11, r5
 3022 1e34 BB44     		add r11, r11, r7
 3023 1e36 CB44     		add r11, r11, r9
 3024              	
 3025              		@15
 3026 1e38 BDE8FC03 		pop {r2-r9}
 3027 1e3c BCE80300 		ldmia r12!, {r0-r1}
 3028 1e40 8646     		mov lr, r0
 3029 1e42 5FEA1E4E 		lsrs lr, lr, # 16
 3030 1e46 0004     		lsls r0, r0, # 16
 3031 1e48 000C     		lsrs r0, r0, # 16
 3032 1e4a 02FB0EF2 		mul r2, r2, lr
 3033 1e4e 03FB0EF3 		mul r3, r3, lr
 3034 1e52 04FB00F4 		mul r4, r4, r0
 3035 1e56 05FB00F5 		mul r5, r5, r0
 3036 1e5a 8E46     		mov lr, r1
 3037 1e5c 5FEA1E4E 		lsrs lr, lr, # 16
 3038 1e60 0904     		lsls r1, r1, # 16
 3039 1e62 090C     		lsrs r1, r1, # 16
 3040 1e64 06FB0EF6 		mul r6, r6, lr
 3041 1e68 07FB0EF7 		mul r7, r7, lr
 3042 1e6c 08FB01F8 		mul r8, r8, r1
 3043 1e70 09FB01F9 		mul r9, r9, r1
 3044 1e74 5213     		asrs r2, r2, # 13
 3045 1e76 5B13     		asrs r3, r3, # 13
 3046 1e78 6413     		asrs r4, r4, # 13
 3047 1e7a 6D13     		asrs r5, r5, # 13
 3048 1e7c 7613     		asrs r6, r6, # 13
 3049 1e7e 7F13     		asrs r7, r7, # 13
 3050 1e80 5FEA6838 		asrs r8, r8, # 13
 3051 1e84 5FEA6939 		asrs r9, r9, # 13
 3052 1e88 9244     		add r10, r10, r2
 3053 1e8a A244     		add r10, r10, r4
 3054 1e8c B244     		add r10, r10, r6
 3055 1e8e C244     		add r10, r10, r8
 3056 1e90 9B44     		add r11, r11, r3
 3057 1e92 AB44     		add r11, r11, r5
 3058 1e94 BB44     		add r11, r11, r7
 3059 1e96 CB44     		add r11, r11, r9
 3060              	
 3061              		@@@@@@@@@@
 3062              		@@@64@@@@@@
 3063              		@@@@@@@@@@
 3064              	
 3065              		@0 (4 ge)
 3066 1e98 BDE8FC03 		pop {r2-r9}
 3067 1e9c BCE80300 		ldmia r12!, {r0-r1}
ARM GAS  1.s 			page 55


 3068 1ea0 8646     		mov lr, r0
 3069 1ea2 5FEA1E4E 		lsrs lr, lr, # 16
 3070 1ea6 0004     		lsls r0, r0, # 16
 3071 1ea8 000C     		lsrs r0, r0, # 16
 3072 1eaa 02FB0EF2 		mul r2, r2, lr
 3073 1eae 03FB0EF3 		mul r3, r3, lr
 3074 1eb2 04FB00F4 		mul r4, r4, r0
 3075 1eb6 05FB00F5 		mul r5, r5, r0
 3076 1eba 8E46     		mov lr, r1
 3077 1ebc 5FEA1E4E 		lsrs lr, lr, # 16
 3078 1ec0 0904     		lsls r1, r1, # 16
 3079 1ec2 090C     		lsrs r1, r1, # 16
 3080 1ec4 06FB0EF6 		mul r6, r6, lr
 3081 1ec8 07FB0EF7 		mul r7, r7, lr
 3082 1ecc 08FB01F8 		mul r8, r8, r1
 3083 1ed0 09FB01F9 		mul r9, r9, r1
 3084 1ed4 5213     		asrs r2, r2, # 13
 3085 1ed6 5B13     		asrs r3, r3, # 13
 3086 1ed8 6413     		asrs r4, r4, # 13
 3087 1eda 6D13     		asrs r5, r5, # 13
 3088 1edc 7613     		asrs r6, r6, # 13
 3089 1ede 7F13     		asrs r7, r7, # 13
 3090 1ee0 5FEA6838 		asrs r8, r8, # 13
 3091 1ee4 5FEA6939 		asrs r9, r9, # 13
 3092 1ee8 9244     		add r10, r10, r2
 3093 1eea A244     		add r10, r10, r4
 3094 1eec B244     		add r10, r10, r6
 3095 1eee C244     		add r10, r10, r8
 3096 1ef0 9B44     		add r11, r11, r3
 3097 1ef2 AB44     		add r11, r11, r5
 3098 1ef4 BB44     		add r11, r11, r7
 3099 1ef6 CB44     		add r11, r11, r9
 3100              	
 3101              		@ 1
 3102 1ef8 BDE8FC03 		pop {r2-r9}
 3103 1efc BCE80300 		ldmia r12!, {r0-r1}
 3104 1f00 8646     		mov lr, r0
 3105 1f02 5FEA1E4E 		lsrs lr, lr, # 16
 3106 1f06 0004     		lsls r0, r0, # 16
 3107 1f08 000C     		lsrs r0, r0, # 16
 3108 1f0a 02FB0EF2 		mul r2, r2, lr
 3109 1f0e 03FB0EF3 		mul r3, r3, lr
 3110 1f12 04FB00F4 		mul r4, r4, r0
 3111 1f16 05FB00F5 		mul r5, r5, r0
 3112 1f1a 8E46     		mov lr, r1
 3113 1f1c 5FEA1E4E 		lsrs lr, lr, # 16
 3114 1f20 0904     		lsls r1, r1, # 16
 3115 1f22 090C     		lsrs r1, r1, # 16
 3116 1f24 06FB0EF6 		mul r6, r6, lr
 3117 1f28 07FB0EF7 		mul r7, r7, lr
 3118 1f2c 08FB01F8 		mul r8, r8, r1
 3119 1f30 09FB01F9 		mul r9, r9, r1
 3120 1f34 5213     		asrs r2, r2, # 13
 3121 1f36 5B13     		asrs r3, r3, # 13
 3122 1f38 6413     		asrs r4, r4, # 13
 3123 1f3a 6D13     		asrs r5, r5, # 13
 3124 1f3c 7613     		asrs r6, r6, # 13
ARM GAS  1.s 			page 56


 3125 1f3e 7F13     		asrs r7, r7, # 13
 3126 1f40 5FEA6838 		asrs r8, r8, # 13
 3127 1f44 5FEA6939 		asrs r9, r9, # 13
 3128 1f48 9244     		add r10, r10, r2
 3129 1f4a A244     		add r10, r10, r4
 3130 1f4c B244     		add r10, r10, r6
 3131 1f4e C244     		add r10, r10, r8
 3132 1f50 9B44     		add r11, r11, r3
 3133 1f52 AB44     		add r11, r11, r5
 3134 1f54 BB44     		add r11, r11, r7
 3135 1f56 CB44     		add r11, r11, r9
 3136              	
 3137              		@2
 3138 1f58 BDE8FC03 		pop {r2-r9}
 3139 1f5c BCE80300 		ldmia r12!, {r0-r1}
 3140 1f60 8646     		mov lr, r0
 3141 1f62 5FEA1E4E 		lsrs lr, lr, # 16
 3142 1f66 0004     		lsls r0, r0, # 16
 3143 1f68 000C     		lsrs r0, r0, # 16
 3144 1f6a 02FB0EF2 		mul r2, r2, lr
 3145 1f6e 03FB0EF3 		mul r3, r3, lr
 3146 1f72 04FB00F4 		mul r4, r4, r0
 3147 1f76 05FB00F5 		mul r5, r5, r0
 3148 1f7a 8E46     		mov lr, r1
 3149 1f7c 5FEA1E4E 		lsrs lr, lr, # 16
 3150 1f80 0904     		lsls r1, r1, # 16
 3151 1f82 090C     		lsrs r1, r1, # 16
 3152 1f84 06FB0EF6 		mul r6, r6, lr
 3153 1f88 07FB0EF7 		mul r7, r7, lr
 3154 1f8c 08FB01F8 		mul r8, r8, r1
 3155 1f90 09FB01F9 		mul r9, r9, r1
 3156 1f94 5213     		asrs r2, r2, # 13
 3157 1f96 5B13     		asrs r3, r3, # 13
 3158 1f98 6413     		asrs r4, r4, # 13
 3159 1f9a 6D13     		asrs r5, r5, # 13
 3160 1f9c 7613     		asrs r6, r6, # 13
 3161 1f9e 7F13     		asrs r7, r7, # 13
 3162 1fa0 5FEA6838 		asrs r8, r8, # 13
 3163 1fa4 5FEA6939 		asrs r9, r9, # 13
 3164 1fa8 9244     		add r10, r10, r2
 3165 1faa A244     		add r10, r10, r4
 3166 1fac B244     		add r10, r10, r6
 3167 1fae C244     		add r10, r10, r8
 3168 1fb0 9B44     		add r11, r11, r3
 3169 1fb2 AB44     		add r11, r11, r5
 3170 1fb4 BB44     		add r11, r11, r7
 3171 1fb6 CB44     		add r11, r11, r9
 3172              	
 3173              		@3
 3174 1fb8 BDE8FC03 		pop {r2-r9}
 3175 1fbc BCE80300 		ldmia r12!, {r0-r1}
 3176 1fc0 8646     		mov lr, r0
 3177 1fc2 5FEA1E4E 		lsrs lr, lr, # 16
 3178 1fc6 0004     		lsls r0, r0, # 16
 3179 1fc8 000C     		lsrs r0, r0, # 16
 3180 1fca 02FB0EF2 		mul r2, r2, lr
 3181 1fce 03FB0EF3 		mul r3, r3, lr
ARM GAS  1.s 			page 57


 3182 1fd2 04FB00F4 		mul r4, r4, r0
 3183 1fd6 05FB00F5 		mul r5, r5, r0
 3184 1fda 8E46     		mov lr, r1
 3185 1fdc 5FEA1E4E 		lsrs lr, lr, # 16
 3186 1fe0 0904     		lsls r1, r1, # 16
 3187 1fe2 090C     		lsrs r1, r1, # 16
 3188 1fe4 06FB0EF6 		mul r6, r6, lr
 3189 1fe8 07FB0EF7 		mul r7, r7, lr
 3190 1fec 08FB01F8 		mul r8, r8, r1
 3191 1ff0 09FB01F9 		mul r9, r9, r1
 3192 1ff4 5213     		asrs r2, r2, # 13
 3193 1ff6 5B13     		asrs r3, r3, # 13
 3194 1ff8 6413     		asrs r4, r4, # 13
 3195 1ffa 6D13     		asrs r5, r5, # 13
 3196 1ffc 7613     		asrs r6, r6, # 13
 3197 1ffe 7F13     		asrs r7, r7, # 13
 3198 2000 5FEA6838 		asrs r8, r8, # 13
 3199 2004 5FEA6939 		asrs r9, r9, # 13
 3200 2008 9244     		add r10, r10, r2
 3201 200a A244     		add r10, r10, r4
 3202 200c B244     		add r10, r10, r6
 3203 200e C244     		add r10, r10, r8
 3204 2010 9B44     		add r11, r11, r3
 3205 2012 AB44     		add r11, r11, r5
 3206 2014 BB44     		add r11, r11, r7
 3207 2016 CB44     		add r11, r11, r9
 3208              	
 3209              		@4
 3210 2018 BDE8FC03 		pop {r2-r9}
 3211 201c BCE80300 		ldmia r12!, {r0-r1}
 3212 2020 8646     		mov lr, r0
 3213 2022 5FEA1E4E 		lsrs lr, lr, # 16
 3214 2026 0004     		lsls r0, r0, # 16
 3215 2028 000C     		lsrs r0, r0, # 16
 3216 202a 02FB0EF2 		mul r2, r2, lr
 3217 202e 03FB0EF3 		mul r3, r3, lr
 3218 2032 04FB00F4 		mul r4, r4, r0
 3219 2036 05FB00F5 		mul r5, r5, r0
 3220 203a 8E46     		mov lr, r1
 3221 203c 5FEA1E4E 		lsrs lr, lr, # 16
 3222 2040 0904     		lsls r1, r1, # 16
 3223 2042 090C     		lsrs r1, r1, # 16
 3224 2044 06FB0EF6 		mul r6, r6, lr
 3225 2048 07FB0EF7 		mul r7, r7, lr
 3226 204c 08FB01F8 		mul r8, r8, r1
 3227 2050 09FB01F9 		mul r9, r9, r1
 3228 2054 5213     		asrs r2, r2, # 13
 3229 2056 5B13     		asrs r3, r3, # 13
 3230 2058 6413     		asrs r4, r4, # 13
 3231 205a 6D13     		asrs r5, r5, # 13
 3232 205c 7613     		asrs r6, r6, # 13
 3233 205e 7F13     		asrs r7, r7, # 13
 3234 2060 5FEA6838 		asrs r8, r8, # 13
 3235 2064 5FEA6939 		asrs r9, r9, # 13
 3236 2068 9244     		add r10, r10, r2
 3237 206a A244     		add r10, r10, r4
 3238 206c B244     		add r10, r10, r6
ARM GAS  1.s 			page 58


 3239 206e C244     		add r10, r10, r8
 3240 2070 9B44     		add r11, r11, r3
 3241 2072 AB44     		add r11, r11, r5
 3242 2074 BB44     		add r11, r11, r7
 3243 2076 CB44     		add r11, r11, r9
 3244              	
 3245              		@5
 3246 2078 BDE8FC03 		pop {r2-r9}
 3247 207c BCE80300 		ldmia r12!, {r0-r1}
 3248 2080 8646     		mov lr, r0
 3249 2082 5FEA1E4E 		lsrs lr, lr, # 16
 3250 2086 0004     		lsls r0, r0, # 16
 3251 2088 000C     		lsrs r0, r0, # 16
 3252 208a 02FB0EF2 		mul r2, r2, lr
 3253 208e 03FB0EF3 		mul r3, r3, lr
 3254 2092 04FB00F4 		mul r4, r4, r0
 3255 2096 05FB00F5 		mul r5, r5, r0
 3256 209a 8E46     		mov lr, r1
 3257 209c 5FEA1E4E 		lsrs lr, lr, # 16
 3258 20a0 0904     		lsls r1, r1, # 16
 3259 20a2 090C     		lsrs r1, r1, # 16
 3260 20a4 06FB0EF6 		mul r6, r6, lr
 3261 20a8 07FB0EF7 		mul r7, r7, lr
 3262 20ac 08FB01F8 		mul r8, r8, r1
 3263 20b0 09FB01F9 		mul r9, r9, r1
 3264 20b4 5213     		asrs r2, r2, # 13
 3265 20b6 5B13     		asrs r3, r3, # 13
 3266 20b8 6413     		asrs r4, r4, # 13
 3267 20ba 6D13     		asrs r5, r5, # 13
 3268 20bc 7613     		asrs r6, r6, # 13
 3269 20be 7F13     		asrs r7, r7, # 13
 3270 20c0 5FEA6838 		asrs r8, r8, # 13
 3271 20c4 5FEA6939 		asrs r9, r9, # 13
 3272 20c8 9244     		add r10, r10, r2
 3273 20ca A244     		add r10, r10, r4
 3274 20cc B244     		add r10, r10, r6
 3275 20ce C244     		add r10, r10, r8
 3276 20d0 9B44     		add r11, r11, r3
 3277 20d2 AB44     		add r11, r11, r5
 3278 20d4 BB44     		add r11, r11, r7
 3279 20d6 CB44     		add r11, r11, r9
 3280              	
 3281              		@6
 3282 20d8 BDE8FC03 		pop {r2-r9}
 3283 20dc BCE80300 		ldmia r12!, {r0-r1}
 3284 20e0 8646     		mov lr, r0
 3285 20e2 5FEA1E4E 		lsrs lr, lr, # 16
 3286 20e6 0004     		lsls r0, r0, # 16
 3287 20e8 000C     		lsrs r0, r0, # 16
 3288 20ea 02FB0EF2 		mul r2, r2, lr
 3289 20ee 03FB0EF3 		mul r3, r3, lr
 3290 20f2 04FB00F4 		mul r4, r4, r0
 3291 20f6 05FB00F5 		mul r5, r5, r0
 3292 20fa 8E46     		mov lr, r1
 3293 20fc 5FEA1E4E 		lsrs lr, lr, # 16
 3294 2100 0904     		lsls r1, r1, # 16
 3295 2102 090C     		lsrs r1, r1, # 16
ARM GAS  1.s 			page 59


 3296 2104 06FB0EF6 		mul r6, r6, lr
 3297 2108 07FB0EF7 		mul r7, r7, lr
 3298 210c 08FB01F8 		mul r8, r8, r1
 3299 2110 09FB01F9 		mul r9, r9, r1
 3300 2114 5213     		asrs r2, r2, # 13
 3301 2116 5B13     		asrs r3, r3, # 13
 3302 2118 6413     		asrs r4, r4, # 13
 3303 211a 6D13     		asrs r5, r5, # 13
 3304 211c 7613     		asrs r6, r6, # 13
 3305 211e 7F13     		asrs r7, r7, # 13
 3306 2120 5FEA6838 		asrs r8, r8, # 13
 3307 2124 5FEA6939 		asrs r9, r9, # 13
 3308 2128 9244     		add r10, r10, r2
 3309 212a A244     		add r10, r10, r4
 3310 212c B244     		add r10, r10, r6
 3311 212e C244     		add r10, r10, r8
 3312 2130 9B44     		add r11, r11, r3
 3313 2132 AB44     		add r11, r11, r5
 3314 2134 BB44     		add r11, r11, r7
 3315 2136 CB44     		add r11, r11, r9
 3316              	
 3317              		@7
 3318 2138 BDE8FC03 		pop {r2-r9}
 3319 213c BCE80300 		ldmia r12!, {r0-r1}
 3320 2140 8646     		mov lr, r0
 3321 2142 5FEA1E4E 		lsrs lr, lr, # 16
 3322 2146 0004     		lsls r0, r0, # 16
 3323 2148 000C     		lsrs r0, r0, # 16
 3324 214a 02FB0EF2 		mul r2, r2, lr
 3325 214e 03FB0EF3 		mul r3, r3, lr
 3326 2152 04FB00F4 		mul r4, r4, r0
 3327 2156 05FB00F5 		mul r5, r5, r0
 3328 215a 8E46     		mov lr, r1
 3329 215c 5FEA1E4E 		lsrs lr, lr, # 16
 3330 2160 0904     		lsls r1, r1, # 16
 3331 2162 090C     		lsrs r1, r1, # 16
 3332 2164 06FB0EF6 		mul r6, r6, lr
 3333 2168 07FB0EF7 		mul r7, r7, lr
 3334 216c 08FB01F8 		mul r8, r8, r1
 3335 2170 09FB01F9 		mul r9, r9, r1
 3336 2174 5213     		asrs r2, r2, # 13
 3337 2176 5B13     		asrs r3, r3, # 13
 3338 2178 6413     		asrs r4, r4, # 13
 3339 217a 6D13     		asrs r5, r5, # 13
 3340 217c 7613     		asrs r6, r6, # 13
 3341 217e 7F13     		asrs r7, r7, # 13
 3342 2180 5FEA6838 		asrs r8, r8, # 13
 3343 2184 5FEA6939 		asrs r9, r9, # 13
 3344 2188 9244     		add r10, r10, r2
 3345 218a A244     		add r10, r10, r4
 3346 218c B244     		add r10, r10, r6
 3347 218e C244     		add r10, r10, r8
 3348 2190 9B44     		add r11, r11, r3
 3349 2192 AB44     		add r11, r11, r5
 3350 2194 BB44     		add r11, r11, r7
 3351 2196 CB44     		add r11, r11, r9
 3352              	
ARM GAS  1.s 			page 60


 3353              		@8
 3354 2198 BDE8FC03 		pop {r2-r9}
 3355 219c BCE80300 		ldmia r12!, {r0-r1}
 3356 21a0 8646     		mov lr, r0
 3357 21a2 5FEA1E4E 		lsrs lr, lr, # 16
 3358 21a6 0004     		lsls r0, r0, # 16
 3359 21a8 000C     		lsrs r0, r0, # 16
 3360 21aa 02FB0EF2 		mul r2, r2, lr
 3361 21ae 03FB0EF3 		mul r3, r3, lr
 3362 21b2 04FB00F4 		mul r4, r4, r0
 3363 21b6 05FB00F5 		mul r5, r5, r0
 3364 21ba 8E46     		mov lr, r1
 3365 21bc 5FEA1E4E 		lsrs lr, lr, # 16
 3366 21c0 0904     		lsls r1, r1, # 16
 3367 21c2 090C     		lsrs r1, r1, # 16
 3368 21c4 06FB0EF6 		mul r6, r6, lr
 3369 21c8 07FB0EF7 		mul r7, r7, lr
 3370 21cc 08FB01F8 		mul r8, r8, r1
 3371 21d0 09FB01F9 		mul r9, r9, r1
 3372 21d4 5213     		asrs r2, r2, # 13
 3373 21d6 5B13     		asrs r3, r3, # 13
 3374 21d8 6413     		asrs r4, r4, # 13
 3375 21da 6D13     		asrs r5, r5, # 13
 3376 21dc 7613     		asrs r6, r6, # 13
 3377 21de 7F13     		asrs r7, r7, # 13
 3378 21e0 5FEA6838 		asrs r8, r8, # 13
 3379 21e4 5FEA6939 		asrs r9, r9, # 13
 3380 21e8 9244     		add r10, r10, r2
 3381 21ea A244     		add r10, r10, r4
 3382 21ec B244     		add r10, r10, r6
 3383 21ee C244     		add r10, r10, r8
 3384 21f0 9B44     		add r11, r11, r3
 3385 21f2 AB44     		add r11, r11, r5
 3386 21f4 BB44     		add r11, r11, r7
 3387 21f6 CB44     		add r11, r11, r9
 3388              	
 3389              		@9
 3390 21f8 BDE8FC03 		pop {r2-r9}
 3391 21fc BCE80300 		ldmia r12!, {r0-r1}
 3392 2200 8646     		mov lr, r0
 3393 2202 5FEA1E4E 		lsrs lr, lr, # 16
 3394 2206 0004     		lsls r0, r0, # 16
 3395 2208 000C     		lsrs r0, r0, # 16
 3396 220a 02FB0EF2 		mul r2, r2, lr
 3397 220e 03FB0EF3 		mul r3, r3, lr
 3398 2212 04FB00F4 		mul r4, r4, r0
 3399 2216 05FB00F5 		mul r5, r5, r0
 3400 221a 8E46     		mov lr, r1
 3401 221c 5FEA1E4E 		lsrs lr, lr, # 16
 3402 2220 0904     		lsls r1, r1, # 16
 3403 2222 090C     		lsrs r1, r1, # 16
 3404 2224 06FB0EF6 		mul r6, r6, lr
 3405 2228 07FB0EF7 		mul r7, r7, lr
 3406 222c 08FB01F8 		mul r8, r8, r1
 3407 2230 09FB01F9 		mul r9, r9, r1
 3408 2234 5213     		asrs r2, r2, # 13
 3409 2236 5B13     		asrs r3, r3, # 13
ARM GAS  1.s 			page 61


 3410 2238 6413     		asrs r4, r4, # 13
 3411 223a 6D13     		asrs r5, r5, # 13
 3412 223c 7613     		asrs r6, r6, # 13
 3413 223e 7F13     		asrs r7, r7, # 13
 3414 2240 5FEA6838 		asrs r8, r8, # 13
 3415 2244 5FEA6939 		asrs r9, r9, # 13
 3416 2248 9244     		add r10, r10, r2
 3417 224a A244     		add r10, r10, r4
 3418 224c B244     		add r10, r10, r6
 3419 224e C244     		add r10, r10, r8
 3420 2250 9B44     		add r11, r11, r3
 3421 2252 AB44     		add r11, r11, r5
 3422 2254 BB44     		add r11, r11, r7
 3423 2256 CB44     		add r11, r11, r9
 3424              	
 3425              		@10
 3426 2258 BDE8FC03 		pop {r2-r9}
 3427 225c BCE80300 		ldmia r12!, {r0-r1}
 3428 2260 8646     		mov lr, r0
 3429 2262 5FEA1E4E 		lsrs lr, lr, # 16
 3430 2266 0004     		lsls r0, r0, # 16
 3431 2268 000C     		lsrs r0, r0, # 16
 3432 226a 02FB0EF2 		mul r2, r2, lr
 3433 226e 03FB0EF3 		mul r3, r3, lr
 3434 2272 04FB00F4 		mul r4, r4, r0
 3435 2276 05FB00F5 		mul r5, r5, r0
 3436 227a 8E46     		mov lr, r1
 3437 227c 5FEA1E4E 		lsrs lr, lr, # 16
 3438 2280 0904     		lsls r1, r1, # 16
 3439 2282 090C     		lsrs r1, r1, # 16
 3440 2284 06FB0EF6 		mul r6, r6, lr
 3441 2288 07FB0EF7 		mul r7, r7, lr
 3442 228c 08FB01F8 		mul r8, r8, r1
 3443 2290 09FB01F9 		mul r9, r9, r1
 3444 2294 5213     		asrs r2, r2, # 13
 3445 2296 5B13     		asrs r3, r3, # 13
 3446 2298 6413     		asrs r4, r4, # 13
 3447 229a 6D13     		asrs r5, r5, # 13
 3448 229c 7613     		asrs r6, r6, # 13
 3449 229e 7F13     		asrs r7, r7, # 13
 3450 22a0 5FEA6838 		asrs r8, r8, # 13
 3451 22a4 5FEA6939 		asrs r9, r9, # 13
 3452 22a8 9244     		add r10, r10, r2
 3453 22aa A244     		add r10, r10, r4
 3454 22ac B244     		add r10, r10, r6
 3455 22ae C244     		add r10, r10, r8
 3456 22b0 9B44     		add r11, r11, r3
 3457 22b2 AB44     		add r11, r11, r5
 3458 22b4 BB44     		add r11, r11, r7
 3459 22b6 CB44     		add r11, r11, r9
 3460              	
 3461              		@11
 3462 22b8 BDE8FC03 		pop {r2-r9}
 3463 22bc BCE80300 		ldmia r12!, {r0-r1}
 3464 22c0 8646     		mov lr, r0
 3465 22c2 5FEA1E4E 		lsrs lr, lr, # 16
 3466 22c6 0004     		lsls r0, r0, # 16
ARM GAS  1.s 			page 62


 3467 22c8 000C     		lsrs r0, r0, # 16
 3468 22ca 02FB0EF2 		mul r2, r2, lr
 3469 22ce 03FB0EF3 		mul r3, r3, lr
 3470 22d2 04FB00F4 		mul r4, r4, r0
 3471 22d6 05FB00F5 		mul r5, r5, r0
 3472 22da 8E46     		mov lr, r1
 3473 22dc 5FEA1E4E 		lsrs lr, lr, # 16
 3474 22e0 0904     		lsls r1, r1, # 16
 3475 22e2 090C     		lsrs r1, r1, # 16
 3476 22e4 06FB0EF6 		mul r6, r6, lr
 3477 22e8 07FB0EF7 		mul r7, r7, lr
 3478 22ec 08FB01F8 		mul r8, r8, r1
 3479 22f0 09FB01F9 		mul r9, r9, r1
 3480 22f4 5213     		asrs r2, r2, # 13
 3481 22f6 5B13     		asrs r3, r3, # 13
 3482 22f8 6413     		asrs r4, r4, # 13
 3483 22fa 6D13     		asrs r5, r5, # 13
 3484 22fc 7613     		asrs r6, r6, # 13
 3485 22fe 7F13     		asrs r7, r7, # 13
 3486 2300 5FEA6838 		asrs r8, r8, # 13
 3487 2304 5FEA6939 		asrs r9, r9, # 13
 3488 2308 9244     		add r10, r10, r2
 3489 230a A244     		add r10, r10, r4
 3490 230c B244     		add r10, r10, r6
 3491 230e C244     		add r10, r10, r8
 3492 2310 9B44     		add r11, r11, r3
 3493 2312 AB44     		add r11, r11, r5
 3494 2314 BB44     		add r11, r11, r7
 3495 2316 CB44     		add r11, r11, r9
 3496              	
 3497              		@12
 3498 2318 BDE8FC03 		pop {r2-r9}
 3499 231c BCE80300 		ldmia r12!, {r0-r1}
 3500 2320 8646     		mov lr, r0
 3501 2322 5FEA1E4E 		lsrs lr, lr, # 16
 3502 2326 0004     		lsls r0, r0, # 16
 3503 2328 000C     		lsrs r0, r0, # 16
 3504 232a 02FB0EF2 		mul r2, r2, lr
 3505 232e 03FB0EF3 		mul r3, r3, lr
 3506 2332 04FB00F4 		mul r4, r4, r0
 3507 2336 05FB00F5 		mul r5, r5, r0
 3508 233a 8E46     		mov lr, r1
 3509 233c 5FEA1E4E 		lsrs lr, lr, # 16
 3510 2340 0904     		lsls r1, r1, # 16
 3511 2342 090C     		lsrs r1, r1, # 16
 3512 2344 06FB0EF6 		mul r6, r6, lr
 3513 2348 07FB0EF7 		mul r7, r7, lr
 3514 234c 08FB01F8 		mul r8, r8, r1
 3515 2350 09FB01F9 		mul r9, r9, r1
 3516 2354 5213     		asrs r2, r2, # 13
 3517 2356 5B13     		asrs r3, r3, # 13
 3518 2358 6413     		asrs r4, r4, # 13
 3519 235a 6D13     		asrs r5, r5, # 13
 3520 235c 7613     		asrs r6, r6, # 13
 3521 235e 7F13     		asrs r7, r7, # 13
 3522 2360 5FEA6838 		asrs r8, r8, # 13
 3523 2364 5FEA6939 		asrs r9, r9, # 13
ARM GAS  1.s 			page 63


 3524 2368 9244     		add r10, r10, r2
 3525 236a A244     		add r10, r10, r4
 3526 236c B244     		add r10, r10, r6
 3527 236e C244     		add r10, r10, r8
 3528 2370 9B44     		add r11, r11, r3
 3529 2372 AB44     		add r11, r11, r5
 3530 2374 BB44     		add r11, r11, r7
 3531 2376 CB44     		add r11, r11, r9
 3532              	
 3533              		@13
 3534 2378 BDE8FC03 		pop {r2-r9}
 3535 237c BCE80300 		ldmia r12!, {r0-r1}
 3536 2380 8646     		mov lr, r0
 3537 2382 5FEA1E4E 		lsrs lr, lr, # 16
 3538 2386 0004     		lsls r0, r0, # 16
 3539 2388 000C     		lsrs r0, r0, # 16
 3540 238a 02FB0EF2 		mul r2, r2, lr
 3541 238e 03FB0EF3 		mul r3, r3, lr
 3542 2392 04FB00F4 		mul r4, r4, r0
 3543 2396 05FB00F5 		mul r5, r5, r0
 3544 239a 8E46     		mov lr, r1
 3545 239c 5FEA1E4E 		lsrs lr, lr, # 16
 3546 23a0 0904     		lsls r1, r1, # 16
 3547 23a2 090C     		lsrs r1, r1, # 16
 3548 23a4 06FB0EF6 		mul r6, r6, lr
 3549 23a8 07FB0EF7 		mul r7, r7, lr
 3550 23ac 08FB01F8 		mul r8, r8, r1
 3551 23b0 09FB01F9 		mul r9, r9, r1
 3552 23b4 5213     		asrs r2, r2, # 13
 3553 23b6 5B13     		asrs r3, r3, # 13
 3554 23b8 6413     		asrs r4, r4, # 13
 3555 23ba 6D13     		asrs r5, r5, # 13
 3556 23bc 7613     		asrs r6, r6, # 13
 3557 23be 7F13     		asrs r7, r7, # 13
 3558 23c0 5FEA6838 		asrs r8, r8, # 13
 3559 23c4 5FEA6939 		asrs r9, r9, # 13
 3560 23c8 9244     		add r10, r10, r2
 3561 23ca A244     		add r10, r10, r4
 3562 23cc B244     		add r10, r10, r6
 3563 23ce C244     		add r10, r10, r8
 3564 23d0 9B44     		add r11, r11, r3
 3565 23d2 AB44     		add r11, r11, r5
 3566 23d4 BB44     		add r11, r11, r7
 3567 23d6 CB44     		add r11, r11, r9
 3568              	
 3569              		@14
 3570 23d8 BDE8FC03 		pop {r2-r9}
 3571 23dc BCE80300 		ldmia r12!, {r0-r1}
 3572 23e0 8646     		mov lr, r0
 3573 23e2 5FEA1E4E 		lsrs lr, lr, # 16
 3574 23e6 0004     		lsls r0, r0, # 16
 3575 23e8 000C     		lsrs r0, r0, # 16
 3576 23ea 02FB0EF2 		mul r2, r2, lr
 3577 23ee 03FB0EF3 		mul r3, r3, lr
 3578 23f2 04FB00F4 		mul r4, r4, r0
 3579 23f6 05FB00F5 		mul r5, r5, r0
 3580 23fa 8E46     		mov lr, r1
ARM GAS  1.s 			page 64


 3581 23fc 5FEA1E4E 		lsrs lr, lr, # 16
 3582 2400 0904     		lsls r1, r1, # 16
 3583 2402 090C     		lsrs r1, r1, # 16
 3584 2404 06FB0EF6 		mul r6, r6, lr
 3585 2408 07FB0EF7 		mul r7, r7, lr
 3586 240c 08FB01F8 		mul r8, r8, r1
 3587 2410 09FB01F9 		mul r9, r9, r1
 3588 2414 5213     		asrs r2, r2, # 13
 3589 2416 5B13     		asrs r3, r3, # 13
 3590 2418 6413     		asrs r4, r4, # 13
 3591 241a 6D13     		asrs r5, r5, # 13
 3592 241c 7613     		asrs r6, r6, # 13
 3593 241e 7F13     		asrs r7, r7, # 13
 3594 2420 5FEA6838 		asrs r8, r8, # 13
 3595 2424 5FEA6939 		asrs r9, r9, # 13
 3596 2428 9244     		add r10, r10, r2
 3597 242a A244     		add r10, r10, r4
 3598 242c B244     		add r10, r10, r6
 3599 242e C244     		add r10, r10, r8
 3600 2430 9B44     		add r11, r11, r3
 3601 2432 AB44     		add r11, r11, r5
 3602 2434 BB44     		add r11, r11, r7
 3603 2436 CB44     		add r11, r11, r9
 3604              	
 3605              		@15
 3606 2438 BDE8FC03 		pop {r2-r9}
 3607 243c BCE80300 		ldmia r12!, {r0-r1}
 3608 2440 8646     		mov lr, r0
 3609 2442 5FEA1E4E 		lsrs lr, lr, # 16
 3610 2446 0004     		lsls r0, r0, # 16
 3611 2448 000C     		lsrs r0, r0, # 16
 3612 244a 02FB0EF2 		mul r2, r2, lr
 3613 244e 03FB0EF3 		mul r3, r3, lr
 3614 2452 04FB00F4 		mul r4, r4, r0
 3615 2456 05FB00F5 		mul r5, r5, r0
 3616 245a 8E46     		mov lr, r1
 3617 245c 5FEA1E4E 		lsrs lr, lr, # 16
 3618 2460 0904     		lsls r1, r1, # 16
 3619 2462 090C     		lsrs r1, r1, # 16
 3620 2464 06FB0EF6 		mul r6, r6, lr
 3621 2468 07FB0EF7 		mul r7, r7, lr
 3622 246c 08FB01F8 		mul r8, r8, r1
 3623 2470 09FB01F9 		mul r9, r9, r1
 3624 2474 5213     		asrs r2, r2, # 13
 3625 2476 5B13     		asrs r3, r3, # 13
 3626 2478 6413     		asrs r4, r4, # 13
 3627 247a 6D13     		asrs r5, r5, # 13
 3628 247c 7613     		asrs r6, r6, # 13
 3629 247e 7F13     		asrs r7, r7, # 13
 3630 2480 5FEA6838 		asrs r8, r8, # 13
 3631 2484 5FEA6939 		asrs r9, r9, # 13
 3632 2488 9244     		add r10, r10, r2
 3633 248a A244     		add r10, r10, r4
 3634 248c B244     		add r10, r10, r6
 3635 248e C244     		add r10, r10, r8
 3636 2490 9B44     		add r11, r11, r3
 3637 2492 AB44     		add r11, r11, r5
ARM GAS  1.s 			page 65


 3638 2494 BB44     		add r11, r11, r7
 3639 2496 CB44     		add r11, r11, r9
 3640              	
 3641 2498 DFF824D0 		ldr sp, = cos_sin
 3642 249c DDF800D0 		ldr sp, [sp]
 3643 24a0 0948     		ldr r0, = dft_shuliang
 3644 24a2 0168     		ldr r1, [r0]
 3645 24a4 0139     		subs r1, r1, # 1
 3646 24a6 0160     		str r1, [r0]
 3647 24a8 0029     		cmp r1, # 0
 3648 24aa 7FF4F5A9 		bne __dft_xunhuan
 3649              		
 3650              		
 3651 24ae 5046     		mov r0, r10
 3652 24b0 5946     		mov r1, r11
 3653 24b2 024A     		ldr r2, = sp_zhizhen
 3654 24b4 D2F800D0 		ldr sp, [r2]
 3655 24b8 BDE8FC9F 		pop {r2-r12,pc}
 3656 24bc FC010020 		.ltorg
 3656      F4010020 
 3656      00020020 
 3656      F8010020 
 3657              	__xie_spi1:
 3658 24cc 30B5     		push {r4-r5,lr}
 3659 24ce E84C     		ldr r4, = 0x40013000
 3660 24d0 00F006F8 		bl __spi_mang
 3661 24d4 2073     		strb r0, [r4,0x0c]
 3662 24d6 40F29F04 		movw r4, # 0x9f
 3663              	__xie_spi1_yanshi:
 3664 24da 013C     		subs r4, r4, # 1
 3665 24dc FDD1     		bne __xie_spi1_yanshi
 3666 24de 30BD     		pop {r4-r5,pc}
 3667              		
 3668              	__spi_mang:
 3669 24e0 A568     		ldr r5, [r4,0x08]
 3670 24e2 2D06     		lsls r5, r5, # 24
 3671 24e4 FCD4     		bmi __spi_mang
 3672 24e6 7047     		bx lr
 3673              	
 3674              	__xie_lcd_ye:
 3675              		@入口R0=数据首地址
 3676 24e8 1EB5     		push {r1-r4,lr}
 3677 24ea B023     		movs r3, # 0xb0
 3678 24ec 013B     		subs r3, r3, # 1
 3679 24ee 0446     		mov r4, r0
 3680              	__ye_jia:
 3681 24f0 E048     		ldr r0, = 0x40023818
 3682 24f2 1021     		movs r1, # 0x10
 3683 24f4 0904     		lsls r1, r1, # 16
 3684 24f6 0160     		str r1, [r0]            @RS=0
 3685 24f8 4FF0FF02 		ldr r2, = 0xff
 3686 24fc 00F01CF8 		bl __lcd_yanshi
 3687 2500 0133     		adds r3, r3, # 1
 3688 2502 B92B     		cmp r3, # 0xb9
 3689 2504 00D1     		bne __xie_ye_dizhi
 3690 2506 1EBD     		pop {r1-r4,pc}
 3691              		@       movs r3, # 0xb0
ARM GAS  1.s 			page 66


 3692              		@       mvns r4, r4
 3693              		@       lsls r4, r4, # 24
 3694              		@       lsrs r4, r4, # 24
 3695              	__xie_ye_dizhi:
 3696 2508 1020     		movs r0, # 0x10
 3697 250a FFF7DFFF 		bl __xie_spi1
 3698 250e 0020     		movs r0, # 0
 3699 2510 FFF7DCFF 		bl __xie_spi1
 3700 2514 1846     		mov r0, r3
 3701 2516 FFF7D9FF 		bl __xie_spi1
 3702              	
 3703 251a D648     		ldr r0, = 0x40023818
 3704 251c 1021     		movs r1, # 0x10
 3705 251e 0160     		str r1, [r0]            @RS=1
 3706 2520 4FF0FF02 		ldr r2, = 0xff
 3707 2524 00F008F8 		bl __lcd_yanshi
 3708              	
 3709 2528 8421     		movs r1, # 132
 3710              	__heng_sao:
 3711 252a 2078     		ldrb r0, [r4]
 3712              		@       mov r0, r4
 3713 252c FFF7CEFF 		bl __xie_spi1
 3714 2530 0134     		adds r4, r4, # 1
 3715 2532 0139     		subs r1, r1, # 1
 3716 2534 F9D1     		bne __heng_sao
 3717 2536 DBE7     		b __ye_jia
 3718              	__lcd_yanshi:
 3719 2538 013A     		subs r2, r2, # 1
 3720 253a FDD1     		bne __lcd_yanshi
 3721 253c 7047     		bx lr
 3722              		
 3723              	__lcd_qingping:
 3724 253e 1FB5     		push {r0-r4,lr}
 3725 2540 B023     		movs r3, # 0xb0
 3726 2542 013B     		subs r3, r3, # 1
 3727 2544 4FF00004 		mov r4, # 0
 3728              	__ye_jia1:
 3729 2548 CA48     		ldr r0, = 0x40023818
 3730 254a 1021     		movs r1, # 0x10
 3731 254c 0904     		lsls r1, r1, # 16
 3732 254e 0160     		str r1, [r0]            @RS=0
 3733 2550 4FF0FF02 		ldr r2, = 0xff
 3734 2554 FFF7F0FF 		bl __lcd_yanshi
 3735 2558 0133     		adds r3, r3, # 1
 3736 255a B92B     		cmp r3, # 0xb9
 3737 255c 00D1     		bne __xie_ye_dizhi1
 3738 255e 1FBD     		pop {r0-r4,pc}
 3739              	__xie_ye_dizhi1:
 3740 2560 1020     		movs r0, # 0x10
 3741 2562 FFF7B3FF 		bl __xie_spi1
 3742 2566 0020     		movs r0, # 0
 3743 2568 FFF7B0FF 		bl __xie_spi1
 3744 256c 1846     		mov r0, r3
 3745 256e FFF7ADFF 		bl __xie_spi1
 3746              	
 3747 2572 C048     		ldr r0, = 0x40023818
 3748 2574 1021     		movs r1, # 0x10
ARM GAS  1.s 			page 67


 3749 2576 0160     		str r1, [r0]            @RS=1
 3750 2578 4FF0FF02 		ldr r2, = 0xff
 3751 257c FFF7DCFF 		bl __lcd_yanshi
 3752 2580 8421     		movs r1, # 132
 3753              	__heng_sao1:
 3754 2582 2046     		mov r0, r4
 3755 2584 FFF7A2FF 		bl __xie_spi1
 3756 2588 0139     		subs r1, r1, # 1
 3757 258a FAD1     		bne __heng_sao1
 3758 258c DCE7     		b __ye_jia1
 3759              	
 3760              		
 3761              	__xie_lcd_weizhi:
 3762              		@入口R0=要写的地址(低8=X，高8=Y=（0-131(r5=高4,R4=低4))
 3763 258e 3EB5     		push {r1-r5,lr}
 3764 2590 0546     		mov r5, r0
 3765 2592 0446     		mov r4, r0
 3766 2594 0006     		lsls r0, r0, # 24
 3767 2596 000E     		lsrs r0, r0, # 24
 3768 2598 2D0B     		lsrs r5, r5, # 12	@高4
 3769 259a 2405     		lsls r4, r4, # 20
 3770 259c 240F     		lsrs r4, r4, # 28
 3771 259e B549     	        ldr r1, = 0x40023818
 3772 25a0 1023     		movs r3, # 0x10
 3773 25a2 1B04     		lsls r3, r3, # 16
 3774 25a4 0B60     		str r3, [r1]            @RS=0
 3775 25a6 4FF0FF02 		ldr r2, = 0xff
 3776 25aa FFF7C5FF 		bl __lcd_yanshi
 3777 25ae B030     		adds r0, r0, # 0xb0     @写页命令0XB0
 3778 25b0 FFF78CFF 		bl __xie_spi1		@写页地址0-8页
 3779              		
 3780 25b4 1020     		movs r0, # 0x10
 3781 25b6 2843     		orrs r0, r0, r5
 3782 25b8 FFF788FF 		bl __xie_spi1
 3783              		
 3784 25bc 2046     		mov r0, r4
 3785 25be FFF785FF 		bl __xie_spi1
 3786 25c2 1023     		movs r3, # 0x10
 3787 25c4 0B60     		str r3, [r1]            @RS=1
 3788 25c6 4FF0FF02 		ldr r2, = 0xff
 3789 25ca FFF7B5FF 		bl __lcd_yanshi
 3790 25ce 3EBD     		pop {r1-r5,pc}
 3791              	
 3792              	
 3793              	__xie_ascii:
 3794 25d0 2DE9E047 		push {r5-r10,lr}
 3795              		@入口r0=ascii地址
 3796              		@r1=写几个字
 3797              		@r2=要写的地址
 3798 25d4 9146     		mov r9, r2
 3799 25d6 0F46     		mov r7, r1
 3800 25d8 4FF00601 		mov r1, # 6
 3801 25dc 0122     		movs r2, # 1
 3802 25de 0546     		mov r5, r0
 3803 25e0 0026     		movs r6, # 0
 3804 25e2 9046     		mov r8, r2
 3805 25e4 08FB01F8 		mul r8, r8, r1
ARM GAS  1.s 			page 68


 3806              	__xie_lcd_dizhi2:
 3807 25e8 4846     		mov r0, r9
 3808 25ea FFF7D0FF 		bl __xie_lcd_weizhi
 3809              	__du_ascii2:
 3810 25ee A85D     		ldrb r0, [r5, r6]
 3811 25f0 2038     		subs r0, r0, # 32
 3812 25f2 4843     		muls r0, r0, r1
 3813 25f4 A04B     		ldr r3, = ascii_biao
 3814 25f6 0344     		add r3, r3, r0
 3815              	__du_ziku_chushihua2:
 3816 25f8 0024     		movs r4, # 0
 3817              	__du_ziku1:
 3818 25fa 185D     		ldrb r0, [r3, r4]
 3819 25fc 1444     		add r4, r4, r2
 3820 25fe 8C42     		cmp r4, r1
 3821 2600 02D8     		bhi __duwan_ziku1
 3822 2602 FFF763FF 		bl __xie_spi1
 3823 2606 F8E7     		b __du_ziku1
 3824              	__duwan_ziku1:
 3825 2608 0136     		adds r6, r6, # 1
 3826 260a BE42     		cmp r6, r7
 3827 260c EFD1     		bne __du_ascii2
 3828 260e BDE8E087 		pop {r5-r10,pc}
 3829              	
 3830              	
 3831              		
 3832              	__xie_alabo:
 3833 2612 2DE9E04F 		push {r5-r11,lr}
 3834              		@入口r0=写几个字
 3835              		@r1=字库单字长度
 3836              		@r2=y宽（几行）
 3837              		@r3=要写的地址
 3838 2616 994D     		ldr r5, = asciibiao
 3839 2618 A446     		mov r12, r4
 3840 261a 9946     		mov r9, r3
 3841 261c 0026     		movs r6, # 0
 3842 261e 3746     		mov r7, r6
 3843 2620 8246     		mov r10, r0
 3844 2622 9346     		mov r11, r2
 3845 2624 9046     		mov r8, r2
 3846 2626 08FB01F8 		mul r8, r8, r1
 3847              	__xie_lcd_dizhi1:
 3848 262a 4846     		mov r0, r9
 3849 262c FFF7AFFF 		bl __xie_lcd_weizhi
 3850              	__du_ascii1:
 3851 2630 A85D     		ldrb r0, [r5, r6]
 3852 2632 4843     		muls r0, r0, r1
 3853 2634 6346     		mov r3, r12
 3854 2636 0344     		add r3, r3, r0
 3855 2638 DB19     		adds r3, r3, r7
 3856              	__du_ziku_chushihua1:
 3857 263a 0024     		movs r4, # 0
 3858              	__du_ziku:
 3859 263c 185D     		ldrb r0, [r3, r4]
 3860 263e 1444     		add r4, r4, r2
 3861 2640 8C42     		cmp r4, r1
 3862 2642 02D8     		bhi __duwan_ziku
ARM GAS  1.s 			page 69


 3863 2644 FFF742FF 		bl __xie_spi1
 3864 2648 F8E7     		b __du_ziku
 3865              	__duwan_ziku:
 3866 264a 0136     		adds r6, r6, # 1
 3867 264c 5645     		cmp r6, r10
 3868 264e EFD1     		bne __du_ascii1
 3869 2650 0026     		movs r6, # 0
 3870 2652 0137     		adds r7, r7, # 1        @字库地址偏移
 3871 2654 19F10109 		adds r9, r9, # 1        @Y偏移
 3872 2658 5F45     		cmp r7, r11
 3873 265a E6D1     		bne __xie_lcd_dizhi1
 3874 265c BDE8E08F 		pop {r5-r11,pc}
 3875              		
 3876              	
 3877              	
 3878              		
 3879              	__xie_lcd_ascii:
 3880 2660 2DE9F05F 		push {r4-r12,lr}
 3881              		@入口r0=写几个字
 3882              		@r1=字库单字长度
 3883              		@r2=y宽（几行）
 3884              		@r3=要写的地址
 3885 2664 854D     		ldr r5, = asciibiao
 3886 2666 9946     		mov r9, r3
 3887 2668 0026     		movs r6, # 0
 3888 266a 3746     		mov r7, r6
 3889 266c B446     		mov r12, r6
 3890 266e 8246     		mov r10, r0
 3891 2670 9346     		mov r11, r2
 3892 2672 9046     		mov r8, r2
 3893 2674 08FB01F8 		mul r8, r8, r1
 3894              	__xie_lcd_dizhi:
 3895 2678 4846     		mov r0, r9
 3896 267a FFF788FF 		bl __xie_lcd_weizhi
 3897              	__du_ascii:
 3898 267e A85D     		ldrb r0, [r5, r6]
 3899 2680 2E28     		cmp r0, # 0x2e
 3900 2682 16D0     		beq __xie_ascii_xiaoshudian
 3901 2684 4843     		muls r0, r0, r1
 3902              		
 3903 2686 7E4B     		ldr r3, = da_a_labo_hack  @da_a_labo_shuzi
 3904 2688 0344     		add r3, r3, r0
 3905 268a DB19     		adds r3, r3, r7
 3906              	__du_ziku_16_chushihua:
 3907 268c 0024     		movs r4, # 0
 3908              	__du_ziku_16:
 3909 268e 185D     		ldrb r0, [r3, r4]
 3910 2690 1444     		add r4, r4, r2
 3911 2692 8C42     		cmp r4, r1
 3912 2694 02D8     		bhi __duwan_16
 3913 2696 FFF719FF 		bl __xie_spi1
 3914 269a F8E7     		b __du_ziku_16
 3915              	__duwan_16:
 3916 269c 0136     		adds r6, r6, # 1
 3917 269e 5645     		cmp r6, r10
 3918 26a0 EDD1     		bne __du_ascii
 3919 26a2 0026     		movs r6, # 0
ARM GAS  1.s 			page 70


 3920 26a4 0137     		adds r7, r7, # 1	@字库地址偏移
 3921 26a6 19F10109 		adds r9, r9, # 1	@Y偏移
 3922 26aa 5F45     		cmp r7, r11	
 3923 26ac E4D1     		bne __xie_lcd_dizhi
 3924 26ae BDE8F09F 		pop {r4-r12,pc}
 3925              	__xie_ascii_xiaoshudian:
 3926 26b2 0CF1010C 		add r12, r12, # 1
 3927 26b6 9445     		cmp r12, r2
 3928 26b8 0CD0     		beq __xie_ru_xiaoshudian
 3929 26ba 0020     		movs r0, # 0
 3930 26bc FFF706FF 		bl __xie_spi1
 3931 26c0 0020     		movs r0, # 0
 3932 26c2 FFF703FF 		bl __xie_spi1
 3933 26c6 0020     	        movs r0, # 0
 3934 26c8 FFF700FF 		bl __xie_spi1
 3935 26cc 0020     		movs r0, # 0
 3936 26ce FFF7FDFE 		bl __xie_spi1
 3937              		
 3938 26d2 E3E7     		b __duwan_16
 3939              	__xie_ru_xiaoshudian:	
 3940 26d4 0020     		movs r0, # 0
 3941 26d6 FFF7F9FE 		bl __xie_spi1
 3942 26da 7020     		movs r0, # 0x70
 3943 26dc FFF7F6FE 		bl __xie_spi1
 3944 26e0 7020     		movs r0, # 0x70
 3945 26e2 FFF7F3FE 		bl __xie_spi1
 3946 26e6 7020     		movs r0, # 0x70
 3947 26e8 FFF7F0FE 	        bl __xie_spi1
 3948 26ec D6E7     		b __duwan_16
 3949              		
 3950              	_zhuanascii:							@ 16进制转ASCII
 3951              		@ R0要转的数据， R1长度，R2结果表首地址, r3=小数点位置
 3952 26ee F0B5     		push {r4-r7,lr}
 3953 26f0 1F46     		mov r7, r3
 3954 26f2 0546     		mov r5, r0
 3955 26f4 0E46     		mov r6, r1
 3956 26f6 0A21     		movs r1, # 10
 3957              	_xunhuanqiuma:
 3958 26f8 B0FBF1F0 		udiv r0, r0, r1
 3959 26fc 0446     		mov r4, r0
 3960 26fe 4C43     		muls r4, r1
 3961 2700 2B1B     		subs r3, r5, r4
 3962              	@	adds r3, r3, # 0x30	@ascii偏移
 3963 2702 0546     		mov r5, r0
 3964 2704 013E     		subs r6, r6, # 1
 3965 2706 08D0     		beq _qiumafanhui
 3966 2708 BE42     		cmp r6, r7
 3967 270a 02D1     		bne _meidaoxiaoshudian
 3968 270c 2E24     		movs r4, # 0x2e		@小数点
 3969 270e 9455     		strb r4, [r2,r6]	@插入小数点
 3970 2710 013E     		subs r6, r6, # 1
 3971              	_meidaoxiaoshudian:
 3972 2712 9355     		strb r3, [r2,r6]
 3973 2714 3600     		movs r6, r6
 3974 2716 EFD1     		bne _xunhuanqiuma
 3975 2718 F0BD     		pop {r4-r7,pc}
 3976              	_qiumafanhui:
ARM GAS  1.s 			page 71


 3977 271a 9355     		strb r3, [r2, r6]
 3978 271c F0BD     		pop {r4-r7,pc}
 3979              	
 3980              	__zhuanascii:	              @ 转ASCII
 3981              		@ R0要转的数据， R1长度，R2结果表首地址, r3=小数点位置
 3982 271e F0B5     		push {r4-r7,lr}
 3983 2720 1F46     		mov r7, r3
 3984 2722 0546     		mov r5, r0
 3985 2724 0E46     		mov r6, r1
 3986 2726 0A21     		movs r1, # 10
 3987              	__xunhuanqiuma:
 3988 2728 B0FBF1F0 		udiv r0, r0, r1
 3989 272c 0446     		mov r4, r0
 3990 272e 4C43     		muls r4, r1
 3991 2730 2B1B     		subs r3, r5, r4
 3992 2732 3033     		adds r3, r3, # 0x30     @ascii偏移
 3993 2734 0546     		mov r5, r0
 3994 2736 013E     		subs r6, r6, # 1
 3995 2738 08D0     		beq __qiumafanhui
 3996 273a BE42     		cmp r6, r7
 3997 273c 02D1     		bne __meidaoxiaoshudian
 3998 273e 2E24     		movs r4, # 0x2e         @小数点
 3999 2740 9455     		strb r4, [r2,r6]        @插入小数点
 4000 2742 013E     		subs r6, r6, # 1
 4001              	__meidaoxiaoshudian:
 4002 2744 9355     		strb r3, [r2,r6]
 4003 2746 3600     		movs r6, r6
 4004 2748 EED1     		bne __xunhuanqiuma
 4005 274a F0BD     		pop {r4-r7,pc}
 4006              	__qiumafanhui:
 4007 274c 9355     		strb r3, [r2, r6]
 4008 274e F0BD     		pop {r4-r7,pc}
 4009              		
 4010              	___suan_atan2:
 4011              		@入口R0=实部，R1=虚部
 4012              		@出口R0=角度
 4013 2750 7CB5     		push {r2-r6,lr}
 4014 2752 4C4E     		ldr r6, = atan_biao
 4015 2754 0022     		movs r2, # 0
 4016 2756 1346     		mov r3, r2
 4017 2758 0000     		movs r0, r0
 4018 275a 05D5     		bpl ___panduan_xubu
 4019 275c 4FF4B402 		ldr r2, = 5898240
 4020 2760 C043     		mvns r0, r0
 4021 2762 C943     		mvns r1, r1
 4022 2764 0130     		adds r0, r0, # 1
 4023 2766 0131     		adds r1, r1, # 1
 4024              	___panduan_xubu:
 4025 2768 0900     		movs r1, r1
 4026 276a 40F1E180 		bpl __suan_atan2_xunhuan
 4027 276e 4FF43402 		ldr r2, = 11796480
 4028              	___suan_atan2_xunhuan:
 4029 2772 0900     		movs r1, r1
 4030 2774 0AD5     		bpl ___atan2_zhengzhuan
 4031 2776 0446     		mov r4, r0	@x
 4032 2778 0D46     		mov r5, r1	@y
 4033 277a 1D41     		asrs r5, r5, r3
ARM GAS  1.s 			page 72


 4034 277c 1C41     		asrs r4, r4, r3
 4035 277e 401B     		subs r0, r0, r5
 4036 2780 0919     		adds r1, r1, r4
 4037 2782 1C46     		mov r4, r3
 4038 2784 A400     		lsls r4, r4, # 2
 4039 2786 3459     		ldr r4, [r6, r4]
 4040 2788 121B     		subs r2, r2, r4
 4041 278a 09E0     		b ___atan2_xuanzhuan
 4042              	___atan2_zhengzhuan:
 4043 278c 0446     		mov r4, r0	@x
 4044 278e 0D46     		mov r5, r1	@y
 4045 2790 1D41     		asrs r5, r5, r3
 4046 2792 1C41     		asrs r4, r4, r3
 4047 2794 4019     		adds r0, r0, r5
 4048 2796 091B     		subs r1, r1, r4
 4049 2798 1C46     		mov r4, r3
 4050 279a A400     		lsls r4, r4, # 2
 4051 279c 3459     		ldr r4, [r6, r4]
 4052 279e 1219     		adds r2, r2, r4
 4053              	___atan2_xuanzhuan:
 4054 27a0 0133     		adds r3, r3, # 1
 4055 27a2 152B     		cmp r3, # 21
 4056 27a4 E5D1     		bne ___suan_atan2_xunhuan
 4057 27a6 0146     		mov r1, r0
 4058 27a8 1046     		mov r0,r2
 4059 27aa 7CBD     		pop {r2-r6,pc}
 4060              	
 4061              	__chengfa:
 4062              		@入R0 乘以 R1
 4063              		@出 R0高32 ， R1低32
 4064              		@0xffffffff*0xffffffff
 4065              		@4        F F F E 0 0 0 1                       @4
 4066              		@3                F F F E 0 0 0 1               @3
 4067              		@2                F F F E 0 0 0 1               @2
 4068              		@1                        F F F E 0 0 0 1       @1
 4069              		@         F F F F F F F E 0 0 0 0 0 0 0 1
 4070 27ac FCB5     		push {r2-r7,lr}
 4071 27ae 0028     		cmp r0, # 0
 4072 27b0 1ED0     		beq __cheng_fa_fan_hui
 4073 27b2 0029     		cmp r1, # 0
 4074 27b4 1CD0     		beq __cheng_fa_fan_hui
 4075              	__ji_suan_cheng_fa:
 4076 27b6 0246     		mov r2, r0
 4077 27b8 0B46     		mov r3, r1
 4078 27ba 000C     		lsrs r0, r0, # 16       @高16
 4079 27bc 1204     		lsls r2, r2, # 16       @ 低16
 4080 27be 120C     		lsrs r2, r2, # 16
 4081 27c0 090C     		lsrs r1, r1, # 16       @高16
 4082 27c2 1B04     		lsls r3, r3, # 16       @低16
 4083 27c4 1B0C     		lsrs r3, r3, # 16
 4084 27c6 1446     		mov r4, r2
 4085 27c8 0546     		mov r5, r0
 4086 27ca 5A43     		muls r2, r2, r3         @1
 4087 27cc 5843     		muls r0, r0, r3         @2
 4088 27ce 4C43     		muls r4, r4, r1         @3
 4089 27d0 4D43     		muls r5, r5, r1         @4
 4090 27d2 0646     		mov r6, r0
ARM GAS  1.s 			page 73


 4091 27d4 2746     		mov r7, r4
 4092 27d6 0004     		lsls r0, r0, # 16       @2低32
 4093 27d8 2404     		lsls r4, r4, # 16       @3低32
 4094 27da 360C     		lsrs r6, r6, # 16       @2高32
 4095 27dc 3F0C     		lsrs r7, r7, # 16       @3高32
 4096 27de 0021     		movs r1, # 0
 4097 27e0 1218     		adds r2, r2, r0         @低32
 4098 27e2 4E41     		adcs r6, r6, r1         @高32
 4099 27e4 1219     		adds r2, r2, r4
 4100 27e6 7E41     		adcs r6, r6, r7
 4101 27e8 7619     		adds r6, r6, r5
 4102 27ea 3046     		mov r0, r6
 4103 27ec 1146     		mov r1, r2
 4104 27ee FCBD     		pop {r2-r7,pc}
 4105              	__cheng_fa_fan_hui:
 4106 27f0 0020     		movs r0, # 0
 4107 27f2 0021     		movs r1, # 0
 4108 27f4 FCBD     		pop {r2-r7,pc}
 4109              	
 4110              	__ji_suan_fu_du:		    @ 计算幅度
 4111              		@ 入r0= 实部，r1= 虚部
 4112              		@ 出r0 = 幅度
 4113              		@ Mag ~=Alpha * max(|I|, |Q|) + Beta * min(|I|, |Q|)
 4114              		@ Alpha * Max + Beta * Min
 4115 27f6 1EB5     		push {r1-r4,lr}
 4116 27f8 0000     		movs r0, r0
 4117 27fa 01D5     		bpl _shibubushifushu
 4118 27fc C043     		mvns r0, r0                             @ 是负数转成正数
 4119 27fe 0130     		adds r0, r0, # 1
 4120              	_shibubushifushu:		                               @ 实部不是负数
 4121 2800 0900     		movs r1, r1
 4122 2802 01D5     		bpl _xububushifushu
 4123 2804 C943     		mvns r1, r1                             @ 是负数转成正数
 4124 2806 0131     		adds r1, r1, # 1
 4125              	_xububushifushu:		                                @ 虚部不是负数
 4126 2808 0028     		cmp r0, # 0
 4127 280a 01D1     		bne _panduanxubushibushi0
 4128 280c 0846     		mov r0, r1
 4129 280e 1EBD     		pop {r1-r4,pc}
 4130              	_panduanxubushibushi0:
 4131 2810 0029     		cmp r1, # 0
 4132 2812 00D1     		bne _jisuanfudu1
 4133 2814 1EBD     		pop {r1-r4,pc}
 4134              	_jisuanfudu1:
 4135 2816 47F65A12 		ldr r2, = 31066		@ Alpha q15 0.948059448969 @
 4136 281a 43F24423 		ldr r3, = 12868		@ Beta q15 0.392699081699
 4137 281e 8142     		cmp r1, r0
 4138 2820 12D8     		bhi _alpha_min_beta_max
 4139              	_alpha_max_beta_min:
 4140 2822 0C46     		mov r4, r1
 4141 2824 1146     		mov r1, r2
 4142 2826 FFF7C1FF 		bl __chengfa
 4143 282a 4004     		lsls r0, r0, # 17
 4144 282c C90B     		lsrs r1, r1, # 15
 4145 282e 0843     		orrs r0, r0, r1
 4146 2830 0246     		mov r2, r0
 4147              	
ARM GAS  1.s 			page 74


 4148 2832 1846     		mov r0, r3
 4149 2834 2146     		mov r1, r4
 4150 2836 FFF7B9FF 		bl __chengfa
 4151 283a 4004     		lsls r0, r0, # 17
 4152 283c C90B     		lsrs r1, r1, # 15
 4153 283e 0143     		orrs r1, r1, r0
 4154 2840 1046     		mov r0, r2
 4155              	
 4156              		@	muls r0, r0, r2
 4157              		@	muls r1, r1, r3
 4158              		@	asrs r0, r0, # 15
 4159              		@	asrs r1, r1, # 15
 4160 2842 4018     		adds r0, r0, r1
 4161 2844 0121     		movs r1, # 1
 4162 2846 1EBD     		pop {r1-r4,pc}
 4163              	_alpha_min_beta_max:
 4164 2848 0C46     		mov r4, r1
 4165 284a 1946     		mov r1, r3
 4166 284c FFF7AEFF 		bl __chengfa
 4167 2850 4004     		lsls r0, r0, # 17
 4168 2852 C90B     		lsrs r1, r1, # 15
 4169 2854 0843     		orrs r0, r0, r1
 4170 2856 0346     		mov r3, r0
 4171              	
 4172 2858 1046     		mov r0, r2
 4173 285a 2146     		mov r1, r4
 4174 285c FFF7A6FF 		bl __chengfa
 4175 2860 4004     		lsls r0, r0, # 17
 4176 2862 C90B     		lsrs r1, r1, # 15
 4177 2864 0143     		orrs r1, r1, r0
 4178 2866 1846     		mov r0, r3
 4179              	
 4180              		@	muls r0, r0, r3
 4181              		@	muls r1, r1, r2
 4182              		@	asrs r0, r0, # 15
 4183              		@	asrs r1, r1, # 15
 4184 2868 4018     		adds r0, r0, r1
 4185 286a 0021     		movs r1, # 0
 4186 286c 1EBD     		pop {r1-r4,pc}
 4187              	
 4188 286e 00000030 		.ltorg
 4188      01401838 
 4188      02400008 
 4188      00000000 
 4188      00201406 
 4189              	__suan_cos_sin:
 4190              		@入口R0=0*32768到360*32768
 4191              		@出口R0=COS，R1=SIN
 4192              		@增益 32768*0.6072529350088812561694
 4193 2888 FCB5     		push {r2-r7,lr}
 4194 288a 44F6BA51 		ldr r1, = 0x4dba
 4195 288e 4FF43412 		ldr r2, = 2949120	@90
 4196 2892 4FF40703 		ldr r3, = 8847360	@270
 4197 2896 1D4F     		ldr r7, = atan_biao
 4198 2898 0025     		movs r5, # 0
 4199 289a 2E46     		mov r6, r5
 4200 289c 9042     		cmp r0, r2
ARM GAS  1.s 			page 75


 4201 289e 01D8     		bhi __dayu_90
 4202 28a0 0024     		movs r4, # 0
 4203 28a2 06E0     		b __suan_cos_sin_xunhuan
 4204              	__dayu_90:
 4205 28a4 9842     		cmp r0, r3
 4206 28a6 02D8     		bhi __dayu_270
 4207 28a8 4FF4B404 		ldr r4, = 5898240	@180
 4208 28ac 01E0     		b __suan_cos_sin_xunhuan
 4209              	__dayu_270:
 4210 28ae 4FF43404 		ldr r4, = 11796480 	@360
 4211              	__suan_cos_sin_xunhuan:
 4212 28b2 2346     		mov r3, r4
 4213 28b4 0246     		mov r2, r0
 4214 28b6 D21A     		subs r2, r2, r3
 4215 28b8 0AD4     		bmi __zhengzhuan
 4216              	__fanzhuan:
 4217 28ba 3346     		mov r3, r6
 4218 28bc 0A46     		mov r2, r1
 4219 28be 2E41     		asrs r6, r6, r5
 4220 28c0 921B     		subs r2, r2, r6	@x
 4221 28c2 2941     		asrs r1, r1, r5
 4222 28c4 2E46     		mov r6, r5
 4223 28c6 B600     		lsls r6, r6, # 2
 4224 28c8 BE59     		ldr r6, [r7, r6]
 4225 28ca 5B18     		adds r3, r3, r1	@y
 4226 28cc A419     		adds r4, r4, r6	@jiaodu
 4227 28ce 09E0     		b __cordic_xuanzhuan
 4228              	__zhengzhuan:
 4229 28d0 3346     		mov r3, r6
 4230 28d2 0A46     		mov r2, r1
 4231 28d4 2E41     		asrs r6, r6, r5
 4232 28d6 9219     		adds r2, r2, r6	@x
 4233 28d8 2941     		asrs r1, r1, r5
 4234 28da 2E46     		mov r6, r5
 4235 28dc B600     		lsls r6, r6, # 2
 4236 28de BE59     		ldr r6, [r7, r6]
 4237 28e0 5B1A     		subs r3, r3, r1	@y
 4238 28e2 A41B     		subs r4, r4, r6	@jiaodu
 4239              	__cordic_xuanzhuan:
 4240 28e4 1146     		mov r1, r2
 4241 28e6 1E46     		mov r6, r3
 4242 28e8 0135     		adds r5, r5, # 1
 4243 28ea 152D     		cmp r5, # 21
 4244 28ec E1D1     		bne __suan_cos_sin_xunhuan
 4245 28ee 4FF43416 		ldr r6, = 2949120	@90
 4246 28f2 4FF40707 		ldr r7, = 8847360      @270
 4247 28f6 B042     		cmp r0, r6
 4248 28f8 05D9     		bls __suan_cos_sin_fanhui
 4249 28fa B842     		cmp r0, r7
 4250 28fc 03D2     		bcs __suan_cos_sin_fanhui
 4251 28fe D243     		mvns r2, r2
 4252 2900 DB43     		mvns r3, r3
 4253 2902 0132     		adds r2, r2, # 1
 4254 2904 0133     		adds r3, r3, # 1
 4255              	__suan_cos_sin_fanhui:
 4256 2906 1946     		mov r1, r3
 4257 2908 1046     		mov r0, r2
ARM GAS  1.s 			page 76


 4258 290a FCBD     		pop {r2-r7,pc}
 4259 290c C0050000 		.ltorg
 4260              	
 4261              	
 4262              		
 4263              	__suan_atan2:
 4264              		@入口R0=实部，R1=虚部
 4265              		@出口R0=角度
 4266 2910 7CB5     		push {r2-r6,lr}
 4267 2912 164E     		ldr r6, = atan_biao
 4268 2914 0022     		movs r2, # 0
 4269 2916 1346     		mov r3, r2
 4270 2918 0000     		movs r0, r0
 4271 291a 05D5     		bpl __panduan_xubu
 4272 291c 4FF4B402 		ldr r2, = 5898240
 4273 2920 C043     		mvns r0, r0
 4274 2922 C943     		mvns r1, r1
 4275 2924 0130     		adds r0, r0, # 1
 4276 2926 0131     		adds r1, r1, # 1
 4277              	__panduan_xubu:
 4278 2928 0900     		movs r1, r1
 4279 292a 01D5     		bpl __suan_atan2_xunhuan
 4280 292c 4FF43402 		ldr r2, = 11796480
 4281              	__suan_atan2_xunhuan:
 4282 2930 0900     		movs r1, r1
 4283 2932 0AD5     		bpl __atan2_zhengzhuan
 4284 2934 0446     		mov r4, r0	@x
 4285 2936 0D46     		mov r5, r1	@y
 4286 2938 1D41     		asrs r5, r5, r3
 4287 293a 1C41     		asrs r4, r4, r3
 4288 293c 401B     		subs r0, r0, r5
 4289 293e 0919     		adds r1, r1, r4
 4290 2940 1C46     		mov r4, r3
 4291 2942 A400     		lsls r4, r4, # 2
 4292 2944 3459     		ldr r4, [r6, r4]
 4293 2946 121B     		subs r2, r2, r4
 4294 2948 09E0     		b __atan2_xuanzhuan
 4295              	__atan2_zhengzhuan:
 4296 294a 0446     		mov r4, r0	@x
 4297 294c 0D46     		mov r5, r1	@y
 4298 294e 1D41     		asrs r5, r5, r3
 4299 2950 1C41     		asrs r4, r4, r3
 4300 2952 4019     		adds r0, r0, r5
 4301 2954 091B     		subs r1, r1, r4
 4302 2956 1C46     		mov r4, r3
 4303 2958 A400     		lsls r4, r4, # 2
 4304 295a 3459     		ldr r4, [r6, r4]
 4305 295c 1219     		adds r2, r2, r4
 4306              	__atan2_xuanzhuan:
 4307 295e 0133     		adds r3, r3, # 1
 4308 2960 152B     		cmp r3, # 21
 4309 2962 E5D1     		bne __suan_atan2_xunhuan
 4310 2964 0146     		mov r1, r0
 4311 2966 1046     		mov r0,r2
 4312 2968 7CBD     		pop {r2-r6,pc}
 4313 296a 0000C005 		.ltorg
 4313      0000
ARM GAS  1.s 			page 77


 4314              		
 4315              	__fushu_chufa:
 4316              		@入口R0=Z1_R, R1=Z1_I,R2=Z2_R,R3=Z2_I
 4317              		@出口R0=Z_R,R1=Z_I
 4318 2970 F0B5     		push {r4-r7,lr}
 4319 2972 0646     		mov r6, r0
 4320 2974 0F46     		mov r7, r1
 4321              		@	lsls r0, r0, # 15
 4322              		@	lsls r1, r1, # 15
 4323 2976 FFF7CBFF 		bl __suan_atan2
 4324 297a 0546     		mov r5, r0
 4325 297c 1046     		mov r0, r2
 4326 297e 1946     		mov r1, r3
 4327              		@	lsls r0, r0, # 15
 4328              		@	lsls r1, r1, # 15
 4329 2980 FFF7C6FF 		bl __suan_atan2
 4330              		@	bkpt # 0
 4331 2984 2946     		mov r1, r5
 4332 2986 081A     		subs r0, r1, r0 @算角度差
 4333 2988 02D5     		bpl __suan_shangxiabi_fudu
 4334 298a 4FF43401 		ldr r1, = 11796480      @360*32768
 4335 298e 4018     		adds r0, r0, r1
 4336              	__suan_shangxiabi_fudu:
 4337 2990 0546     		mov r5, r0      @保存角度差
 4338              		@	bkpt # 1
 4339 2992 1046     		mov r0, r2
 4340 2994 1946     		mov r1, r3
 4341 2996 FFF72EFF 		bl __ji_suan_fu_du
 4342              		@	bkpt # 2
 4343 299a 0246     		mov r2, r0
 4344 299c 3046     		mov r0, r6      @上臂R
 4345 299e 3946     		mov r1, r7      @上臂I
 4346 29a0 FFF729FF 		bl __ji_suan_fu_du
 4347              		@	bkpt # 3
 4348 29a4 0146     		mov r1, r0
 4349 29a6 400C     		lsrs r0, r0, # 17
 4350 29a8 C903     		lsls r1, r1, # 15
 4351 29aa 00F039F8 		bl __chufa64
 4352 29ae 0B46     		mov r3, r1      @Z幅度
 4353              		@	bkpt # 4
 4354 29b0 2846     		mov r0, r5
 4355 29b2 FFF769FF 		bl __suan_cos_sin
 4356              		@	bkpt # 4
 4357 29b6 0C46     		mov r4, r1
 4358 29b8 1946     		mov r1, r3
 4359 29ba 0022     		movs r2, # 0
 4360 29bc 0000     		movs r0, r0
 4361 29be 02D5     		bpl cl1
 4362 29c0 0132     		adds r2, r2, # 1
 4363 29c2 C043     		mvns r0, r0
 4364 29c4 0130     		adds r0, r0, # 1
 4365              	cl1:
 4366 29c6 0900     		movs r1, r1
 4367 29c8 02D5     		bpl cl2
 4368 29ca 0132     		adds r2, r2, # 1
 4369 29cc C943     		mvns r1, r1
 4370 29ce 0131     		adds r1, r1, # 1
ARM GAS  1.s 			page 78


 4371              	cl2:
 4372 29d0 FFF7ECFE 		bl __chengfa
 4373              		@	bkpt # 5
 4374 29d4 4004     		lsls r0, r0, # 17
 4375 29d6 C90B     		lsrs r1, r1, # 15
 4376 29d8 0143     		orrs r1, r1, r0
 4377 29da 012A     		cmp r2, # 1
 4378 29dc 01D1     		bne __suan_xubu
 4379 29de C943     		mvns r1, r1
 4380 29e0 0131     		adds r1, r1, # 1
 4381              	__suan_xubu:
 4382 29e2 2046     		mov r0, r4
 4383 29e4 0C46     		mov r4, r1      @实部
 4384 29e6 1946     		mov r1, r3
 4385 29e8 0022     		movs r2, # 0
 4386 29ea 0000     		movs r0, r0
 4387 29ec 02D5     		bpl cl3
 4388 29ee 0132     		adds r2, r2, # 1
 4389 29f0 C043     		mvns r0, r0
 4390 29f2 0130     		adds r0, r0, # 1
 4391              	cl3:
 4392 29f4 0900     		movs r1, r1
 4393 29f6 02D5     		bpl cl4
 4394 29f8 0132     		adds r2, r2, # 1
 4395 29fa C943     		mvns r1, r1
 4396 29fc 0131     		adds r1, r1, # 1
 4397              	cl4:
 4398 29fe FFF7D5FE 		bl __chengfa
 4399              		@	bkpt #6
 4400 2a02 4004     		lsls r0, r0, # 17
 4401 2a04 C90B     		lsrs r1, r1, # 15
 4402 2a06 0143     		orrs r1, r1, r0
 4403 2a08 012A     		cmp r2, # 1
 4404 2a0a 01D1     		bne cl5
 4405 2a0c C943     		mvns r1, r1
 4406 2a0e 0131     		adds r1, r1, # 1
 4407              	cl5:
 4408 2a10 2046     		mov r0, r4
 4409              		@有问题，ZR是负数输出ZI符号也会有问题
 4410 2a12 0000     		movs r0, r0
 4411 2a14 03D5     		bpl __zr_bushifu
 4412 2a16 C043     		mvns r0, r0
 4413 2a18 C943     		mvns r1, r1
 4414 2a1a 0130     		adds r0, r0, # 1
 4415 2a1c 0131     		adds r1, r1, # 1
 4416              	__zr_bushifu:
 4417 2a1e F0BD     		pop {r4-r7,pc}
 4418              	
 4419              		
 4420              	__chufa64:
 4421              		@64位除32位
 4422              		@ （R0=高32位R1=低32位）除（R2)= （R0高32）（R1低32）
 4423 2a20 F8B5     		push {r3-r7,lr}
 4424 2a22 002A     		cmp r2, # 0
 4425 2a24 1DD0     		beq __chu_fa64_fan_hui0
 4426 2a26 0029     		cmp r1, # 0
 4427 2a28 01D1     		bne __chu_fa64_ji_suan
ARM GAS  1.s 			page 79


 4428 2a2a 0028     		cmp r0, # 0
 4429 2a2c 19D0     		beq __chu_fa64_fan_hui0
 4430              	__chu_fa64_ji_suan:
 4431 2a2e 0024     		movs r4, # 0
 4432 2a30 2746     		mov r7, r4
 4433 2a32 2346     		mov r3, r4
 4434 2a34 2546     		mov r5, r4
 4435 2a36 0126     		movs r6, # 1
 4436 2a38 F607     		lsls r6, r6, # 31
 4437              	__chu_fa64_xun_huan:
 4438 2a3a 4900     		lsls r1, r1, # 1
 4439 2a3c 4041     		adcs r0, r0, r0
 4440 2a3e 6441     		adcs r4, r4, r4
 4441 2a40 9442     		cmp r4, r2
 4442 2a42 02D3     		bcc __chu_fa_yi_wei
 4443 2a44 9B19     		adds r3, r3, r6
 4444 2a46 7D41     		adcs r5, r5, r7
 4445 2a48 A41A     		subs r4, r4, r2
 4446              	__chu_fa_yi_wei:
 4447 2a4a 3600     		movs r6, r6
 4448 2a4c 04D0     		beq __di_yi_wei
 4449 2a4e 7608     		lsrs r6, r6, # 1        @高32位移位
 4450 2a50 F3D1     		bne __chu_fa64_xun_huan
 4451 2a52 0127     		movs r7, # 1
 4452 2a54 FF07     		lsls r7, r7, # 31
 4453 2a56 F0E7     		b __chu_fa64_xun_huan
 4454              	__di_yi_wei:		            @低32位移位
 4455 2a58 7F08     		lsrs r7, r7, # 1
 4456 2a5a EED1     		bne __chu_fa64_xun_huan
 4457 2a5c 1846     		mov r0, r3
 4458 2a5e 2946     		mov r1, r5
 4459 2a60 F8BD     		pop {r3-r7,pc}
 4460              	__chu_fa64_fan_hui0:
 4461 2a62 0020     		movs r0, # 0
 4462 2a64 0021     		movs r1, # 0
 4463 2a66 F8BD     		pop {r3-r7,pc}
 4464              	_nmi_handler:	
 4465              	_hard_fault:	
 4466              	_memory_fault:	
 4467              	_bus_fault:	
 4468              	_usage_fault:
 4469              	aaa:
 4470 2a68 7047     		bx lr
 4471              	__systick_zhongduan:				@syzd
 4472 2a6a 2DE9FF5F 		push {r0-r12,lr}
 4473 2a6e 3048     		ldr r0, = dft_jisuan_yanshi
 4474 2a70 0168     		ldr r1, [r0]
 4475 2a72 0131     		adds r1, r1, # 1
 4476 2a74 0160     		str r1, [r0]
 4477 2a76 0229     		cmp r1, # 2
 4478 2a78 09D0     		beq __suan_dft
 4479              	__kai_dma:
 4480 2a7a 2E48     	        ldr r0, = 0x40020000
 4481 2a7c 0F21     		movs r1, # 0x0f
 4482 2a7e 4160     		str r1, [r0, # 0x04]
 4483 2a80 4FF47A61 		ldr r1, = 4000                  @采样数量       sl
 4484 2a84 C160     		str r1, [r0, # 0x0c]
ARM GAS  1.s 			page 80


 4485 2a86 43F28151 		movw r1, # 0x3581                       @0x3581(单次)，0x35a1(循环)
 4486 2a8a 8160     		str r1, [r0, # 0x08]
 4487              		
 4488              	@	ldr r0, = 0x40020000
 4489              	@	ldr r1, [r0]
 4490              	@	lsls r1, r1, # 30
 4491              	@	bpl __kai_dma
 4492              	@	movw r1, # 6400
 4493              	@	str r1, [r0, # 0x0c]
 4494              	@	movs r1, # 0x0f
 4495              	@	str r1, [r0, # 0x04]
 4496              	@	movw r1, # 0x3581
 4497              	@	str r1, [r0, # 0x08]
 4498 2a8c 49E0     		b __systick_fanhui
 4499              	__suan_dft:
 4500              		@movs r1, # 0
 4501              		@str r1, [r0]
 4502 2a8e 2A48     	        ldr r0, = cos_sin
 4503 2a90 2A49     		ldr r1, = cos_sin_100khz
 4504 2a92 2B4A     		ldr r2, = dft_shuliang
 4505 2a94 0160     		str r1, [r0]
 4506 2a96 3221     		movs r1, # 50
 4507 2a98 1160     		str r1, [r2]
 4508 2a9a FEF7EDFE 		bl __dft_jisuan
 4509 2a9e F6E7     		b __suan_dft
 4510 2aa0 3FE0     		b __systick_fanhui
 4511              	__deng_dma_wan:
 4512 2aa2 2848     		ldr r0, = shangxiabi_qiehuan
 4513 2aa4 0168     		ldr r1, [r0]
 4514 2aa6 0131     		adds r1, r1, # 1
 4515 2aa8 0160     		str r1, [r0]
 4516 2aaa 0229     		cmp r1, # 2
 4517 2aac 1ED0     		beq __qiehuan_xiabi
 4518              		
 4519              	__qiehuan_shangbi:
 4520 2aae 2648     		ldr r0, = 0x40023800
 4521 2ab0 0121     	        movs r1, # 1
 4522 2ab2 0904     		lsls r1, r1, # 16
 4523 2ab4 8161     		str r1, [r0, # 0x18]
 4524              		
 4525 2ab6 2048     		ldr r0, = cos_sin
 4526 2ab8 2049     		ldr r1, = cos_sin_100khz
 4527 2aba 214A     		ldr r2, = dft_shuliang
 4528 2abc 0160     		str r1, [r0]
 4529 2abe 3221     		movs r1, # 50
 4530 2ac0 1160     		str r1, [r2]
 4531 2ac2 FEF7D9FE 		bl __dft_jisuan
 4532 2ac6 C043     		mvns r0, r0
 4533 2ac8 0130     		adds r0, r0, # 1
 4534 2aca C943     		mvns r1, r1
 4535 2acc 0131     		adds r1, r1, # 1
 4536 2ace 0446     		mov r4, r0
 4537 2ad0 1E4A     		ldr r2, = lvboqizhizhen2
 4538 2ad2 1F48     		ldr r0, =lvboqihuanchong2
 4539 2ad4 FDF79CFD 		bl __lv_bo_qi
 4540 2ad8 1E4A     		ldr r2, = xiabi_i
 4541 2ada 1060     		str r0, [r2]
ARM GAS  1.s 			page 81


 4542              	
 4543 2adc 2146     		mov r1, r4
 4544 2ade 1E4A     		ldr r2, = lvboqizhizhen3
 4545 2ae0 1E48     		ldr r0, =lvboqihuanchong3
 4546 2ae2 FDF795FD 		bl __lv_bo_qi
 4547 2ae6 1E4A     		ldr r2, = xiabi_r
 4548 2ae8 1060     		str r0, [r2]
 4549 2aea 1AE0     		b __systick_fanhui
 4550              	__qiehuan_xiabi:
 4551 2aec 0021     		movs r1, # 0
 4552 2aee 0160     		str r1, [r0]
 4553              	
 4554 2af0 1548     	        ldr r0, = 0x40023800
 4555 2af2 0121     		movs r1, # 1
 4556 2af4 8161     		str r1, [r0, # 0x18]
 4557              		
 4558 2af6 1048     		ldr r0, = cos_sin
 4559 2af8 1049     		ldr r1, = cos_sin_100khz
 4560 2afa 114A     		ldr r2, = dft_shuliang
 4561 2afc 0160     		str r1, [r0]
 4562 2afe 3221     		movs r1, # 50
 4563 2b00 1160     		str r1, [r2]
 4564 2b02 FEF7B9FE 		bl __dft_jisuan
 4565 2b06 0446     		mov r4, r0
 4566 2b08 164A     		ldr r2, = lvboqizhizhen
 4567 2b0a 1748     		ldr r0, =lvboqihuanchong
 4568 2b0c FDF780FD 		bl __lv_bo_qi
 4569 2b10 164A     		ldr r2, = shangbi_i
 4570 2b12 1060     		str r0, [r2]
 4571              		
 4572 2b14 2146     		mov r1, r4
 4573 2b16 164A     	        ldr r2, = lvboqizhizhen1
 4574 2b18 1648     		ldr r0, =lvboqihuanchong1
 4575 2b1a FDF779FD 		bl __lv_bo_qi
 4576 2b1e 164A     		ldr r2, = shangbi_r
 4577 2b20 1060     		str r0, [r2]
 4578              	__systick_fanhui:
 4579 2b22 1648     		ldr r0, = 0xe0000d04
 4580 2b24 4FF00071 		ldr r1, = 0x02000000
 4581 2b28 0160     		str r1, [r0]                 @ 清除SYSTICK中断
 4582 2b2a BDE8FF9F 		pop {r0-r12,pc}
 4583              	
 4584              	
 4585              	
 4586              		
 4587 2b2e 0000E001 		.ltorg
 4587      00200000 
 4587      0240F401 
 4587      0020B800 
 4587      0000F801 
 4588              		.section .data
 4589              		.equ STACHINIT,         	0x20004000      @堆栈顶
 4590              		.equ asciibiao,			0x20000000	@ASCII表
 4591              		.equ liangcheng,		0x200001a0
 4592              		.equ z_fudu,			0x200001a4
 4593              		.equ xiabi_rr,			0x200001a8
 4594              		.equ xiabi_ii,			0x200001ac
ARM GAS  1.s 			page 82


 4595              		.equ shangbi_rr,		0x200001b0
 4596              		.equ shangbi_ii,		0x200001b4
 4597              		.equ z_jiao_du,			0x200001b8
 4598              		.equ z_r,			0x200001bc
 4599              		.equ z_i,			0x200001c0
 4600              		.equ shangxiabi_qiehuan,	0x200001c4
 4601              		.equ lvbo_youyi,		0x200001d8
 4602              		.equ lvbo_changdu,		0x200001dc
 4603              		.equ dft_jisuan_yanshi,		0x200001e0
 4604              		.equ xiabi_r,			0x200001e4
 4605              		.equ xiabi_i,			0x200001e8	
 4606              		.equ shangbi_r,			0x200001ec	
 4607              		.equ shangbi_i,			0x200001f0	
 4608              		.equ cos_sin,			0x200001f4	@cos_sin_表
 4609              		.equ dft_shuliang,		0x200001f8	@dft数量
 4610              		.equ sp_zhizhen,		0x200001fc	@堆栈指针
 4611              		.equ dianyabiao,		0x20000200	@电压表
 4612              		.equ lvboqizhizhen,		0x20003400
 4613              		.equ lvboqihuanchong,		0x20003408
 4614              		.equ lvboqizhizhen1,		0x200035a0
 4615              		.equ lvboqihuanchong1,		0x200035a8
 4616              		.equ lvboqizhizhen2,		0x20003740
 4617              		.equ lvboqihuanchong2,		0x20003748
 4618              		.equ lvboqizhizhen3,		0x200038e0
 4619              		.equ lvboqihuanchong3,		0x200038e8
 4620              	yjmwxwx:
 4621 0000 796A6D77 		.ascii "yjmwxwx"
 4621      787778
 4622              	kong:
 4623 0007 20       		.ascii " "
 4624              	fu:
 4625 0008 2D       		.ascii "-"
 4626 0009 00000000 		.align 4
 4626      000000
 4627              	shangbi_liangcheng:
 4628 0010 70306050 		.byte 0x70,0x30,0x60,0x50,0x20,0x10,0x40,0x00
 4628      20104000 
 4629 0018 00000404 		.byte 0x00,0x00,0x04,0x04,0x04,0x08,0x08,0x08
 4629      04080808 
 4630 0020 0C0C0C0C 		.byte 0x0c,0x0c,0x0c,0x0c,0x0c,0x0c,0x0c,0x0c
 4630      0C0C0C0C 
 4631 0028 00000000 		.align 4
 4631      00000000 
 4632              	xiabi_liangcheng:
 4633 0030 00000000 		.byte 0x00,0x00,0x00,0x00,0x00,0x00,0x00,0x00
 4633      00000000 
 4634 0038 40100444 		.byte 0x40,0x10,0x04,0x44,0x14,0x08,0x48,0x18
 4634      14084818 
 4635 0040 0C4C1C2C 		.byte 0x0c,0x4c,0x1c,0x2c,0x5c,0x6c,0x3c,0x7c
 4635      5C6C3C7C 
 4636 0048 00000000 		.align 4
 4636      00000000 
 4637              	zhengxian_10khz:
 4638 0050 808F9FAE 		.byte 128,143,159,174,189,202,215,226,235,243,249,253,255,255,253,249,243,235,226,215,202,189,174,
 4638      BDCAD7E2 
 4638      EBF3F9FD 
 4638      FFFFFDF9 
ARM GAS  1.s 			page 83


 4638      F3EBE2D7 
 4639 0082 00000000 		.align 4
 4639      00000000 
 4639      00000000 
 4639      0000
 4640              	zhengxian_100khz:
 4641 0090 10121417 		.byte 16,18,20,23,25,26,28,29,30,31,31,31,30,29,28,26,25,23,20,18,16,13,11,8,6,5,3,2,1,0,0,0,1,2,3
 4641      191A1C1D 
 4641      1E1F1F1F 
 4641      1E1D1C1A 
 4641      19171412 
 4642              	
 4643              	
 4644              	cos_sin_100khz:
 4645 00b8 00800000 		.int 0x8000,0x0000,0x7E6C,0xFFFFEBFA,0x79BC,0xFFFFD873,0x720C,0xFFFFC5E4,0x678D,0xFFFFB4C4,0x5A82,
 4645      00000000 
 4645      6C7E0000 
 4645      FAEBFFFF 
 4645      BC790000 
 4646 01f8 00800000 		.int 0x8000,0x0000,0x7E6C,0xFFFFEBFA,0x79BC,0xFFFFD873,0x720C,0xFFFFC5E4,0x678D,0xFFFFB4C4,0x5A82,
 4646      00000000 
 4646      6C7E0000 
 4646      FAEBFFFF 
 4646      BC790000 
 4647 0338 00800000 		.int 0x8000,0x0000,0x7E6C,0xFFFFEBFA,0x79BC,0xFFFFD873,0x720C,0xFFFFC5E4,0x678D,0xFFFFB4C4,0x5A82,
 4647      00000000 
 4647      6C7E0000 
 4647      FAEBFFFF 
 4647      BC790000 
 4648 0478 00800000 		.int 0x8000,0x0000,0x7E6C,0xFFFFEBFA,0x79BC,0xFFFFD873,0x720C,0xFFFFC5E4,0x678D,0xFFFFB4C4,0x5A82,
 4648      00000000 
 4648      6C7E0000 
 4648      FAEBFFFF 
 4648      BC790000 
 4649              	
 4650 05b8 00000000 		.align 4
 4650      00000000 
 4651              	atan_biao:		@角度
 4652 05c0 00801600 		.int 0x00168000,0x000D4853,0x000704A3,0x00039000,0x0001C9C5,0x0000E51B,0x00007295,0x0000394B,0x000
 4652      53480D00 
 4652      A3040700 
 4652      00900300 
 4652      C5C90100 
 4653              	da_a_labo_hack: @16*24
 4654 0614 00000080 		.byte 0x00, 0x00, 0x00, 0x80, 0xFF, 0x01, 0xF0, 0xFF, 0x0F, 0xF8, 0xFF, 0x1F, 0x7C, 0x00, 0x3E, 0x
 4654      FF01F0FF 
 4654      0FF8FF1F 
 4654      7C003E1E 
 4654      00780E00 
 4655 0644 00000000 		.byte 0x00, 0x00, 0x00, 0x00, 0x00, 0x00, 0x00, 0x00, 0x00, 0x70, 0x00, 0x70, 0x70, 0x00, 0x70, 0x
 4655      00000000 
 4655      00700070 
 4655      70007070 
 4655      00707800 
 4656 0674 00000000 		.byte 0x00, 0x00, 0x00, 0x00, 0x00, 0x78, 0x1C, 0x00, 0x7C, 0x1C, 0x00, 0x7E, 0x0E, 0x00, 0x77, 0x
 4656      00781C00 
 4656      7C1C007E 
ARM GAS  1.s 			page 84


 4656      0E00770E 
 4656      00770E80 
 4657 06a4 00000000 		.byte 0x00, 0x00, 0x00, 0x00, 0x00, 0x38, 0x1C, 0x00, 0x38, 0x1C, 0x00, 0x70, 0x0E, 0x00, 0x70, 0x
 4657      00381C00 
 4657      381C0070 
 4657      0E00700E 
 4657      00700E1C 
 4658 06d4 00E00100 		.byte 0x00, 0xE0, 0x01, 0x00, 0xF0, 0x01, 0x00, 0xFC, 0x01, 0x00, 0xFE, 0x01, 0x00, 0xDF, 0x01, 0x
 4658      F00100FC 
 4658      0100FE01 
 4658      00DF0180 
 4658      CF01E0C3 
 4659 0704 00000000 		.byte 0x00, 0x00, 0x00, 0x00, 0x00, 0x00, 0x00, 0x00, 0x38, 0xFE, 0x1F, 0x38, 0xFE, 0x0F, 0x70, 0x
 4659      00000000 
 4659      38FE1F38 
 4659      FE0F70FE 
 4659      0F700E0E 
 4660 0734 00000000 		.byte 0x00, 0x00, 0x00, 0x00, 0xFE, 0x03, 0xC0, 0xFF, 0x0F, 0xF0, 0xFF, 0x1F, 0xF8, 0x1C, 0x3E, 0x
 4660      FE03C0FF 
 4660      0FF0FF1F 
 4660      F81C3E3C 
 4660      0C781C0E 
 4661 0764 0000000E 		.byte 0x00, 0x00, 0x00, 0x0E, 0x00, 0x00, 0x0E, 0x00, 0x00, 0x0E, 0x00, 0x40, 0x0E, 0x00, 0x70, 0x
 4661      00000E00 
 4661      000E0040 
 4661      0E00700E 
 4661      007C0E00 
 4662 0794 00000000 		.byte 0x00, 0x00, 0x00, 0x00, 0xC0, 0x07, 0xF0, 0xE1, 0x1F, 0xF8, 0xF3, 0x3F, 0xFC, 0x3F, 0x3C, 0x
 4662      C007F0E1 
 4662      1FF8F33F 
 4662      FC3F3C1E 
 4662      1F780E0E 
 4663 07c4 000000E0 		.byte 0x00, 0x00, 0x00, 0xE0, 0x07, 0x00, 0xF0, 0x1F, 0x00, 0xF8, 0x3F, 0x78, 0x3C, 0x3C, 0x70, 0x
 4663      0700F01F 
 4663      00F83F78 
 4663      3C3C701E 
 4663      78700E70 
 4664 07f4 00000000 		.align 4
 4664      00000000 
 4664      00000000 
 4665              	ascii_biao:	@6*8
 4666 0800 00000000 		.byte 0x00, 0x00, 0x00, 0x00, 0x00, 0x00 @
 4666      0000
 4667 0806 0000004F 		.byte 0x00, 0x00, 0x00, 0x4F, 0x00, 0x00 @ !
 4667      0000
 4668 080c 00000700 		.byte 0x00, 0x00, 0x07, 0x00, 0x07, 0x00 @ "
 4668      0700
 4669 0812 00147F14 		.byte 0x00, 0x14, 0x7F, 0x14, 0x7F, 0x14 @ #
 4669      7F14
 4670 0818 00242A7F 		.byte 0x00, 0x24, 0x2A, 0x7F, 0x2A, 0x12 @ $
 4670      2A12
 4671 081e 00231308 		.byte 0x00, 0x23, 0x13, 0x08, 0x64, 0x62 @ %
 4671      6462
 4672 0824 00364955 		.byte 0x00, 0x36, 0x49, 0x55, 0x22, 0x50 @ &
 4672      2250
 4673 082a 00000503 		.byte 0x00, 0x00, 0x05, 0x03, 0x00, 0x00 @ '
 4673      0000
ARM GAS  1.s 			page 85


 4674 0830 00001C22 		.byte 0x00, 0x00, 0x1C, 0x22, 0x41, 0x00 @ (
 4674      4100
 4675 0836 00004122 		.byte 0x00, 0x00, 0x41, 0x22, 0x1C, 0x00 @ )
 4675      1C00
 4676 083c 0014083E 		.byte 0x00, 0x14, 0x08, 0x3E, 0x08, 0x14 @ *
 4676      0814
 4677 0842 0008083E 		.byte 0x00, 0x08, 0x08, 0x3E, 0x08, 0x08 @ +
 4677      0808
 4678 0848 00005030 		.byte 0x00, 0x00, 0x50, 0x30, 0x00, 0x00 @ ,
 4678      0000
 4679 084e 00080808 		.byte 0x00, 0x08, 0x08, 0x08, 0x08, 0x08 @ -
 4679      0808
 4680 0854 00006060 		.byte 0x00, 0x00, 0x60, 0x60, 0x00, 0x00 @ .
 4680      0000
 4681 085a 00201008 		.byte 0x00, 0x20, 0x10, 0x08, 0x04, 0x02 @ /
 4681      0402
 4682 0860 003E5149 		.byte 0x00, 0x3E, 0x51, 0x49, 0x45, 0x3E @ 0
 4682      453E
 4683 0866 0000427F 		.byte 0x00, 0x00, 0x42, 0x7F, 0x40, 0x00 @ 1
 4683      4000
 4684 086c 00426151 		.byte 0x00, 0x42, 0x61, 0x51, 0x49, 0x46 @ 2
 4684      4946
 4685 0872 00214145 		.byte 0x00, 0x21, 0x41, 0x45, 0x4B, 0x31 @ 3
 4685      4B31
 4686 0878 00181412 		.byte 0x00, 0x18, 0x14, 0x12, 0x7F, 0x10 @ 4
 4686      7F10
 4687 087e 00274545 		.byte 0x00, 0x27, 0x45, 0x45, 0x45, 0x39 @ 5
 4687      4539
 4688 0884 003C4A49 		.byte 0x00, 0x3C, 0x4A, 0x49, 0x49, 0x30 @ 6
 4688      4930
 4689 088a 00010179 		.byte 0x00, 0x01, 0x01, 0x79, 0x05, 0x03 @ 7
 4689      0503
 4690 0890 00364949 		.byte 0x00, 0x36, 0x49, 0x49, 0x49, 0x36 @ 8
 4690      4936
 4691 0896 00064949 		.byte 0x00, 0x06, 0x49, 0x49, 0x29, 0x1E @ 9
 4691      291E
 4692 089c 00003636 		.byte 0x00, 0x00, 0x36, 0x36, 0x00, 0x00 @ :
 4692      0000
 4693 08a2 00005636 		.byte 0x00, 0x00, 0x56, 0x36, 0x00, 0x00 @ ;
 4693      0000
 4694 08a8 00081422 		.byte 0x00, 0x08, 0x14, 0x22, 0x41, 0x00 @ <
 4694      4100
 4695 08ae 00141414 		.byte 0x00, 0x14, 0x14, 0x14, 0x14, 0x14 @ =
 4695      1414
 4696 08b4 00004122 		.byte 0x00, 0x00, 0x41, 0x22, 0x14, 0x08 @ >
 4696      1408
 4697 08ba 02015109 		.byte 0x02, 0x01, 0x51, 0x09, 0x06, 0x00 @ ?
 4697      0600
 4698 08c0 00324979 		.byte 0x00, 0x32, 0x49, 0x79, 0x41, 0x3E @ @
 4698      413E
 4699 08c6 007E1111 		.byte 0x00, 0x7E, 0x11, 0x11, 0x11, 0x7E @ A
 4699      117E
 4700 08cc 00417F49 		.byte 0x00, 0x41, 0x7F, 0x49, 0x49, 0x36 @ B
 4700      4936
 4701 08d2 003E4141 		.byte 0x00, 0x3E, 0x41, 0x41, 0x41, 0x22 @ C
 4701      4122
 4702 08d8 00417F41 		.byte 0x00, 0x41, 0x7F, 0x41, 0x41, 0x3E @ D
ARM GAS  1.s 			page 86


 4702      413E
 4703 08de 007F4949 		.byte 0x00, 0x7F, 0x49, 0x49, 0x49, 0x49 @ E
 4703      4949
 4704 08e4 007F0909 		.byte 0x00, 0x7F, 0x09, 0x09, 0x09, 0x09 @ F
 4704      0909
 4705 08ea 003E4141 		.byte 0x00, 0x3E, 0x41, 0x41, 0x51, 0x72 @ G
 4705      5172
 4706 08f0 007F0808 		.byte 0x00, 0x7F, 0x08, 0x08, 0x08, 0x7F @ H
 4706      087F
 4707 08f6 0000417F 		.byte 0x00, 0x00, 0x41, 0x7F, 0x41, 0x00 @ I
 4707      4100
 4708 08fc 00204041 		.byte 0x00, 0x20, 0x40, 0x41, 0x3F, 0x01 @ J
 4708      3F01
 4709 0902 007F0814 		.byte 0x00, 0x7F, 0x08, 0x14, 0x22, 0x41 @ K
 4709      2241
 4710 0908 007F4040 		.byte 0x00, 0x7F, 0x40, 0x40, 0x40, 0x40 @ L
 4710      4040
 4711 090e 007F020C 		.byte 0x00, 0x7F, 0x02, 0x0C, 0x02, 0x7F @ M
 4711      027F
 4712 0914 817F0608 		.byte 0x81, 0x7F, 0x06, 0x08, 0x30, 0x7F @ N
 4712      307F
 4713 091a 003E4141 		.byte 0x00, 0x3E, 0x41, 0x41, 0x41, 0x3E @ O
 4713      413E
 4714 0920 007F0909 		.byte 0x00, 0x7F, 0x09, 0x09, 0x09, 0x06 @ P
 4714      0906
 4715 0926 003E4151 		.byte 0x00, 0x3E, 0x41, 0x51, 0x21, 0x5E @ Q
 4715      215E
 4716 092c 007F0919 		.byte 0x00, 0x7F, 0x09, 0x19, 0x29, 0x46 @ R
 4716      2946
 4717 0932 00264949 		.byte 0x00, 0x26, 0x49, 0x49, 0x49, 0x32 @ S
 4717      4932
 4718 0938 0001017F 		.byte 0x00, 0x01, 0x01, 0x7F, 0x01, 0x01 @ T
 4718      0101
 4719 093e 003F4040 		.byte 0x00, 0x3F, 0x40, 0x40, 0x40, 0x3F @ U
 4719      403F
 4720 0944 001F2040 		.byte 0x00, 0x1F, 0x20, 0x40, 0x20, 0x1F @ V
 4720      201F
 4721 094a 007F2018 		.byte 0x00, 0x7F, 0x20, 0x18, 0x20, 0x7F @ W
 4721      207F
 4722 0950 00631408 		.byte 0x00, 0x63, 0x14, 0x08, 0x14, 0x63 @ X
 4722      1463
 4723 0956 00070870 		.byte 0x00, 0x07, 0x08, 0x70, 0x08, 0x07 @ Y
 4723      0807
 4724 095c 00615149 		.byte 0x00, 0x61, 0x51, 0x49, 0x45, 0x43 @ Z
 4724      4543
 4725 0962 00007F41 		.byte 0x00, 0x00, 0x7F, 0x41, 0x41, 0x00 @ [
 4725      4100
 4726 0968 00020408 		.byte 0x00, 0x02, 0x04, 0x08, 0x10, 0x20 @ BackSlash
 4726      1020
 4727 096e 00004141 		.byte 0x00, 0x00, 0x41, 0x41, 0x7F, 0x00 @ ]
 4727      7F00
 4728 0974 00040201 		.byte 0x00, 0x04, 0x02, 0x01, 0x02, 0x04 @ ^
 4728      0204
 4729 097a 00404040 		.byte 0x00, 0x40, 0x40, 0x40, 0x40, 0x40 @ _
 4729      4040
 4730 0980 00010204 		.byte 0x00, 0x01, 0x02, 0x04, 0x00, 0x00 @ `
 4730      0000
ARM GAS  1.s 			page 87


 4731 0986 00205454 		.byte 0x00, 0x20, 0x54, 0x54, 0x54, 0x78 @ a
 4731      5478
 4732 098c 007F4844 		.byte 0x00, 0x7F, 0x48, 0x44, 0x44, 0x38 @ b
 4732      4438
 4733 0992 00384444 		.byte 0x00, 0x38, 0x44, 0x44, 0x44, 0x28 @ c
 4733      4428
 4734 0998 00384444 		.byte 0x00, 0x38, 0x44, 0x44, 0x48, 0x7F @ d
 4734      487F
 4735 099e 00385454 		.byte 0x00, 0x38, 0x54, 0x54, 0x54, 0x18 @ e
 4735      5418
 4736 09a4 0000087E 		.byte 0x00, 0x00, 0x08, 0x7E, 0x09, 0x02 @ f
 4736      0902
 4737 09aa 000C5252 		.byte 0x00, 0x0C, 0x52, 0x52, 0x4C, 0x3E @ g
 4737      4C3E
 4738 09b0 007F0804 		.byte 0x00, 0x7F, 0x08, 0x04, 0x04, 0x78 @ h
 4738      0478
 4739 09b6 0000447D 		.byte 0x00, 0x00, 0x44, 0x7D, 0x40, 0x00 @ i
 4739      4000
 4740 09bc 00204044 		.byte 0x00, 0x20, 0x40, 0x44, 0x3D, 0x00 @ j
 4740      3D00
 4741 09c2 00007F10 		.byte 0x00, 0x00, 0x7F, 0x10, 0x28, 0x44 @ k
 4741      2844
 4742 09c8 0000417F 		.byte 0x00, 0x00, 0x41, 0x7F, 0x40, 0x00 @ l
 4742      4000
 4743 09ce 00780478 		.byte 0x00, 0x78, 0x04, 0x78, 0x04, 0x78 @ m
 4743      0478
 4744 09d4 007C0804 		.byte 0x00, 0x7C, 0x08, 0x04, 0x04, 0x78 @ n
 4744      0478
 4745 09da 00387C7C 		.byte 0x00, 0x38, 0x7C, 0x7C, 0x7C, 0x38 @ o
 4745      7C38
 4746 09e0 007E0C12 		.byte 0x00, 0x7E, 0x0C, 0x12, 0x12, 0x0C @ p
 4746      120C
 4747 09e6 000C1212 		.byte 0x00, 0x0C, 0x12, 0x12, 0x0C, 0x7E @ q
 4747      0C7E
 4748 09ec 007C0804 		.byte 0x00, 0x7C, 0x08, 0x04, 0x04, 0x08 @ r
 4748      0408
 4749 09f2 00585454 		.byte 0x00, 0x58, 0x54, 0x54, 0x54, 0x64 @ s
 4749      5464
 4750 09f8 00043F44 		.byte 0x00, 0x04, 0x3F, 0x44, 0x40, 0x20 @ t
 4750      4020
 4751 09fe 003C4040 		.byte 0x00, 0x3C, 0x40, 0x40, 0x3C, 0x40 @ u
 4751      3C40
 4752 0a04 001C2040 		.byte 0x00, 0x1C, 0x20, 0x40, 0x20, 0x1C @ v
 4752      201C
 4753 0a0a 003C4030 		.byte 0x00, 0x3C, 0x40, 0x30, 0x40, 0x3C @ w
 4753      403C
 4754 0a10 00442810 		.byte 0x00, 0x44, 0x28, 0x10, 0x28, 0x44 @ x
 4754      2844
 4755 0a16 001CA0A0 		.byte 0x00, 0x1C, 0xA0, 0xA0, 0x90, 0x7C @ y
 4755      907C
 4756 0a1c 00446454 		.byte 0x00, 0x44, 0x64, 0x54, 0x4C, 0x44 @ z
 4756      4C44
 4757 0a22 00000836 		.byte 0x00, 0x00, 0x08, 0x36, 0x41, 0x00 @ {
 4757      4100
 4758 0a28 00000077 		.byte 0x00, 0x00, 0x00, 0x77, 0x00, 0x00 @ |
 4758      0000
 4759 0a2e 00004136 		.byte 0x00, 0x00, 0x41, 0x36, 0x08, 0x00 @ }
ARM GAS  1.s 			page 88


 4759      0800
 4760 0a34 00020102 		.byte 0x00, 0x02, 0x01, 0x02, 0x04, 0x02 @ ~
 4760      0402
 4761 0a3a 00000000 		.byte 0x00, 0x00, 0x00, 0x00, 0x00, 0x00 @
 4761      0000
 4762              		
 4763              		.align 4
 4764              	
 4765              	danweibiao: @15*24
 4766 0a40 000000FE 		.byte 0x00, 0x00, 0x00, 0xFE, 0xFF, 0x7F, 0xFE, 0xFF, 0x7F, 0xFE, 0xFF, 0x7F, 0x00, 0xC0, 0x00, 0x
 4766      FF7FFEFF 
 4766      7FFEFF7F 
 4766      00C00000 
 4766      80010080 
 4767 0a6d 007F70E0 		.byte 0x00, 0x7F, 0x70, 0xE0, 0xFF, 0x73, 0xF0, 0xFF, 0x77, 0xF8, 0x00, 0x7F, 0x38, 0x00, 0x7C, 0x
 4767      FF73F0FF 
 4767      77F8007F 
 4767      38007C3C 
 4767      00701C00 
 4768 0a9a 000000FE 		.byte 0x00, 0x00, 0x00, 0xFE, 0xFF, 0x7F, 0xFE, 0xFF, 0x7F, 0xFE, 0xFF, 0x7F, 0x0E, 0x1C, 0x00, 0x
 4768      FF7FFEFF 
 4768      7FFEFF7F 
 4768      0E1C000E 
 4768      1C000E1C 
 4769 0ac7 00F87F00 		.byte 0x00, 0xF8, 0x7F, 0x00, 0xFC, 0x7F, 0x00, 0x1E, 0x00, 0x00, 0x0E, 0x00, 0x00, 0x0C, 0x00, 0x
 4769      FC7F001E 
 4769      00000E00 
 4769      000C0000 
 4769      1C0000F8 
 4770 0af4 000000FC 		.byte 0x00, 0x00, 0x00, 0xFC, 0xFF, 0x0F, 0xFC, 0xFF, 0x0F, 0x3C, 0x00, 0x00, 0xF0, 0x01, 0x00, 0x
 4770      FF0FFCFF 
 4770      0F3C0000 
 4770      F0010080 
 4770      0F00003C 
 4771 0b21 00000080 		.byte 0x00, 0x00, 0x00, 0x80, 0xFF, 0x7F, 0x80, 0xFF, 0x7F, 0x80, 0xFF, 0x7F, 0x00, 0x07, 0x00, 0x
 4771      FF7F80FF 
 4771      7F80FF7F 
 4771      00070080 
 4771      0300C001 
 4772 0b4e 000000FE 		.byte 0x00, 0x00, 0x00, 0xFE, 0xFF, 0x7F, 0xFE, 0xFF, 0x7F, 0xFE, 0xFF, 0x7F, 0x1C, 0xE0, 0x00, 0x
 4772      FF7FFEFF 
 4772      7FFEFF7F 
 4772      1CE0000E 
 4772      C0000680 
 4773 0b7b 000000FE 		.byte 0x00, 0x00, 0x00, 0xFE, 0xFF, 0x7F, 0xFE, 0xFF, 0x7F, 0xFE, 0xFF, 0x7F, 0x00, 0x1C, 0x00, 0x
 4773      FF7FFEFF 
 4773      7FFEFF7F 
 4773      001C0000 
 4773      1C00001C 
ARM GAS  1.s 			page 89


DEFINED SYMBOLS
                 1.s:9      .text:0000000000000000 vectors
                            *ABS*:0000000020004000 STACHINIT
                 1.s:80     .text:0000000000000114 _start
                 1.s:4464   .text:0000000000002a68 _nmi_handler
                 1.s:4465   .text:0000000000002a68 _hard_fault
                 1.s:4466   .text:0000000000002a68 _memory_fault
                 1.s:4467   .text:0000000000002a68 _bus_fault
                 1.s:4468   .text:0000000000002a68 _usage_fault
                 1.s:4469   .text:0000000000002a68 aaa
                 1.s:4471   .text:0000000000002a6a __systick_zhongduan
                            .text:0000000000000000 $d
                 1.s:81     .text:0000000000000114 $t
                 1.s:84     .text:000000000000011e __shizhong
                 1.s:91     .text:0000000000000130 __denghse
                 1.s:95     .text:0000000000000136 __dengpllguan
                 1.s:107    .text:000000000000014e __dengpll
                 1.s:111    .text:0000000000000154 __waishe_shizhong
                 1.s:133    .text:0000000000000170 _waishezhongduan
                 1.s:142    .text:0000000000000170 _neicunqingling
                 1.s:146    .text:000000000000017a _neicunqinglingxunhuan
                 1.s:4640   .data:0000000000000090 zhengxian_100khz
                 1.s:156    .text:000000000000018c fuzhi_xunhuan
                 1.s:165    .text:0000000000000196 __io_shezhi
                 1.s:223    .text:00000000000001da __dma_chushihua
                            *ABS*:0000000020000200 dianyabiao
                 1.s:250    .text:000000000000021e __adc_chushihua
                 1.s:255    .text:0000000000000228 __deng_adc_jiaozhun
                 1.s:259    .text:000000000000022e __deng_adc_zhunbeihao
                            *ABS*:00000000200001dc lvbo_changdu
                            *ABS*:00000000200001d8 lvbo_youyi
                 1.s:290    .text:0000000000000250 __tim3chushihua
                 1.s:301    .text:000000000000026a __tim1_chushiha
                 1.s:322    .text:0000000000000294 __spi_chushihua
                 1.s:327    .text:000000000000029e __lcd_chushihua
                 1.s:3718   .text:0000000000002538 __lcd_yanshi
                 1.s:3657   .text:00000000000024cc __xie_spi1
                 1.s:3723   .text:000000000000253e __lcd_qingping
                            *ABS*:00000000200001a0 liangcheng
                 1.s:377    .text:000000000000030a ting
                 1.s:379    .text:000000000000030a __qiehuan_shangbi1
                 1.s:4627   .data:0000000000000010 shangbi_liangcheng
                 1.s:396    .text:0000000000000328 y
                            *ABS*:00000000200001f4 cos_sin
                 1.s:4644   .data:00000000000000b8 cos_sin_100khz
                            *ABS*:00000000200001f8 dft_shuliang
                 1.s:1034   .text:0000000000000924 __dft_jisuan1
                            *ABS*:0000000020003740 lvboqizhizhen2
                            *ABS*:0000000020003748 lvboqihuanchong2
                 1.s:796    .text:0000000000000610 __lv_bo_qi
                            *ABS*:00000000200001f0 shangbi_i
                            *ABS*:00000000200038e0 lvboqizhizhen3
                            *ABS*:00000000200038e8 lvboqihuanchong3
                            *ABS*:00000000200001ec shangbi_r
                 1.s:427    .text:0000000000000362 __qiehuan_xiabi1
                 1.s:4632   .data:0000000000000030 xiabi_liangcheng
                 1.s:445    .text:000000000000037e y1
ARM GAS  1.s 			page 90


                            *ABS*:0000000020003400 lvboqizhizhen
                            *ABS*:0000000020003408 lvboqihuanchong
                            *ABS*:00000000200001e8 xiabi_i
                            *ABS*:00000000200035a0 lvboqizhizhen1
                            *ABS*:00000000200035a8 lvboqihuanchong1
                            *ABS*:00000000200001e4 xiabi_r
                 1.s:712    .text:0000000000000578 __jisuan_zukang
                            *ABS*:00000000200001a8 xiabi_rr
                 1.s:698    .text:000000000000055c __jisuan_z_fudu1
                 1.s:685    .text:0000000000000540 __jisuan_z_fudu
                 1.s:502    .text:00000000000003f2 __kuaiman_jiance
                 1.s:532    .text:0000000000000406 __kuaisu
                 1.s:507    .text:00000000000003f8 __mansu
                 1.s:828    .text:0000000000000728 __xianshi_shangxia_bi
                 1.s:622    .text:00000000000004bc __xianshi_zukang
                            *ABS*:00000000200001b0 shangbi_rr
                            *ABS*:00000000200001b4 shangbi_ii
                            *ABS*:00000000200001ac xiabi_ii
                            *ABS*:0000000020000000 asciibiao
                 1.s:3950   .text:00000000000026ee _zhuanascii
                 1.s:3879   .text:0000000000002660 __xie_lcd_ascii
                 1.s:3980   .text:000000000000271e __zhuanascii
                 1.s:3793   .text:00000000000025d0 __xie_ascii
                 1.s:604    .text:000000000000049e __shangbi_kai
                 1.s:587    .text:0000000000000480 __xiabi_kai
                            *ABS*:00000000200001bc z_r
                            *ABS*:00000000200001c0 z_i
                 1.s:636    .text:00000000000004d8 __z_r_shi_fu
                 1.s:630    .text:00000000000004ca __z_r_bushi_fu
                 1.s:4622   .data:0000000000000007 kong
                 1.s:643    .text:00000000000004e8 __xianshi_z_r
                 1.s:4624   .data:0000000000000008 fu
                 1.s:664    .text:0000000000000514 __z_i_shi_fu
                 1.s:658    .text:0000000000000506 __z_i_bushi_fu
                 1.s:671    .text:0000000000000524 __xianshi_z_i
                 1.s:4110   .text:00000000000027f6 __ji_suan_fu_du
                 1.s:4315   .text:0000000000002970 __fushu_chufa
                 1.s:744    .text:00000000000005ae __z_r_cheng_dianzu
                 1.s:4061   .text:00000000000027ac __chengfa
                 1.s:753    .text:00000000000005c0 __z_i_jiance
                 1.s:763    .text:00000000000005d2 __z_i_cheng_dianzu
                 1.s:772    .text:00000000000005e4 __jisuan_zukang_fanhui
                 1.s:4263   .text:0000000000002910 __suan_atan2
                 1.s:789    .text:000000000000060a __bao
                            *ABS*:00000000200001b8 z_jiao_du
                 1.s:816    .text:0000000000000630 __huanchong_leijia
                 1.s:825    .text:0000000000000640 $d
                 1.s:829    .text:0000000000000728 $t
                 1.s:842    .text:0000000000000746 __shangbi_r_shi_fu
                 1.s:836    .text:0000000000000738 __shangbi_r_bushi_fu
                 1.s:849    .text:0000000000000756 __xianshi_shangbi_r
                 1.s:868    .text:0000000000000780 __shangbi_i_shi_fu
                 1.s:862    .text:0000000000000772 __shangbi_i_bushi_fu
                 1.s:875    .text:0000000000000790 __xianshi_shangbi_i
                 1.s:898    .text:00000000000007c2 __xiabi_r_shi_fu
                 1.s:892    .text:00000000000007b4 __xiabi_r_bushi_fu
                 1.s:905    .text:00000000000007d2 __xianshi_xiabi_r
ARM GAS  1.s 			page 91


                 1.s:924    .text:00000000000007fc __xiabi_i_shi_fu
                 1.s:918    .text:00000000000007ee __xiabi_i_bushi_fu
                 1.s:931    .text:000000000000080c __xianshi_xiabi_i
                 1.s:946    .text:0000000000000828 __ceshi_dft_shijian
                 1.s:2474   .text:0000000000001878 __dft_jisuan
                 1.s:967    .text:000000000000084e __lcd_xianshi_shuju_shiyan
                 1.s:4765   .data:0000000000000a40 danweibiao
                 1.s:3832   .text:0000000000002612 __xie_alabo
                 1.s:4620   .data:0000000000000000 yjmwxwx
                 1.s:1031   .text:00000000000008e8 $d
                 1.s:1036   .text:0000000000000924 $t
                            *ABS*:00000000200001fc sp_zhizhen
                 1.s:1044   .text:0000000000000944 __dft_xunhuan1
                 1.s:2471   .text:0000000000001868 $d
                 1.s:2476   .text:0000000000001878 $t
                 1.s:2484   .text:0000000000001898 __dft_xunhuan
                 1.s:3656   .text:00000000000024bc $d
                 1.s:3658   .text:00000000000024cc $t
                 1.s:3668   .text:00000000000024e0 __spi_mang
                 1.s:3663   .text:00000000000024da __xie_spi1_yanshi
                 1.s:3674   .text:00000000000024e8 __xie_lcd_ye
                 1.s:3680   .text:00000000000024f0 __ye_jia
                 1.s:3695   .text:0000000000002508 __xie_ye_dizhi
                 1.s:3710   .text:000000000000252a __heng_sao
                 1.s:3728   .text:0000000000002548 __ye_jia1
                 1.s:3739   .text:0000000000002560 __xie_ye_dizhi1
                 1.s:3753   .text:0000000000002582 __heng_sao1
                 1.s:3761   .text:000000000000258e __xie_lcd_weizhi
                 1.s:3806   .text:00000000000025e8 __xie_lcd_dizhi2
                 1.s:3809   .text:00000000000025ee __du_ascii2
                 1.s:4665   .data:0000000000000800 ascii_biao
                 1.s:3815   .text:00000000000025f8 __du_ziku_chushihua2
                 1.s:3817   .text:00000000000025fa __du_ziku1
                 1.s:3824   .text:0000000000002608 __duwan_ziku1
                 1.s:3847   .text:000000000000262a __xie_lcd_dizhi1
                 1.s:3850   .text:0000000000002630 __du_ascii1
                 1.s:3856   .text:000000000000263a __du_ziku_chushihua1
                 1.s:3858   .text:000000000000263c __du_ziku
                 1.s:3865   .text:000000000000264a __duwan_ziku
                 1.s:3894   .text:0000000000002678 __xie_lcd_dizhi
                 1.s:3897   .text:000000000000267e __du_ascii
                 1.s:3925   .text:00000000000026b2 __xie_ascii_xiaoshudian
                 1.s:4653   .data:0000000000000614 da_a_labo_hack
                 1.s:3906   .text:000000000000268c __du_ziku_16_chushihua
                 1.s:3908   .text:000000000000268e __du_ziku_16
                 1.s:3915   .text:000000000000269c __duwan_16
                 1.s:3939   .text:00000000000026d4 __xie_ru_xiaoshudian
                 1.s:3957   .text:00000000000026f8 _xunhuanqiuma
                 1.s:3976   .text:000000000000271a _qiumafanhui
                 1.s:3971   .text:0000000000002712 _meidaoxiaoshudian
                 1.s:3987   .text:0000000000002728 __xunhuanqiuma
                 1.s:4006   .text:000000000000274c __qiumafanhui
                 1.s:4001   .text:0000000000002744 __meidaoxiaoshudian
                 1.s:4010   .text:0000000000002750 ___suan_atan2
                 1.s:4651   .data:00000000000005c0 atan_biao
                 1.s:4024   .text:0000000000002768 ___panduan_xubu
                 1.s:4281   .text:0000000000002930 __suan_atan2_xunhuan
ARM GAS  1.s 			page 92


                 1.s:4028   .text:0000000000002772 ___suan_atan2_xunhuan
                 1.s:4042   .text:000000000000278c ___atan2_zhengzhuan
                 1.s:4053   .text:00000000000027a0 ___atan2_xuanzhuan
                 1.s:4105   .text:00000000000027f0 __cheng_fa_fan_hui
                 1.s:4075   .text:00000000000027b6 __ji_suan_cheng_fa
                 1.s:4120   .text:0000000000002800 _shibubushifushu
                 1.s:4125   .text:0000000000002808 _xububushifushu
                 1.s:4130   .text:0000000000002810 _panduanxubushibushi0
                 1.s:4134   .text:0000000000002816 _jisuanfudu1
                 1.s:4163   .text:0000000000002848 _alpha_min_beta_max
                 1.s:4139   .text:0000000000002822 _alpha_max_beta_min
                 1.s:4188   .text:000000000000286e $d
                 1.s:4188   .text:0000000000002870 $d
                 1.s:4189   .text:0000000000002888 __suan_cos_sin
                 1.s:4193   .text:0000000000002888 $t
                 1.s:4204   .text:00000000000028a4 __dayu_90
                 1.s:4211   .text:00000000000028b2 __suan_cos_sin_xunhuan
                 1.s:4209   .text:00000000000028ae __dayu_270
                 1.s:4228   .text:00000000000028d0 __zhengzhuan
                 1.s:4216   .text:00000000000028ba __fanzhuan
                 1.s:4239   .text:00000000000028e4 __cordic_xuanzhuan
                 1.s:4255   .text:0000000000002906 __suan_cos_sin_fanhui
                 1.s:4259   .text:000000000000290c $d
                 1.s:4266   .text:0000000000002910 $t
                 1.s:4277   .text:0000000000002928 __panduan_xubu
                 1.s:4295   .text:000000000000294a __atan2_zhengzhuan
                 1.s:4306   .text:000000000000295e __atan2_xuanzhuan
                 1.s:4313   .text:000000000000296a $d
                 1.s:4313   .text:000000000000296c $d
                 1.s:4318   .text:0000000000002970 $t
                 1.s:4336   .text:0000000000002990 __suan_shangxiabi_fudu
                 1.s:4420   .text:0000000000002a20 __chufa64
                 1.s:4365   .text:00000000000029c6 cl1
                 1.s:4371   .text:00000000000029d0 cl2
                 1.s:4381   .text:00000000000029e2 __suan_xubu
                 1.s:4391   .text:00000000000029f4 cl3
                 1.s:4397   .text:00000000000029fe cl4
                 1.s:4407   .text:0000000000002a10 cl5
                 1.s:4416   .text:0000000000002a1e __zr_bushifu
                 1.s:4460   .text:0000000000002a62 __chu_fa64_fan_hui0
                 1.s:4430   .text:0000000000002a2e __chu_fa64_ji_suan
                 1.s:4437   .text:0000000000002a3a __chu_fa64_xun_huan
                 1.s:4446   .text:0000000000002a4a __chu_fa_yi_wei
                 1.s:4454   .text:0000000000002a58 __di_yi_wei
                            *ABS*:00000000200001e0 dft_jisuan_yanshi
                 1.s:4499   .text:0000000000002a8e __suan_dft
                 1.s:4479   .text:0000000000002a7a __kai_dma
                 1.s:4578   .text:0000000000002b22 __systick_fanhui
                 1.s:4511   .text:0000000000002aa2 __deng_dma_wan
                            *ABS*:00000000200001c4 shangxiabi_qiehuan
                 1.s:4550   .text:0000000000002aec __qiehuan_xiabi
                 1.s:4519   .text:0000000000002aae __qiehuan_shangbi
                 1.s:4587   .text:0000000000002b2e $d
                 1.s:4587   .text:0000000000002b30 $d
                 1.s:4592   *ABS*:00000000200001a4 z_fudu
                 1.s:4626   .data:0000000000000009 $d
                 1.s:4637   .data:0000000000000050 zhengxian_10khz
ARM GAS  1.s 			page 93



NO UNDEFINED SYMBOLS
