ARM GAS  1.s 			page 1


   1              		@单片机：N32G430C8L7
   2              		@功能:电池内阻仪
   3              		@作者：yjmwxwx
   4              		@时间：20230214
   5              		@编译器：arm-none-eabi
   6              		.thumb
   7              		.syntax unified
   8              	.section .text
   9              	vectors:					@向量表
  10 0000 00400020 		.word STACHINIT	
  11 0004 15010000 		.word _start + 1			@复位向量
  12 0008 F92D0000 	        .word _nmi_handler + 1 
  13 000c F92D0000 	        .word _hard_fault + 1 
  14 0010 F92D0000 	        .word _memory_fault + 1 
  15 0014 F92D0000 	        .word _bus_fault + 1
  16 0018 F92D0000 	        .word _usage_fault + 1
  17 001c 00000000 		.word 0
  18 0020 00000000 		.word 0
  19 0024 00000000 		.word 0
  20 0028 00000000 		.word 0
  21 002c F92D0000 		.word aaa +1 @_svc_handler + 1
  22 0030 F92D0000 		.word aaa +1 @_debugmon_handler + 1
  23 0034 00000000 		.word 0
  24 0038 F92D0000 		.word aaa +1 @_pendsv_handler + 1
  25 003c FB2D0000 		.word __systick_zhongduan +1
  26              		@@@@@@@@@@@@@@@@@@@@@@@@@@@@@@@
  27 0040 F92D0000 		.word aaa +1 @0 _wwdg +1
  28 0044 F92D0000 		.word aaa +1 @1 _pvd +1
  29 0048 F92D0000 		.word aaa +1 @2 _rtc_tamper_stamp +1
  30 004c F92D0000 		.word aaa +1 @3 _rtc_wkup +1
  31 0050 F92D0000 		.word aaa +1 @4 _flash +1
  32 0054 F92D0000 		.word aaa +1 @5 _rcc +1
  33 0058 F92D0000 		.word aaa +1 @6 _exti0 +1
  34 005c F92D0000 		.word aaa +1 @7 _exti1 +1
  35 0060 F92D0000 		.word aaa +1 @8 _exti2 +1
  36 0064 F92D0000 		.word aaa +1 @9 _exti3 +1
  37 0068 F92D0000 		.word aaa +1 @10 _exti4 +1
  38 006c F92D0000 		.word aaa +1 @11 _dma_channel1 +1
  39 0070 F92D0000 		.word aaa +1 @12 _dma_channel2 +1
  40 0074 F92D0000 		.word aaa +1 @13 _dma_channel3 +1
  41 0078 F92D0000 		.word aaa +1 @14 _dma_channel4 +1
  42 007c F92D0000 		.word aaa +1 @15 _dma_channel5 +1
  43 0080 F92D0000 		.word aaa +1 @16 _dma_channel6 +1
  44 0084 F92D0000 		.word aaa +1 @17 _dma_channel7 +1
  45 0088 F92D0000 		.word aaa +1 @18 _dma_channel8 +1
  46 008c F92D0000 		.word aaa +1 @19 _adc +1
  47 0090 F92D0000 		.word aaa +1 @20 _mmu +1
  48 0094 F92D0000 		.word aaa +1 @21 _comp_1_2_3 +1
  49 0098 F92D0000 		.word aaa +1 @22 _exti9_5 +1
  50 009c F92D0000 		.word aaa +1 @23 _tim1_brk +1
  51 00a0 F92D0000 		.word aaa +1 @24 _tim1_up +1
  52 00a4 F92D0000 		.word aaa +1 @25 _tim1_trg_com +1
  53 00a8 F92D0000 		.word aaa +1 @26 _tim1_cc +1
  54 00ac F92D0000 		.word aaa +1 @27 _tim2 +1
  55 00b0 F92D0000 		.word aaa +1 @28  _tim3 +1
  56 00b4 F92D0000 		.word aaa +1 @29 _tim4 +1
  57 00b8 F92D0000 		.word aaa +1 @30 _i2c1_ev +1
ARM GAS  1.s 			page 2


  58 00bc F92D0000 		.word aaa +1 @31 _i2c1_er +1
  59 00c0 F92D0000 		.word aaa +1 @32 _i2c2_ev +1
  60 00c4 F92D0000 		.word aaa +1 @33 _i2c2_er +1
  61 00c8 F92D0000 		.word aaa +1 @34 _spi1 +1
  62 00cc F92D0000 		.word aaa +1 @35 _spi2 +1
  63 00d0 F92D0000 		.word aaa +1 @36 _usart1 +1
  64 00d4 F92D0000 		.word aaa +1 @37 _usart2 +1
  65 00d8 F92D0000 		.word aaa +1 @38 _uart3 +1
  66 00dc F92D0000 		.word aaa +1 @39 _exti15_10 +1
  67 00e0 F92D0000 		.word aaa +1 @40 _rtcalarm +1
  68 00e4 F92D0000 		.word aaa +1 @41 _lptim_wkup +1
  69 00e8 F92D0000 		.word aaa +1 @42 _tim8_brk +1
  70 00ec F92D0000 		.word aaa +1 @43 _tim8_up +1
  71 00f0 F92D0000 		.word aaa +1 @44 _tim8_trg +1
  72 00f4 F92D0000 		.word aaa +1 @45 _tim8_cc +1
  73 00f8 F92D0000 		.word aaa +1 @46 _uart4 +1
  74 00fc F92D0000 		.word aaa +1 @47 _tim5 +1
  75 0100 F92D0000 		.word aaa +1 @48 _tim6 +1
  76 0104 F92D0000 		.word aaa +1 @49 _can_tx +1
  77 0108 F92D0000 		.word aaa +1 @50 _can_rx0 +1
  78 010c F92D0000 		.word aaa +1 @51 _can_rx1 +1
  79 0110 F92D0000 		.word aaa +1 @52 _can_sce +1
  80              	_start:
  81              	@	ldr r0, = 0xe000ed88
  82              	@	ldr r1, = 0x00f00000
  83              	@	str r1, [r0]		@开FPU协处理器
  84              	__shizhong:
  85 0114 DFF8E024 		ldr r2, = 0x40022000   @FLASH访问控制
  86 0118 3321     		movs r1, # 0x33
  87 011a 1160     		str r1, [r2]           @FLASH缓冲 缓冲开启
  88 011c DFF8DC04 		ldr r0, = 0x40021000 @ rcc
  89 0120 4FF00111 		ldr r1, = 0x10001
  90 0124 0160     		str r1, [r0]
  91              	__denghse:
  92 0126 0168     		ldr r1, [r0]
  93 0128 8903     		lsls r1, r1, # 14
  94 012a FCD5     		bpl __denghse
  95              	__dengpllguan:
  96 012c 0168     		ldr r1, [r0]
  97 012e 8901     		lsls r1, r1, # 6
  98 0130 FCD4     		bmi __dengpllguan
  99 0132 DFF8CC14 		ldr r1, = 0x390002
 100 0136 0046     		mov r0, r0
 101 0138 4160     		str r1, [r0, # 0x04]
 102 013a 0046     		mov r0, r0
 103 013c DFF8C414 		ldr r1, = 0x1010000
 104 0140 0046     		mov r0, r0
 105 0142 0160     		str r1, [r0]
 106              	
 107              	__dengpll:
 108 0144 0168     		ldr r1, [r0]
 109 0146 8901     		lsls r1, # 6
 110 0148 FCD5     		bpl __dengpll
 111              	__waishe_shizhong:
 112              	@@@@@@@@@@@@@@@@@@@@@@@@@@@@@@@@@@@@@@@@@@@@@@@@@@@@@@@@@@@@@@@@@@@@@@@@@
 113              		@外设时钟
 114              		@rcc_ahbpclken  0x40021014
ARM GAS  1.s 			page 3


 115              		@0=dma,2=sram,4=flitf,6=crc,7=pa,8=pb,9=pc,10=pd,12=adc
 116              		@rcc_apb2pclken 0x40021018
 117              		@0=afio,1=beeper,11=tim1,12=spi1,13=tim8,14=usart1,17=uart3,19=spi2
 118              		@rcc_apb1pclken 0x4002101c
 119              		@0=tim2,1=tim3,2=tim4,3=tim5,4=tim6,6=comp,7=compfilt,11wwdg,
 120              		@17=usart2,21=i2c1,22=i2c2,25=can,28=pwr
 121              	@@@@@@@@@@@@@@@@@@@@@@@@@@@@@@@@@@@@@@@@@@@@@@@@@@@@@@@@@@@@@@@@@@@@@@@@@@
 122 014a 41F29571 		movw r1, # 0x1795
 123 014e 4161     		str r1, [r0, # 0x14]
 124 0150 43F60001 		movw r1, # 0x3800
 125 0154 8161     		str r1, [r0, # 0x18]
 126 0156 0621     		movs r1, # 0x06
 127 0158 C161     		str r1, [r0, # 0x1c]
 128 015a 43F60041 		movw r1, # 0x3c00
 129 015e C162     		str r1, [r0, # 0x2c]	@adc
 130 0160 0121     		movs r1, # 0x01
 131 0162 C0F88010 		str r1, [r0, # 0x80]	@adc
 132              	
 133              	
 134 0166 DFF8A004 		ldr r0, = shezhi_pinlv
 135 016a 0068     		ldr r0, [r0]
 136 016c 0128     		cmp r0, # 1
 137 016e 09D1     		bne _neicunqingling
 138              	_neicunqingling1:
 139 0170 DFF89804 		ldr r0, = 0x20004000
 140 0174 DFF89824 		ldr r2, = 0x20000050
 141 0178 0021     		movs r1, # 0
 142              	_neicunqinglingxunhuan1:
 143 017a 0438     		subs r0, r0, # 4
 144 017c 0160     		str r1, [r0]
 145 017e 9042     		cmp r0, r2
 146 0180 FBD1     		bne _neicunqinglingxunhuan1
 147 0182 08E0     		b _waishezhongduan
 148              	
 149              		
 150              	_neicunqingling:
 151 0184 DFF88404 		ldr r0, = 0x20004000
 152 0188 4FF00052 		ldr r2, = 0x20000000
 153 018c 0021     		movs r1, # 0
 154              	_neicunqinglingxunhuan:
 155 018e 0438     		subs r0, r0, # 4
 156 0190 0160     		str r1, [r0]
 157 0192 9042     		cmp r0, r2
 158 0194 FBD1     		bne _neicunqinglingxunhuan
 159              		
 160              	_waishezhongduan:	                       @外设中断
 161              		@0xE000E100    0-31  写1开，写0没效
 162              		@0XE000E180    0-31 写1关，写0没效
 163              		@0XE000E200    0-31 挂起，写0没效
 164              		@0XE000E280    0-31 清除， 写0没效
 165              		@       ldr r0, =  0xe000e100
 166              		@       ldr r1, = 0x800 @tim4
 167              		@       str r1, [r0]
 168              	
 169              	
 170              	__io_shezhi:
 171              	@@@@@@@@@@@@@@@@@@@@@@@@@@@@@@@@@@@@@@@@@@@@@@@@@@@@@@@@@@@@@@@@@@@@@@@@@@@
ARM GAS  1.s 			page 4


 172              		@   pa=0x40023400,    pb=0x40023800,  pc=0x40023c00,  pd=0x40024000
 173              	        @0x00 端口模式寄存器(GPIOx_PMODE)
 174              		@寄存器复位值
 175              		@pa=0xabffffff  pb= 0xfffffebf  pc= 0xfc000000   pd=0xff000000
 176              		@00=输入模式，01=通用输出模式，10=复用功能模式，11模拟功能模式
 177              		@0x04 端口类型定义寄存器(GPIOx_POTYPE) 复位值0
 178              		@ 0=推挽输出，1=开漏输出
 179              		@0x08 翻转率配置寄存器(GPIOx_SR)
 180              		@复位值，PA=0XFFFF，PB=0XFFFF，PC=0XE000,PD=0XF001
 181              		@0=快速，1=慢速
 182              		@0x0c 端口上下拉寄存器(GPIOx_PUPD)
 183              		@寄存器复位值
 184              		@pa=0x64000000,pb=0x100,pc=0,pd=0x02
 185              		@00=无上拉下拉，01=上拉，10=下拉
 186              		@0x10 端口输入数据寄存器(GPIOx_PID)
 187              		@0x14 端口输出数据寄存器(GPIOx_POD)
 188              		@0x18 GPIO 端口位设置/清除寄存器(GPIOx_PBSC)
 189              		@高16位 pbcy = 1 IO低,  低16位 pbsy = 1 IO高
 190              		@0x1c 端口锁定配置寄存器(GPIOx_PLOCK)
 191              		@高16 PLOCKK=1端口配置锁键位被激活
 192              		@低16 PLOCKY=1锁定端口的配置
 193              		@0x20 复用功能低配置寄存器(GPIOx_AFL)
 194              		@0x24复用功能高配置寄存器(GPIOx_AFH)
 195              		@af0=0000,af1=0001,af2=0010,af3=0011...................
 196              		@0x28 端口位清除寄存器(GPIOx_PBC)
 197              		@pbcy=1 清除对应的 PODy 位为 0
 198              		@0x2c 驱动能力配置寄存器(GPIOx_DS)
 199              		@复位值
 200              		@PA=0X55555555,PB=0X55555555,PC=0X54000000,PD=0X55000001
 201              		@00=2mA,01=8mA,10=4mA,11=12mA
 202              		@@@@@@@@@@@@@@@@@@@@@@@@@@@@@@@@@@@@@@@@@@@@@@@@@@@@@@@@@@@@@@@@@@@@@@@@@@@@@@@@@@
 203              		@PA
 204 0196 DFF87C04 		ldr r0, = 0x40023400
 205 019a DFF87C14 		ldr r1, = 0x69565553
 206 019e 0160     		str r1, [r0]
 207 01a0 41F60061 		movw r1, # 0x1e00
 208 01a4 4160     		str r1, [r0, # 0x04]
 209 01a6 4FF6FF61 		movw r1, # 0xfeff
 210 01aa 8160     		str r1, [r0, # 0x08]
 211 01ac 4FF01051 		ldr r1, = 0x24000000
 212 01b0 C160     		str r1, [r0, # 0x0c]
 213 01b2 4FF00301 		ldr r1, = 0x3
 214 01b6 4162     		str r1, [r0, # 0x24]
 215              	
 216              		
 217              		@PB
 218 01b8 DFF86004 		ldr r0, = 0x40023800
 219 01bc DFF86014 		ldr r1, = 0x51983
 220 01c0 0160     		str r1, [r0]
 221 01c2 4FF24001 		movw r1, # 0xf040
 222 01c6 4160     		str r1, [r0, # 0x04]
 223 01c8 4FF6FF71 		movw r1, # 0xffff
 224 01cc 8160     		str r1, [r0, # 0x08]
 225 01ce 4FF0AA41 		ldr r1, = 0x55000000
 226 01d2 C160     		str r1, [r0, # 0x0c]
 227 01d4 DFF84C14 		ldr r1, = 0x3102000
 228 01d8 0162     		str r1, [r0, # 0x20]
ARM GAS  1.s 			page 5


 229              	
 230 01da DFF84004 		ldr r0, = 0x40023800
 231 01de 40F20011 		movw r1, # 0x100
 232 01e2 8161     		str r1, [r0, # 0x18]
 233              	
 234              		@PD
 235 01e4 DFF84004 		ldr r0, = 0x40024000
 236 01e8 4FF08071 		ldr r1, = 0x1000000
 237 01ec 0160     		str r1, [r0]
 238 01ee 4FF40051 		ldr r1, = 0x2000
 239 01f2 4160     		str r1, [r0, # 0x04]
 240              	__spi_chushihua:
 241 01f4 DFF83404 		ldr r0, = 0x40013000
 242 01f8 44F26C31 		movw r1, # 0x436c
 243 01fc 0160     		str r1, [r0]
 244              	
 245              	__lcd_chushihua:
 246 01fe DFF83004 		ldr r0,  = 0x40023418
 247 0202 48F20001 		movw r1, # 0x8000
 248 0206 0160     		str r1, [r0]            @RST=1
 249 0208 DFF82824 		ldr r2, = 0x1ffff
 250 020c 02F00EFB 		bl __lcd_yanshi
 251              	
 252 0210 0904     		lsls r1, r1, # 16
 253 0212 0160     		str r1, [r0]            @RST=0
 254 0214 DFF81C24 		ldr r2, = 0x1ffff
 255 0218 02F008FB 		bl __lcd_yanshi
 256              	
 257 021c 090C     		lsrs r1, r1, # 16
 258 021e 0160     		str r1, [r0]            @RST=1
 259 0220 DFF81024 		ldr r2, = 0x1ffff
 260 0224 02F002FB 		bl __lcd_yanshi
 261              	
 262 0228 DFF80C04 		ldr r0, = 0x40023818
 263 022c 1021     		movs r1, # 0x10
 264 022e 0904     		lsls r1, r1, # 16
 265 0230 0160     		str r1, [r0]            @RS=0
 266 0232 DFF80024 		ldr r2, = 0x1ffff
 267 0236 02F0F9FA 		bl __lcd_yanshi
 268              	
 269 023a A220     		movs r0, # 0xa2         @ 偏置选择
 270 023c 02F0C0FA 		bl __xie_spi1
 271 0240 A020     		movs r0, # 0xa0         @SEG方向（横 0=0到131，1=131到0）
 272 0242 02F0BDFA 		bl __xie_spi1
 273 0246 C820     		movs r0, # 0xc8         @选择COM方向（竖 0=0到63, 1=63到1）
 274 0248 02F0BAFA 		bl __xie_spi1
 275 024c 2F20     		movs r0, # 0x2f         @选择调节率
 276 024e 02F0B7FA 		bl __xie_spi1
 277 0252 8120     		movs r0, # 0x81         @设置EV命令
 278 0254 02F0B4FA 		bl __xie_spi1
 279 0258 2520     		movs r0, # 0x25         @设置EV（0x00-0x3f 对比度）
 280 025a 02F0B1FA 		bl __xie_spi1
 281 025e 2F20     		movs r0, # 0x2f         @助推器开启
 282 0260 02F0AEFA 		bl __xie_spi1           @调节器开、追踪器开
 283 0264 AF20     		movs r0, # 0xaf         @显示开
 284 0266 02F0ABFA 		bl __xie_spi1
 285              	
ARM GAS  1.s 			page 6


 286              	
 287              	
 288              	
 289 026a 02F0E2FA 		bl __lcd_qingping
 290 026e FFE7     		b __pinlv_dangwei_chushihua
 291              		
 292              	__pinlv_dangwei_chushihua:	@plsz
 293              	@	bl __lcd_qingping
 294              	@	ldr r0, = pinlv
 295              	@	movs r1, # 3
 296              	@	str r1, [r0]
 297 0270 00F026FC 		bl __pinlv_shezhi
 298 0274 F148     		ldr r0, = liangcheng
 299 0276 0321     		movs r1, # 3
 300 0278 0160     		str r1, [r0]
 301              		
 302              	__pinlv_xianshi:
 303 027a F148     		ldr r0, = pinlv
 304 027c F149     		ldr r1, = pinlv_xianshi_biao
 305 027e 0068     		ldr r0, [r0]
 306 0280 8000     		lsls r0, r0, # 2
 307 0282 0858     		ldr r0, [r1, r0]
 308 0284 0621     		movs r1, # 6           @显示几个字符
 309 0286 40F20002 		movw r2, # 0x0000         @LCD位置lcd位置(高8位0-0x83,低8位0-7)
 310 028a 02F01BFB 		bl __xie_ascii
 311              	
 312 028e EE48     		ldr r0, = zidong_dangwei_kaiguan
 313 0290 0168     		ldr r1, [r0]
 314 0292 0129     		cmp r1, # 1
 315 0294 11D0     		beq an_jian
 316 0296 ED48     	        ldr r0, = zidong
 317 0298 0621     		movs r1, # 6           @显示几个字符
 318 029a 42F60102 		movw r2, # 0x2801         @LCD位置lcd位置(高8位0-0x83,低8位0-7)
 319 029e 02F011FB 		bl __xie_ascii
 320              	
 321 02a2 00F053FB 		bl __du_duanlu_biao
 322              	@	bl __lcd_qingping
 323 02a6 EA48     		ldr r0, = 0x800f000
 324 02a8 4FF0FF31 		ldr r1, = 0xffffffff
 325 02ac 0068     		ldr r0, [r0]
 326 02ae 8842     		cmp r0, r1
 327 02b0 03D1     		bne an_jian
 328 02b2 00F03BFB 		bl __huifu_chuchang_shezhi	@恢复出厂设置
 329 02b6 00F055FB 		bl __xie_flash
 330              		
 331              	
 332              	an_jian:
 333              	@	bl __xianshi_shangxia_bi
 334              	@	b __ren_wu_diao_du
 335 02ba E648     		ldr r0, = dangwei_jia_yanshi
 336 02bc 0021     		movs r1, # 0
 337 02be 0160     		str r1, [r0]
 338 02c0 59E2     		b ting
 339              	@	ldr r0, = guanji_yanshi
 340              	@	movs r1, # 0
 341              	@	str r1, [r0]
 342 02c2 4BE2     		b __ren_wu_diao_du
ARM GAS  1.s 			page 7


 343              	an_jian1:
 344 02c4 E44A     		ldr r2, = 500000
 345 02c6 E548     		ldr r0, = guanji_yanshi
 346 02c8 0168     		ldr r1, [r0]
 347 02ca 0131     		adds r1, r1, # 1
 348 02cc 0160     		str r1, [r0]
 349 02ce 9142     		cmp r1, r2
 350 02d0 40F04482 		bne __ren_wu_diao_du
 351 02d4 02F0ADFA 		bl __lcd_qingping
 352              		
 353 02d8 E148     		ldr r0, = yjmwxwx
 354 02da 1021     		movs r1, # 16           @显示几个字符
 355 02dc 40F20002 		movw r2, # 0x0000         @LCD位置lcd位置(高8位0-0x83,低8位0-7)
 356 02e0 02F0F0FA 		bl __xie_ascii
 357 02e4 42F21075 		ldr r5, = 10000
 358              	__guan_ji_yan_shi:
 359 02e8 0621     		movs r1, # 6             @转换几个字符
 360 02ea 2846     		mov r0, r5
 361 02ec DD4A     		ldr r2, = asciibiao
 362 02ee FF23     		movs r3, # 0xff             @小数点位置
 363 02f0 02F08FFB 		bl __zhuanascii
 364 02f4 DB48     		ldr r0, = asciibiao
 365 02f6 0621     		movs r1, # 6           @显示几个字符
 366 02f8 40F20102 		movw r2, # 0x0001         @LCD位置lcd位置(高8位0-0x83,低8位0-7)
 367 02fc 02F0E2FA 		bl __xie_ascii
 368              		
 369 0300 013D     		subs r5, r5, # 1
 370 0302 F1D1     		bne __guan_ji_yan_shi
 371 0304 CC48     		ldr r0, = 0x40023818
 372 0306 40F20011 		movw r1, # 0x100
 373 030a 0904     		lsls r1, r1, # 16
 374 030c 0160     		str r1, [r0]
 375 030e 58BE     		bkpt # 88
 376 0310 24E2     		b __ren_wu_diao_du
 377              	an_jian2:
 378 0312 00F062FB 		bl __pin_lv_jia
 379              	@	movs r0, # 2
 380              	@	bl __an_jian_xianshi
 381 0316 21E2     		b __ren_wu_diao_du
 382              	an_jian3:
 383 0318 0320     		movs r0, # 3
 384 031a 00F012FA 		bl __an_jian_xianshi
 385 031e 1DE2     		b __ren_wu_diao_du
 386              	an_jian4:
 387              		
 388 0320 0420     		movs r0, # 4
 389 0322 00F00EFA 	       bl __an_jian_xianshi
 390              	
 391 0326 19E2     		b __ren_wu_diao_du
 392              	an_jian5:
 393 0328 C748     		ldr r0, = zidong_dangwei_kaiguan
 394 032a C449     		ldr r1, = liangcheng
 395 032c 0122     		movs r2, # 1
 396 032e 0260     		str r2, [r0]
 397 0330 0022     		movs r2, # 0
 398 0332 0A60     		str r2, [r1]
 399 0334 02F07DFA 		bl __lcd_qingping
ARM GAS  1.s 			page 8


 400 0338 CB48     	        ldr r0, = duan_lu
 401 033a 0721     		movs r1, # 7           @显示几个字符
 402 033c 42F60102 		movw r2, # 0x2801         @LCD位置lcd位置(高8位0-0x83,低8位0-7)
 403 0340 02F0C0FA 		bl __xie_ascii
 404 0344 0520     		movs r0, # 5
 405 0346 00F0FCF9 		bl __an_jian_xianshi
 406 034a C848     	        ldr r0, = rs_
 407 034c 0221     		movs r1, # 2           @显示几个字符
 408 034e 40F20302 		movw r2, # 0x0003         @LCD位置lcd位置(高8位0-0x83,低8位0-7)
 409 0352 02F0B7FA 		bl __xie_ascii
 410 0356 C648     		ldr r0, = xs_
 411 0358 0221     		movs r1, # 2           @显示几个字符
 412 035a 40F20602 		movw r2, # 0x0006        @LCD位置lcd位置(高8位0-0x83,低8位0-7)
 413 035e 02F0B1FA 		bl __xie_ascii
 414 0362 B748     		ldr r0, = pinlv
 415 0364 B749     		ldr r1, = pinlv_xianshi_biao
 416 0366 0068     		ldr r0, [r0]
 417 0368 8000     		lsls r0, r0, # 2
 418 036a 0858     		ldr r0, [r1, r0]
 419 036c 0621     		movs r1, # 6           @显示几个字符
 420 036e 40F20002 		movw r2, # 0x0000         @LCD位置lcd位置(高8位0-0x83,低8位0-7)
 421 0372 02F0A7FA 		bl __xie_ascii
 422 0376 BF48     		ldr r0, = 0xfffff
 423              	__qingling_yanshi:
 424 0378 0138     		subs r0, r0, # 1
 425 037a FDD1     		bne __qingling_yanshi
 426              	__qingling_deng_songshou:	
 427 037c 00F0D0FA 		bl __an_jian
 428 0380 0028     		cmp r0, # 0
 429 0382 FBD1     		bne __qingling_deng_songshou
 430              	__duan_lu_qing_ling:
 431 0384 00F01DFE 	        bl __xianshi_adc_jiance
 432 0388 00F0B6FD 		bl __xianshi_zhu_danwei
 433 038c 00F028FE 		bl __xianshi_z_fudu
 434 0390 00F035FE 		bl __xianshi_dangwei
 435 0394 00F0CAFE 		bl __jisuan_zukang
 436 0398 B748     		ldr r0, = z_r
 437 039a B849     		ldr r1, = z_i
 438 039c D0F800B0 		ldr r11, [r0]
 439 03a0 D1F800C0 		ldr r12, [r1]
 440 03a4 0068     		ldr r0, [r0]
 441 03a6 0968     		ldr r1, [r1]
 442 03a8 00F053FE 		bl __xianshi_zukang
 443              	
 444 03ac 00F0B8FA 		bl __an_jian
 445 03b0 0128     		cmp r0, # 1
 446 03b2 2FD1     		bne __tiaoguo_dangwei_jia
 447 03b4 4FF6FF70 		ldr r0, = 0xffff
 448              	__qingling_anjian_xiaodou:
 449 03b8 0138     		subs r0, r0, # 1
 450 03ba FDD1     		bne __qingling_anjian_xiaodou
 451              	__qingling_anjian_deng_songshou:
 452 03bc 00F001FE 	        bl __xianshi_adc_jiance
 453 03c0 00F09AFD 		bl __xianshi_zhu_danwei
 454 03c4 00F00CFE 		bl __xianshi_z_fudu
 455 03c8 00F019FE 		bl __xianshi_dangwei
 456 03cc 00F0AEFE 		bl __jisuan_zukang
ARM GAS  1.s 			page 9


 457 03d0 A948     		ldr r0, = z_r
 458 03d2 AA49     		ldr r1, = z_i
 459 03d4 D0F800B0 		ldr r11, [r0]
 460 03d8 D1F800C0 		ldr r12, [r1]
 461 03dc 0068     		ldr r0, [r0]
 462 03de 0968     		ldr r1, [r1]
 463 03e0 00F037FE 		bl __xianshi_zukang
 464              		
 465              	
 466              		
 467 03e4 00F09CFA 		bl __an_jian
 468 03e8 0028     		cmp r0, # 0
 469 03ea E7D1     		bne __qingling_anjian_deng_songshou
 470              		
 471              	
 472 03ec 934D     		ldr r5, = liangcheng
 473 03ee 2968     		ldr r1, [r5]
 474 03f0 A348     		ldr r0, = khz1_duanlu_qingling_r
 475 03f2 A44A     		ldr r2, = khz1_duanlu_qingling_i
 476 03f4 8E00     		lsls r6, r1, # 2
 477 03f6 8059     		ldr r0, [r0, r6]
 478 03f8 9259     		ldr r2, [r2, r6]
 479              	@	ldr r3, = z_r
 480              	@	ldr r4, = z_i
 481              	@	ldr r3, [r3]
 482              	@	ldr r4, [r4]
 483 03fa C0F800B0 		str r11, [r0]
 484 03fe C2F800C0 		str r12, [r2]
 485 0402 8E48     		ldr r0, = liangcheng
 486 0404 0168     		ldr r1, [r0]
 487 0406 0131     		adds r1, r1, # 1
 488 0408 0160     		str r1, [r0]
 489 040a 0729     		cmp r1, # 7
 490 040c 02D1     		bne __tiaoguo_dangwei_jia
 491 040e 0621     		movs r1, # 6
 492 0410 0160     		str r1, [r0]	
 493 0412 03E0     		b __duanlu_qingling_wancheng
 494              		
 495              	__tiaoguo_dangwei_jia:	
 496 0414 00F084FA 		bl __an_jian
 497 0418 0828     		cmp r0, # 8
 498 041a B3D1     		bne __duan_lu_qing_ling
 499              	__duanlu_qingling_wancheng:	
 500 041c 02F009FA 	        bl __lcd_qingping
 501 0420 8948     	        ldr r0, = zidong_dangwei_kaiguan
 502 0422 0021     		movs r1, # 0
 503 0424 0160     		str r1, [r0]
 504 0426 8948     		ldr r0, = zidong
 505 0428 0621     		movs r1, # 6           @显示几个字符
 506 042a 42F60102 		movw r2, # 0x2801         @LCD位置lcd位置(高8位0-0x83,低8位0-7)
 507 042e 02F049FA 		bl __xie_ascii
 508              		
 509              		
 510              		
 511 0432 8348     		ldr r0, = pinlv
 512 0434 8349     		ldr r1, = pinlv_xianshi_biao
 513 0436 0068     		ldr r0, [r0]
ARM GAS  1.s 			page 10


 514 0438 8000     		lsls r0, r0, # 2
 515 043a 0858     		ldr r0, [r1, r0]
 516 043c 0621     		movs r1, # 6           @显示几个字符
 517 043e 40F20002 		movw r2, # 0x0000         @LCD位置lcd位置(高8位0-0x83,低8位0-7)
 518 0442 02F03FFA 		bl __xie_ascii
 519              	
 520              	__du_jiaozhunbiao_dao_neicun1:
 521 0446 8248     		ldr r0, = 0x800f000
 522 0448 8F49     		ldr r1, = jiaozhun3.33mr_r
 523 044a 0022     		movs r2, # 0
 524              	__du_jiaozhun_biao_xunhuan1:
 525 044c 1546     		mov r5, r2
 526 044e AD00     		lsls r5, r5, # 2
 527 0450 4459     		ldr r4, [r0, r5]
 528 0452 4C51     		str r4, [r1, r5]
 529 0454 0132     		adds r2, r2, # 1
 530 0456 0E2A     		cmp r2, # 14
 531 0458 F8D1     		bne __du_jiaozhun_biao_xunhuan1
 532              			
 533 045a 00F083FA 		bl __xie_flash
 534              	
 535              	
 536 045e 2CE7     		b an_jian
 537 0460 7CE1     		b __ren_wu_diao_du
 538              	an_jian6:
 539 0462 8A48     		ldr r0, = jiaozhun_moshi
 540 0464 0121     		movs r1, # 1
 541 0466 0160     		str r1, [r0]
 542              		
 543              	__du_jiaozhunbiao_dao_neicun:	
 544 0468 7948     		ldr r0, = 0x800f000
 545 046a 8749     		ldr r1, = jiaozhun3.33mr_r
 546 046c 0022     		movs r2, # 0
 547              	__du_jiaozhun_biao_xunhuan:
 548 046e 1546     		mov r5, r2
 549 0470 AD00     		lsls r5, r5, # 2
 550 0472 4459     		ldr r4, [r0, r5]
 551 0474 4C51     		str r4, [r1, r5]
 552 0476 0132     		adds r2, r2, # 1
 553 0478 0E2A     		cmp r2, # 14
 554 047a F8D1     		bne __du_jiaozhun_biao_xunhuan
 555              	
 556              	
 557              	
 558              		
 559 047c 6F48     		ldr r0, = liangcheng
 560 047e 0021     		movs r1, # 0
 561 0480 0160     		str r1, [r0]
 562 0482 02F0D6F9 		bl __lcd_qingping
 563 0486 7048     		ldr r0, = zidong_dangwei_kaiguan
 564 0488 0121     		movs r1, # 1
 565 048a 0160     		str r1, [r0]
 566 048c 7748     		ldr r0, = rs_
 567 048e 0221     		movs r1, # 2           @显示几个字符
 568 0490 40F20302 		movw r2, # 0x0003         @LCD位置lcd位置(高8位0-0x83,低8位0-7)
 569 0494 02F016FA 		bl __xie_ascii
 570 0498 7548     		ldr r0, = xs_
ARM GAS  1.s 			page 11


 571 049a 0221     		movs r1, # 2           @显示几个字符
 572 049c 40F20602 		movw r2, # 0x0006        @LCD位置lcd位置(高8位0-0x83,低8位0-7)
 573 04a0 02F010FA 		bl __xie_ascii
 574 04a4 0026     		movs r6, # 0		@ 校准表指针
 575              	__jiaozhun:
 576 04a6 6B48     		ldr r0, = dangwei_jia_yanshi
 577 04a8 0021     		movs r1, # 0
 578 04aa 0160     		str r1, [r0]
 579 04ac 7848     	        ldr r0, = jiaozhun_liangcheng_biao
 580 04ae 3746     		mov r7, r6
 581 04b0 BF08     		lsrs r7, r7, # 2
 582 04b2 6249     		ldr r1, = liangcheng
 583 04b4 C05D     		ldrb r0, [r0, r7]
 584 04b6 0860     		str r0, [r1]
 585 04b8 7348     		ldr r0, = jiaozhun3.33mr_r
 586 04ba 8059     		ldr r0, [r0, r6]
 587 04bc 00F07DF8 		bl __xianshi_jiaozhun_shuzhi
 588              		
 589              	__jiaozhun1:
 590              	
 591 04c0 7448     	        ldr r0, = jiaozhun_biao
 592 04c2 8059     		ldr r0, [r0, r6]
 593 04c4 1021     		movs r1, # 16           @显示几个字符
 594 04c6 40F20102 		movw r2, # 0x0001         @LCD位置lcd位置(高8位0-0x83,低8位0-7)
 595 04ca 02F0FBF9 		bl __xie_ascii
 596 04ce 00F013FD 		bl __xianshi_zhu_danwei
 597 04d2 00F02BFE 		bl __jisuan_zukang
 598              	
 599              	
 600 04d6 594A     	        ldr r2, = liangcheng
 601 04d8 6948     		ldr r0, = khz1_duanlu_qingling_r
 602 04da 1268     		ldr r2, [r2]
 603 04dc 6949     		ldr r1, = khz1_duanlu_qingling_i
 604 04de 9200     		lsls r2, r2, # 2
 605 04e0 8058     		ldr r0, [r0, r2]
 606 04e2 8958     		ldr r1, [r1, r2]
 607 04e4 644A     		ldr r2, = z_r
 608 04e6 654B     		ldr r3, = z_i
 609 04e8 0068     		ldr r0, [r0]
 610 04ea 0968     		ldr r1, [r1]
 611 04ec 1468     		ldr r4, [r2]
 612 04ee 1D68     		ldr r5, [r3]
 613 04f0 A4EB0004 		sub r4, r4, r0
 614 04f4 A5EB0105 		sub r5, r5, r1
 615 04f8 1460     		str r4, [r2]
 616 04fa 1D60     		str r5, [r3]
 617              	
 618              	
 619              	
 620              	
 621              		
 622 04fc 5E48     		ldr r0, = z_r
 623 04fe 5F49     		ldr r1, = z_i
 624 0500 0068     		ldr r0, [r0]
 625 0502 0968     		ldr r1, [r1]
 626 0504 00F0A5FD 		bl __xianshi_zukang
 627 0508 00F00AFA 		bl __an_jian
ARM GAS  1.s 			page 12


 628 050c 0828     		cmp r0, # 8
 629 050e 08D0     		beq __jiaozhun_jia
 630 0510 0428     		cmp r0, # 4
 631 0512 17D0     		beq __jiaozhun_jian
 632 0514 0228     		cmp r0, # 2
 633 0516 27D0     		beq __jiaozhun_zhizhen_jia
 634 0518 0128     		cmp r0, # 1
 635 051a 32D0     		beq __jiaozhun_zhizhen_jian
 636 051c 0328     		cmp r0, # 3
 637 051e 3CD0     		beq __jiaozhun_wan_fanhui
 638 0520 C1E7     		b __jiaozhun
 639              	__jiaozhun_jia:
 640 0522 4C48     		ldr r0, = dangwei_jia_yanshi
 641 0524 0168     		ldr r1, [r0]
 642 0526 0131     		adds r1, r1, # 1
 643 0528 0160     		str r1, [r0]
 644 052a 0C29     		cmp r1, # 12
 645 052c C8D1     		bne __jiaozhun1
 646 052e 0021     		movs r1, # 0
 647 0530 0160     		str r1, [r0]
 648 0532 5548     		ldr r0, = jiaozhun3.33mr_r
 649 0534 8159     		ldr r1, [r0, r6]
 650 0536 0131     		adds r1, r1, # 1
 651 0538 8151     		str r1, [r0, r6]
 652 053a 574A     		ldr r2, = 99999
 653 053c 9142     		cmp r1, r2
 654 053e B2D1     		bne __jiaozhun
 655 0540 1146     		mov r1, r2
 656 0542 8151     		str r1, [r0, r6]
 657              	__jiaozhun_jian:
 658 0544 4348     	        ldr r0, = dangwei_jia_yanshi
 659 0546 0168     		ldr r1, [r0]
 660 0548 0131     		adds r1, r1, # 1
 661 054a 0160     		str r1, [r0]
 662 054c 0C29     		cmp r1, # 12
 663 054e B7D1     		bne __jiaozhun1
 664 0550 0021     		movs r1, # 0
 665 0552 0160     		str r1, [r0]
 666 0554 4C48     		ldr r0, = jiaozhun3.33mr_r
 667 0556 8159     		ldr r1, [r0, r6]
 668 0558 0139     		subs r1, r1, # 1
 669 055a 8151     		str r1, [r0, r6]
 670 055c 4F4A     		ldr r2, = -99999
 671 055e 9142     		cmp r1, r2
 672 0560 A1D1     		bne __jiaozhun
 673 0562 1146     		mov r1, r2
 674 0564 8151     		str r1, [r0, r6]
 675 0566 9EE7     		b __jiaozhun
 676              	
 677              	__jiaozhun_zhizhen_jia:
 678 0568 3A48     		ldr r0, = dangwei_jia_yanshi
 679 056a 0168     		ldr r1, [r0]
 680 056c 0131     		adds r1, r1, # 1
 681 056e 0160     		str r1, [r0]
 682 0570 0C29     		cmp r1, # 12
 683 0572 A5D1     		bne __jiaozhun1
 684 0574 0021     		movs r1, # 0
ARM GAS  1.s 			page 13


 685 0576 0160     		str r1, [r0]
 686 0578 0436     		adds r6, r6, # 4
 687 057a 382E     		cmp r6, # 56
 688 057c 93D1     		bne __jiaozhun
 689 057e 3426     		movs r6, # 52
 690 0580 91E7     		b __jiaozhun
 691              	__jiaozhun_zhizhen_jian:
 692 0582 3448     		ldr r0, = dangwei_jia_yanshi
 693 0584 0168     		ldr r1, [r0]
 694 0586 0131     		adds r1, r1, # 1
 695 0588 0160     		str r1, [r0]
 696 058a 0C29     		cmp r1, # 12
 697 058c 98D1     		bne __jiaozhun1
 698 058e 0021     		movs r1, # 0
 699 0590 0160     		str r1, [r0]
 700 0592 043E     		subs r6, r6, # 4
 701 0594 87D5     		bpl __jiaozhun
 702 0596 0026     		movs r6, # 0
 703 0598 85E7     		b __jiaozhun
 704              	__jiaozhun_wan_fanhui:
 705 059a 02F04AF9 		bl __lcd_qingping
 706 059e 4048     		ldr r0, = jiaozhun_wan_cheng
 707 05a0 1221     		movs r1, # 18           @显示几个字符
 708 05a2 40F20002 		movw r2, # 0x0000         @LCD位置lcd位置(高8位0-0x83,低8位0-7)
 709 05a6 02F08DF9 		bl __xie_ascii
 710 05aa 6FF07C40 		ldr r0, = 0x3ffffff
 711              	f:
 712 05ae 0138     		subs r0, r0, # 1
 713 05b0 FDD1     		bne f
 714 05b2 00F0D7F9 		bl __xie_flash
 715 05b6 DEBE     		bkpt # 222
 716              		
 717              	@	movs r0, # 6
 718              	@	bl __an_jian_xianshi
 719 05b8 D0E0     		b __ren_wu_diao_du
 720              		
 721              	__xianshi_jiaozhun_shuzhi:
 722 05ba 4EB5     		push {r1-r3,r6,lr}
 723 05bc 0600     		movs r6, r0
 724 05be 06D4     		bmi __jiaozhun_shuzhi_shi_fu
 725              	__jiaozhun_shuzhi_bushi_fu:
 726 05c0 3848     		ldr r0, = kong
 727 05c2 0121     		movs r1, # 1           @显示几个字符
 728 05c4 42F20042 		movw r2, # 0x2400         @LCD位置lcd位置(高8位0-0x83,低8位0-7)
 729 05c8 02F07CF9 		bl __xie_ascii
 730 05cc 07E0     		b __xianshi_jiaozhun_shuzhi1
 731              	__jiaozhun_shuzhi_shi_fu:
 732 05ce 3648     		ldr r0, = fu
 733 05d0 0121     		movs r1, # 1           @显示几个字符
 734 05d2 42F20042 		movw r2, # 0x2400         @LCD位置lcd位置(高8位0-0x83,低8位0-7)
 735 05d6 02F075F9 		bl __xie_ascii
 736 05da F643     		mvns r6, r6
 737 05dc 0136     		adds r6, r6, # 1
 738              	__xianshi_jiaozhun_shuzhi1:
 739 05de 3046     		mov r0, r6
 740 05e0 0521     		movs r1, # 5             @转换几个字符
 741 05e2 204A     		ldr r2, = asciibiao
ARM GAS  1.s 			page 14


 742 05e4 FF23     		movs r3, # 0xff             @小数点位置
 743 05e6 02F014FA 		bl __zhuanascii
 744 05ea 1E48     		ldr r0, = asciibiao
 745 05ec 0521     		movs r1, # 5           @显示几个字符
 746 05ee 42F60022 		movw r2, # 0x2a00         @LCD位置lcd位置(高8位0-0x83,低8位0-7)
 747 05f2 02F067F9 		bl __xie_ascii
 748 05f6 4EBD     		pop {r1-r3,r6,pc}
 749 05f8 00200240 		.ltorg
 749      00100240 
 749      02003900 
 749      00000101 
 749      48000020 
 750              	
 751              		
 752              		
 753              	an_jian7:
 754 06ac 0720     		movs r0, # 7
 755 06ae 00F048F8 	        bl __an_jian_xianshi
 756 06b2 53E0     		b __ren_wu_diao_du
 757              	an_jian8:
 758 06b4 D748     		ldr r0, = zidong_dangwei_kaiguan
 759 06b6 0121     		movs r1, # 1
 760 06b8 0160     		str r1, [r0]
 761 06ba D748     	        ldr r0, = kong
 762 06bc 0621     		movs r1, # 6           @显示几个字符
 763 06be 42F60102 		movw r2, # 0x2801         @LCD位置lcd位置(高8位0-0x83,低8位0-7)
 764 06c2 02F0FFF8 		bl __xie_ascii
 765              	__dangwei_jia_deng_songshou:
 766 06c6 00F02BF9 		bl __an_jian
 767 06ca 0028     		cmp r0, # 0
 768 06cc 02D0     		beq __dangwei_jia_le
 769 06ce 00F027F9 		bl __an_jian
 770 06d2 43E0     		b __ren_wu_diao_du
 771              	__dangwei_jia_le:	
 772 06d4 D148     		ldr r0, = liangcheng
 773 06d6 0168     		ldr r1, [r0]
 774 06d8 0131     		adds r1, r1, # 1
 775 06da 0160     		str r1, [r0]
 776 06dc 0729     		cmp r1, # 7
 777 06de 01D1     		bne __anjian8_fanhui
 778 06e0 0021     		movs r1, # 0
 779 06e2 0160     		str r1, [r0]
 780              			
 781              	__anjian8_fanhui:
 782 06e4 00F08BFC 		bl __xianshi_dangwei
 783 06e8 0820     		movs r0, # 8
 784 06ea 00F02AF8 		bl __an_jian_xianshi
 785 06ee 35E0     		b __ren_wu_diao_du
 786              	an_jian9:
 787 06f0 0920     		movs r0, # 9
 788 06f2 00F033F8 		bl __ren_wu_diao_du
 789 06f6 FBE7     		b an_jian9
 790              	an_jian10:
 791 06f8 0A20     		movs r0, # 10
 792 06fa 00F022F8 	        bl __an_jian_xianshi
 793 06fe 2DE0     		b __ren_wu_diao_du
 794              	an_jian11:
ARM GAS  1.s 			page 15


 795 0700 0B20     		movs r0, # 11
 796 0702 00F01EF8 		bl __an_jian_xianshi
 797 0706 29E0     		b __ren_wu_diao_du
 798              	an_jian12:
 799 0708 C248     	        ldr r0, = zidong_dangwei_kaiguan
 800 070a 0021     		movs r1, # 0
 801 070c 0160     		str r1, [r0]
 802 070e C448     		ldr r0, = zidong
 803 0710 0621     		movs r1, # 6           @显示几个字符
 804 0712 42F60102 		movw r2, # 0x2801         @LCD位置lcd位置(高8位0-0x83,低8位0-7)
 805 0716 02F0D5F8 		bl __xie_ascii
 806              		
 807 071a 0C20     		movs r0, # 12
 808 071c 00F011F8 		bl __an_jian_xianshi
 809 0720 6FF07F40 	        ldr r0, = 0xffffff
 810              	__qiehuan_zidong_yanshi:
 811 0724 0138     		subs r0, r0, # 1
 812 0726 FDD1     		bne __qiehuan_zidong_yanshi
 813              		
 814              		
 815 0728 18E0     		b __ren_wu_diao_du
 816              	an_jian13:
 817 072a 0D20     		movs r0, # 13
 818 072c 00F009F8 		bl __an_jian_xianshi
 819 0730 14E0     		b __ren_wu_diao_du
 820              	an_jian14:
 821 0732 0E20     		movs r0, # 14
 822 0734 00F005F8 		bl __an_jian_xianshi
 823 0738 10E0     		b __ren_wu_diao_du
 824              		
 825              	an_jian15:
 826 073a 0F20     		movs r0, # 15
 827 073c 00F001F8 		bl __an_jian_xianshi
 828 0740 0CE0     		b __ren_wu_diao_du
 829              	
 830              	__an_jian_xianshi:
 831              		@入口R0
 832 0742 06B5     		push {r1-r2,lr}
 833 0744 0221     		movs r1, # 2             @转换几个字符
 834 0746 B74A     		ldr r2, = asciibiao
 835 0748 FF23     		movs r3, # 0xff             @小数点位置
 836 074a 02F062F9 		bl __zhuanascii
 837 074e B548     		ldr r0, = asciibiao
 838 0750 0221     		movs r1, # 2           @显示几个字符
 839 0752 44F20002 		movw r2, # 0x4000         @LCD位置lcd位置(高8位0-0x83,低8位0-7)
 840 0756 02F0B5F8 		bl __xie_ascii
 841 075a 06BD     		pop {r1-r2,pc}
 842              	
 843              	__ren_wu_diao_du:	
 844 075c 00F0E0F8 		bl __an_jian
 845              	
 846 0760 B149     	        ldr r1, = anjian_hao
 847 0762 0860     		str r0, [r1]
 848 0764 8000     		lsls r0, r0, # 2
 849 0766 B149     		ldr r1, = an_jian_biao
 850 0768 0A58     		ldr r2, [r1, r0]
 851 076a 9746     		mov pc, r2
ARM GAS  1.s 			page 16


 852              		
 853              		
 854 076c 0046     		mov r0, r0
 855 076e 0046     		mov r0, r0
 856 0770 0046     		mov r0, r0
 857 0772 0046     		mov r0, r0
 858 0774 0046     		mov r0, r0
 859              	
 860              		
 861              	ting:
 862              	@	bl __xianshi_mansu_kaiguan
 863              	@	bl __xianshi_shangxia_bi
 864              	@	b __ren_wu_diao_du
 865 0776 00F0EBFB 		bl __adc_jiance
 866              	
 867              	__mansu:
 868              		
 869 077a 00F022FC 		bl __xianshi_adc_jiance
 870              		@	bl __xianshi_shangxia_bi
 871 077e 00F0BBFB 		bl __xianshi_zhu_danwei
 872 0782 00F02DFC 		bl __xianshi_z_fudu
 873 0786 00F03AFC 		bl __xianshi_dangwei
 874 078a 00F0CFFC 		bl __jisuan_zukang
 875              	
 876 078e A34A     		ldr r2, = liangcheng
 877 0790 A748     		ldr r0, = khz1_duanlu_qingling_r
 878 0792 1268     		ldr r2, [r2]
 879 0794 A749     		ldr r1, = khz1_duanlu_qingling_i
 880 0796 9200     		lsls r2, r2, # 2
 881 0798 8058     		ldr r0, [r0, r2]
 882 079a 8958     		ldr r1, [r1, r2]
 883 079c A64A     		ldr r2, = z_r
 884 079e A74B     		ldr r3, = z_i
 885 07a0 0068     		ldr r0, [r0]
 886 07a2 0968     		ldr r1, [r1]
 887 07a4 1468     		ldr r4, [r2]
 888 07a6 1D68     		ldr r5, [r3]
 889 07a8 A4EB0000 		sub r0, r4, r0
 890 07ac A5EB0101 		sub r1, r5, r1
 891              	
 892              	
 893 07b0 0000     	        movs r0, r0
 894 07b2 03D5     	        bpl __zr_bushi_fu
 895 07b4 C043     	        mvns r0, r0
 896 07b6 C943     	        mvns r1, r1
 897 07b8 0130     	        adds r0, r0, # 1
 898 07ba 0131     	        adds r1, r1, # 1
 899              	__zr_bushi_fu:	
 900 07bc 00F049FC 		bl __xianshi_zukang
 901 07c0 9F48     		ldr r0, = rs_
 902 07c2 0221     		movs r1, # 2           @显示几个字符
 903 07c4 40F20302 		movw r2, # 0x0003         @LCD位置lcd位置(高8位0-0x83,低8位0-7)
 904 07c8 02F07CF8 		bl __xie_ascii
 905 07cc 9D48     		ldr r0, = xs_
 906 07ce 0221     		movs r1, # 2           @显示几个字符
 907 07d0 40F20602 		movw r2, # 0x0006         @LCD位置lcd位置(高8位0-0x83,低8位0-7)
 908 07d4 02F076F8 		bl __xie_ascii
ARM GAS  1.s 			page 17


 909              		
 910 07d8 C0E7     		b __ren_wu_diao_du
 911              	
 912              	
 913              	
 914              	
 915              	
 916              	
 917              		
 918 07da 9948     	        ldr r0, = rs_
 919 07dc 0221     		movs r1, # 2           @显示几个字符
 920 07de 40F20302 		movw r2, # 0x0003         @LCD位置lcd位置(高8位0-0x83,低8位0-7)
 921 07e2 02F06FF8 		bl __xie_ascii
 922 07e6 0046     		mov r0, r0
 923 07e8 0046     		mov r0, r0
 924 07ea 0046     		mov r0, r0
 925 07ec 0046     		mov r0, r0
 926              	
 927 07ee 66E0     		b __xs_xianshi
 928 07f0 9548     		ldr r0, = xianshi_moshi
 929 07f2 0068     		ldr r0, [r0]
 930 07f4 0128     		cmp r0, # 1
 931 07f6 62D0     		beq __xs_xianshi
 932              		
 933              	
 934              		
 935              		
 936 07f8 9048     		ldr r0, = z_i
 937 07fa 0068     		ldr r0, [r0]
 938 07fc 0000     		movs r0, r0
 939              	@	bpl __ls
 940 07fe 934A     		ldr r2, = xs_cs_ls
 941 0800 0121     		movs r1, # 1
 942 0802 1160     		str r1, [r2]
 943 0804 00F05EFB 		bl __cs_jisuan
 944              	
 945 0808 9148     		ldr r0, = cs_
 946 080a 0221     		movs r1, # 2           @显示几个字符
 947 080c 40F20602 		movw r2, # 0x0006         @LCD位置lcd位置(高8位0-0x83,低8位0-7)
 948 0810 02F058F8 		bl __xie_ascii
 949 0814 8848     		ldr r0, = z_r
 950 0816 8F49     		ldr r1, = cs
 951 0818 0068     		ldr r0, [r0]
 952 081a 0968     		ldr r1, [r1]
 953 081c 00F019FC 		bl __xianshi_zukang
 954 0820 9CE7     		b __ren_wu_diao_du
 955              		
 956              	__ls:
 957 0822 8A4A     		ldr r2, = xs_cs_ls
 958 0824 0221     		movs r1, # 2
 959 0826 1160     		str r1, [r2]
 960 0828 00F0FAFA 		bl __ls_jisuan
 961 082c 8A48     	        ldr r0, = ls_
 962 082e 0221     		movs r1, # 2           @显示几个字符
 963 0830 40F20602 		movw r2, # 0x0006         @LCD位置lcd位置(高8位0-0x83,低8位0-7)
 964 0834 02F046F8 		bl __xie_ascii
 965 0838 7F48     		ldr r0, = z_r
ARM GAS  1.s 			page 18


 966 083a 8849     		ldr r1, = ls
 967 083c 0068     		ldr r0, [r0]
 968 083e 0968     		ldr r1, [r1]
 969 0840 00F007FC 		bl __xianshi_zukang
 970 0844 8AE7     		b __ren_wu_diao_du
 971              		
 972              	__kuaisu:
 973 0846 0160     		str r1, [r0]
 974 0848 8548     		ldr r0, = shangbi_rr
 975 084a 8649     		ldr r1, = shangbi_ii
 976 084c 864A     		ldr r2, = xiabi_rr
 977 084e 874B     		ldr r3, = xiabi_ii
 978 0850 0068     		ldr r0, [r0]
 979 0852 0968     		ldr r1, [r1]
 980 0854 1268     		ldr r2, [r2]
 981 0856 1B68     		ldr r3, [r3]
 982 0858 8011     	        asrs r0, r0, # 6
 983 085a 8911     		asrs r1, r1, # 6
 984 085c 9211     		asrs r2, r2, # 6
 985 085e 9B11     		asrs r3, r3, # 6
 986              		
 987 0860 834C     		ldr r4, = shangbi_r
 988 0862 844D     		ldr r5, = shangbi_i
 989 0864 844E     		ldr r6, = xiabi_r
 990 0866 854F     		ldr r7, = xiabi_i
 991 0868 2060     		str r0, [r4]
 992 086a 2960     		str r1, [r5]
 993 086c 3260     		str r2, [r6]
 994 086e 3B60     		str r3, [r7]
 995              		@       bl __xianshi_shangxia_bi
 996 0870 00F042FB 	        bl __xianshi_zhu_danwei
 997 0874 00F0B4FB 		bl __xianshi_z_fudu
 998 0878 00F0C1FB 		bl __xianshi_dangwei
 999 087c 00F056FC 		bl __jisuan_zukang
 1000              	
 1001 0880 1DE0     		b __xs_xianshi
 1002 0882 7148     		ldr r0, = xianshi_moshi
 1003 0884 0068     		ldr r0, [r0]
 1004 0886 0128     		cmp r0, # 1
 1005 0888 19D0     		beq __xs_xianshi
 1006              	
 1007              		
 1008 088a 6C48     		ldr r0, = z_i
 1009 088c 0068     		ldr r0, [r0]
 1010 088e 0000     		movs r0, r0
 1011 0890 0BD5     		bpl __ls1
 1012 0892 6E4A     		ldr r2, = xs_cs_ls
 1013 0894 0121     		movs r1, # 1
 1014 0896 1160     		str r1, [r2]
 1015 0898 00F014FB 		bl __cs_jisuan
 1016 089c 6748     		ldr r0, = z_i
 1017 089e 6D49     		ldr r1, = cs
 1018 08a0 0068     		ldr r0, [r0]
 1019 08a2 0968     		ldr r1, [r1]
 1020 08a4 00F0D5FB 		bl __xianshi_zukang
 1021 08a8 58E7     		b __ren_wu_diao_du
 1022              		
ARM GAS  1.s 			page 19


 1023              	__ls1:
 1024 08aa 684A     		ldr r2, = xs_cs_ls
 1025 08ac 0221     		movs r1, # 2
 1026 08ae 1160     		str r1, [r2]
 1027 08b0 00F0B6FA 		bl __ls_jisuan
 1028 08b4 6048     		ldr r0, = z_r
 1029 08b6 6949     		ldr r1, = ls
 1030 08b8 00F0CBFB 		bl __xianshi_zukang
 1031 08bc 4EE7     		b __ren_wu_diao_du
 1032              		
 1033              	__xs_xianshi:
 1034 08be 634A     		ldr r2, = xs_cs_ls
 1035 08c0 0021     		movs r1, # 0
 1036 08c2 1160     		str r1, [r2]
 1037 08c4 5F48     		ldr r0, = xs_
 1038 08c6 0221     		movs r1, # 2           @显示几个字符
 1039 08c8 40F20602 		movw r2, # 0x0006         @LCD位置lcd位置(高8位0-0x83,低8位0-7)
 1040 08cc 01F0FAFF 		bl __xie_ascii
 1041 08d0 5948     		ldr r0, = z_r
 1042 08d2 5A49     		ldr r1, = z_i
 1043 08d4 0068     		ldr r0, [r0]
 1044 08d6 0968     		ldr r1, [r1]
 1045 08d8 00F0BBFB 		bl __xianshi_zukang
 1046 08dc 3EE7     		b __ren_wu_diao_du
 1047              	
 1048              	
 1049              	
 1050              	__xianshi_jiaodu:
 1051 08de 1FB5     		push {r0-r4,lr}
 1052 08e0 6748     	        ldr r0, = z_jiao_du
 1053 08e2 0068     		ldr r0, [r0]
 1054 08e4 0400     		movs r4, r0
 1055 08e6 06D4     		bmi __z_jiaodu_shi_fu
 1056              	__z_jiaodu_bushi_fu:
 1057 08e8 4B48     		ldr r0, = kong
 1058 08ea 0121     		movs r1, # 1           @显示几个字符
 1059 08ec 42F60022 		movw r2, # 0x2a00         @LCD位置lcd位置(高8位0-0x83,低8位0-7)
 1060 08f0 01F0E8FF 		bl __xie_ascii
 1061 08f4 07E0     		b __xianshi_z_jiaodu
 1062              	__z_jiaodu_shi_fu:
 1063 08f6 6348     		ldr r0, = fu
 1064 08f8 0121     		movs r1, # 1           @显示几个字符
 1065 08fa 42F60022 		movw r2, # 0x2a00         @LCD位置lcd位置(高8位0-0x83,低8位0-7)
 1066 08fe 01F0E1FF 		bl __xie_ascii
 1067 0902 E443     		mvns r4, r4
 1068 0904 0134     		adds r4, r4, # 1
 1069              	__xianshi_z_jiaodu:	
 1070 0906 2046     		mov r0, r4
 1071 0908 0521     		movs r1, # 5    @转换几个字符
 1072 090a 464A     		ldr r2, = asciibiao
 1073 090c 0323     		movs r3, # 3             @小数点位置
 1074 090e 02F080F8 		bl __zhuanascii
 1075 0912 4448     		ldr r0, = asciibiao
 1076 0914 0521     		movs r1, # 5           @显示几个字符
 1077 0916 43F20022 		movw r2, # 0x3200         @LCD位置lcd位置(高8位0-0x83,低8位0-7)
 1078 091a 01F0D3FF 		bl __xie_ascii
 1079 091e 1FBD     		pop {r0-r4,pc}
ARM GAS  1.s 			page 20


 1080              	
 1081              		
 1082              	__an_jian:
 1083 0920 5948     		ldr r0, = 0x40023810
 1084 0922 0068     		ldr r0, [r0]
 1085 0924 C043     		mvns r0, r0
 1086 0926 0004     		lsls r0, r0, # 16
 1087 0928 000F     		lsrs r0, r0, # 28
 1088 092a 7047     		bx lr
 1089              	
 1090              	__huifu_chuchang_shezhi:
 1091 092c 7FB5     		push {r0-r6,lr}
 1092 092e 5748     		ldr r0, = zukang_dianzu_biao
 1093 0930 5749     		ldr r1, = zukang_diankang_biao
 1094 0932 584A     		ldr r2, = jiaozhun3.33mr_r
 1095 0934 0025     		movs r5, # 0
 1096              	__chuchang_shezhi_xunhuan:
 1097 0936 2E46     		mov r6, r5
 1098 0938 B600     		lsls r6, r6, # 2
 1099 093a 8359     		ldr r3, [r0, r6]
 1100 093c 8C59     		ldr r4, [r1, r6]
 1101 093e 9351     		str r3, [r2, r6]
 1102 0940 0432     		adds r2, r2, # 4
 1103 0942 9451     		str r4, [r2, r6]
 1104 0944 0135     		adds r5, r5, # 1
 1105 0946 0E2D     		cmp r5, # 14
 1106 0948 F5D1     		bne __chuchang_shezhi_xunhuan
 1107 094a 7FBD     		pop {r0-r6,pc}
 1108              	
 1109              	__du_duanlu_biao:
 1110 094c 7FB5     		push {r0-r6,lr}
 1111 094e 5248     		ldr r0, = 0x800f100
 1112 0950 524A     		ldr r2, = khz1_3.33mr_duanlu_r
 1113 0952 0025     		movs r5, # 0
 1114              	__du_duanlu_xunhuan:
 1115 0954 2E46     		mov r6, r5
 1116 0956 B600     		lsls r6, r6, # 2
 1117 0958 8359     		ldr r3, [r0, r6]
 1118 095a 9351     		str r3, [r2, r6]
 1119 095c 0135     		adds r5, r5, # 1
 1120 095e 0E2D     		cmp r5, # 14
 1121 0960 F8D1     		bne __du_duanlu_xunhuan
 1122 0962 7FBD     		pop {r0-r6,pc}
 1123              		
 1124              	
 1125              		
 1126              	__xie_flash:				@ flsh解锁
 1127 0964 72B6     		cpsid i
 1128              		
 1129 0966 4E48     		ldr r0, = 0x40022000
 1130 0968 4E49     		ldr r1, = 0x45670123
 1131 096a 4160     		str r1, [r0, # 0x04]
 1132 096c 4E49     		ldr r1, = 0xcdef89ab
 1133 096e 4160     		str r1, [r0, # 0x04]
 1134              		@擦除1页
 1135 0970 0125     		movs r5, # 1
 1136 0972 4E4C     		ldr r4, = 0x800f000
ARM GAS  1.s 			page 21


 1137 0974 0127     		movs r7, # 1
 1138 0976 BF02     		lsls r7, r7, # 10
 1139              	_flashmang:
 1140 0978 C268     		ldr r2, [r0, # 0x0c]
 1141 097a D207     		lsls r2, r2, # 31
 1142 097c FCD4     		bmi _flashmang
 1143 097e 0221     		movs r1, # 2
 1144 0980 0161     		str r1, [r0, # 0x10]
 1145 0982 4461     		str r4, [r0, # 0x14]
 1146 0984 4221     		movs r1, # 0x42
 1147 0986 0161     		str r1, [r0, # 0x10]
 1148 0988 3C44     		add r4, r4, r7
 1149 098a 013D     		subs r5, # 1
 1150 098c F4D1     		bne _flashmang
 1151              		@写FLASH
 1152 098e 474F     		ldr r7, = 0x800f000	@写
 1153 0990 404C     		ldr r4, = jiaozhun3.33mr_r	@读
 1154 0992 0025     		movs r5, # 0
 1155 0994 5FF00008 		movs r8, # 0
 1156 0998 0E26     		movs r6, # 14
 1157              		
 1158              	_flashmang1:
 1159 099a C268     		ldr r2, [r0, # 0x0c]
 1160 099c D207     		lsls r2, r2, # 31
 1161 099e FCD4     		bmi _flashmang1
 1162 09a0 0121     		movs r1, # 1
 1163 09a2 0161     		str r1, [r0, # 0x10]
 1164 09a4 6359     		ldr r3, [r4, r5]
 1165 09a6 7B51     		str r3, [r7, r5]
 1166 09a8 0435     		adds r5, r5, # 4
 1167              	_flashmang2:
 1168 09aa C268     		ldr r2, [r0, # 0x0c]
 1169 09ac D207     		lsls r2, r2, # 31
 1170 09ae FCD4     		bmi _flashmang2
 1171 09b0 013E     		subs r6, r6, # 1
 1172 09b2 F2D1     		bne _flashmang1
 1173              	_flashmang4:
 1174 09b4 C268     		ldr r2, [r0, # 0x0c]
 1175 09b6 D207     		lsls r2, r2, # 31
 1176 09b8 FCD4     		bmi _flashmang4
 1177 09ba B8F1010F 		cmp r8, # 1
 1178 09be 06D0     		beq __xie_flash_fan_hui
 1179 09c0 364C     		ldr r4, = khz1_3.33mr_duanlu_r
 1180 09c2 354F     		ldr r7, = 0x800f100
 1181 09c4 0025     		movs r5, # 0
 1182 09c6 0E26     		movs r6, # 14
 1183 09c8 4FF00108 		mov r8, # 1
 1184 09cc E5E7     		b _flashmang1	
 1185              	__xie_flash_fan_hui:	
 1186 09ce 8021     		movs r1, # 0x80
 1187 09d0 0161     		str r1, [r0, # 0x10]          		@flsh上锁
 1188 09d2 3748     		ldr r0, = 0xe000ed0c
 1189 09d4 3749     		ldr r1, = 0x05fa0004
 1190 09d6 0160     		str r1, [r0]          		@复位
 1191              	deng_fuwei:
 1192 09d8 FEE7     		b deng_fuwei
 1193              	
ARM GAS  1.s 			page 22


 1194              		
 1195              	
 1196              	__pin_lv_jia:
 1197 09da 72B6     		cpsid i
 1198 09dc 07B5     		push {r0-r2,lr}
 1199 09de 3648     		ldr r0, = pinlv
 1200 09e0 0168     		ldr r1, [r0]
 1201 09e2 0131     		adds r1, r1, # 1
 1202 09e4 0160     		str r1, [r0]
 1203 09e6 0429     		cmp r1, # 4
 1204 09e8 01D1     		bne __pin_lv_fan_hui
 1205 09ea 0021     		movs r1, # 0
 1206 09ec 0160     		str r1, [r0]
 1207              	__pin_lv_fan_hui:
 1208 09ee 3248     	        ldr r0, = pinlv
 1209 09f0 3249     		ldr r1, = pinlv_xianshi_biao
 1210 09f2 0068     		ldr r0, [r0]
 1211 09f4 8000     		lsls r0, r0, # 2
 1212 09f6 0858     		ldr r0, [r1, r0]
 1213 09f8 0621     		movs r1, # 6           @显示几个字符
 1214 09fa 40F20002 		movw r2, # 0x0000         @LCD位置lcd位置(高8位0-0x83,低8位0-7)
 1215 09fe 01F061FF 		bl __xie_ascii
 1216 0a02 6FF07F40 		ldr r0, = 0xffffff
 1217              	__pinlv_qiehuan_yanshi:
 1218 0a06 0138     		subs r0, r0, # 1
 1219 0a08 FDD1     		bne __pinlv_qiehuan_yanshi
 1220              	@	pop {r0-r2,pc}
 1221 0a0a 2948     		ldr r0, = 0xe000ed0c
 1222 0a0c 2949     		ldr r1, = 0x05fa0004
 1223 0a0e 0160     		str r1, [r0]                    @复位
 1224 0a10 01BE     		bkpt # 1
 1225 0a12 00005000 		.ltorg
 1225      0020C304 
 1225      0000A001 
 1225      00204703 
 1225      00000000 
 1226              		
 1227              	__pinlv_shezhi:
 1228              		@入口R0
 1229              		@0=1KHZ, 1=10KHZ, 2=100KHZ
 1230 0ac0 3FB5     		push {r0-r5,lr}
 1231 0ac2 E149     		ldr r1, = shezhi_pinlv
 1232 0ac4 0122     		movs r2, # 1
 1233 0ac6 0A60     		str r2, [r1]
 1234 0ac8 E04A     		ldr r2, = pinlv
 1235 0aca E149     		ldr r1, = pinlv_biao
 1236 0acc 1268     		ldr r2, [r2]
 1237 0ace 9200     		lsls r2, r2, # 2
 1238 0ad0 8A58     		ldr r2, [r1, r2]
 1239 0ad2 9746     		mov pc, r2
 1240              	
 1241              	
 1242              		
 1243              	
 1244              	
 1245              	__pinlv_1khz:
 1246 0ad4 DF48     		ldr r0, = 0x40023418
ARM GAS  1.s 			page 23


 1247 0ad6 41F60061 		movw r1, # 0x1e00
 1248 0ada 0904     		lsls r1, r1, # 16
 1249 0adc 0160     		str r1, [r0]
 1250 0ade DE48     	        ldr r0, = 0x40024018
 1251 0ae0 4FF40051 		ldr r1, = 0x2000
 1252 0ae4 0904     		lsls r1, r1, # 16
 1253 0ae6 0160     		str r1, [r0]
 1254              		
 1255              	
 1256              	
 1257              	
 1258              		
 1259 0ae8 DC48     		ldr r0, = cos_sin
 1260 0aea DD49     		ldr r1, = cos_sin_100hz
 1261 0aec DD4A     		ldr r2, = dft_shuliang
 1262 0aee 0160     		str r1, [r0]
 1263 0af0 1421     		movs r1, # 20
 1264 0af2 1160     		str r1, [r2]
 1265              	
 1266 0af4 DC48     		ldr r0, = cos_sin_shuliang
 1267 0af6 6421     		movs r1, # 100
 1268 0af8 0160     		str r1, [r0]
 1269              	
 1270              	
 1271              	
 1272              		@__dma_chushihua:
 1273 0afa DC48     		ldr r0, = 0x40020000
 1274 0afc 0021     		movs r1, # 0
 1275 0afe 8160     		str r1, [r0, # 0x08]
 1276 0b00 DB49     		ldr r1, = 0x4002084c
 1277 0b02 0161     		str r1, [r0, # 0x10]
 1278 0b04 DB49     		ldr r1, = dianyabiao
 1279 0b06 4161     		str r1, [r0, # 0x14]
 1280 0b08 4FF47A61 		ldr r1, = 4000                  @采样数量       sl
 1281 0b0c C160     		str r1, [r0, # 0x0c]
 1282 0b0e 43F2A151 		movw r1, # 0x35a1                       @0x3581(单次)，0x35a1(循环)
 1283 0b12 8160     		str r1, [r0, # 0x08]
 1284              	
 1285 0b14 D848     		ldr r0, = 0x40020014
 1286 0b16 0021     		movs r1, # 0
 1287 0b18 8160     		str r1, [r0, # 0x08]
 1288 0b1a D849     		ldr r1, = 0x40012c34
 1289 0b1c 0161     		str r1, [r0, # 0x10]
 1290 0b1e D849     		ldr r1, = zhengxian_1khz
 1291 0b20 4161     		str r1, [r0, # 0x14]
 1292 0b22 4FF4C871 		ldr r1, = 400
 1293 0b26 C160     		str r1, [r0, # 0x0c]
 1294 0b28 1121     		movs r1, # 0x11
 1295 0b2a 8161     		str r1, [r0, # 0x18]
 1296 0b2c 43F2B161 		movw r1, # 0x36b1
 1297 0b30 8160     		str r1, [r0, # 0x08]
 1298              	
 1299              		@__adc_chushihua:
 1300              		@采样时间1\128000000（MHZ）*14(周期)= 9142857HZ
 1301 0b32 D448     		ldr r0, = 0x40020800
 1302 0b34 4FF00501 		ldr r1, =  0x05
 1303 0b38 8160     		str r1, [r0, # 0x08]            @开ADC和校准
ARM GAS  1.s 			page 24


 1304              	__deng_adc_jiaozhun11:
 1305 0b3a 8168     		ldr r1, [r0, # 0x08]
 1306 0b3c 4907     		lsls r1, r1, # 29
 1307 0b3e FCD4     		bmi __deng_adc_jiaozhun11         @等ADC校准
 1308              	__deng_adc_zhunbeihao22:
 1309 0b40 816D     		ldr r1, [r0, # 0x58]
 1310 0b42 8906     		lsls r1, r1, # 26
 1311 0b44 FCD5     		bpl __deng_adc_zhunbeihao22       @等ADC准备好
 1312 0b46 0121     		movs r1, # 0x01                 @通道选择
 1313 0b48 4163     		str r1, [r0, # 0x34]
 1314 0b4a CF49     		ldr r1, = 0x180101      @0X100101  @0x180101
 1315 0b4c 8160     		str r1, [r0, # 0x08]
 1316 0b4e 8160     		str r1, [r0, # 0x08]            @为啥还要开两次。。。
 1317              	
 1318              	
 1319              	
 1320 0b50 CE48     		ldr r0, = lvbo_changdu
 1321 0b52 CF49     		ldr r1, = lvbo_youyi
 1322 0b54 5FF4DC72 		movs r2, # 440
 1323 0b58 0260     		str r2, [r0]
 1324 0b5a 0C22     		movs r2, # 12
 1325 0b5c 0A60     		str r2, [r1]
 1326              	
 1327 0b5e CD48     		ldr r0, = 0xe000e010
 1328 0b60 CD49     		ldr r1, = 127999
 1329 0b62 4160     		str r1, [r0, # 4]
 1330 0b64 8160     		str r1, [r0, # 8]
 1331 0b66 0721     		movs r1, # 0x07
 1332 0b68 0160     		str r1, [r0]    @systick 开
 1333              	
 1334              	
 1335              		@__tim3chushihua:
 1336 0b6a CC4B     		ldr r3, = 0x40000400 @ tim3_cr1
 1337 0b6c 4FF00002 		ldr r2, = 0
 1338 0b70 9A62     		str r2, [r3, # 0x28] @ psc
 1339 0b72 4FF01F02 		ldr r2, = 31                  @639=200KHZ
 1340 0b76 DA62     		str r2, [r3, # 0x2c] @ ARR
 1341 0b78 2022     		movs r2, # 0x20
 1342 0b7a 5A60     		str r2, [r3, # 0x04] @ TRGO
 1343 0b7c 0122     		movs r2, # 0x01
 1344 0b7e DA60     		str r2, [r3, # 0x0c]
 1345 0b80 8122     		movs r2, # 0x81
 1346              		@__tim1_chushiha:
 1347 0b82 C74C     		ldr r4, = 0x40012c00 @ tim1_cr1
 1348 0b84 0025     		movs r5, # 0
 1349 0b86 A562     		str r5, [r4, # 0x28] @ psc
 1350 0b88 40F23F15 		ldr r5, = 319
 1351 0b8c E562     		str r5, [r4, # 0x2c] @ ARR
 1352              		@       movs r2, # 0x20
 1353              		@       str r2, [r4, # 0x04]     @TRGO
 1354 0b8e 40F20025 		movw r5, # 0x200
 1355 0b92 E560     		str r5, [r4, # 0x0c]
 1356 0b94 6825     		movs r5, # 0x68
 1357 0b96 A561     		str r5, [r4, # 0x18]
 1358 0b98 0325     		movs r5, # 0x03
 1359 0b9a 2562     		str r5, [r4, # 0x20] @ ccer
 1360 0b9c 4FF40045 		ldr r5, = 0x8000
ARM GAS  1.s 			page 25


 1361 0ba0 6564     		str r5, [r4, # 0x44] @ BDTR
 1362 0ba2 4FF08105 		ldr r5, = 0x81
 1363 0ba6 2560     		str r5, [r4]
 1364 0ba8 1A60     		str r2, [r3]
 1365 0baa 3FBD     		pop {r0-r5,pc}
 1366              	
 1367              	
 1368              		
 1369              	__pinlv_1khz_man:
 1370 0bac A948     		ldr r0, = 0x40023418
 1371 0bae 41F60061 		movw r1, # 0x1e00
 1372 0bb2 0160     		str r1, [r0]
 1373 0bb4 40F60061 		movw r1, # 0xe00
 1374 0bb8 0904     		lsls r1, r1, # 16
 1375 0bba 0160     		str r1, [r0]
 1376              	
 1377 0bbc A748     		ldr r0, = cos_sin
 1378 0bbe B949     		ldr r1, = cos_sin_10khz
 1379 0bc0 A84A     		ldr r2, = dft_shuliang
 1380 0bc2 0160     		str r1, [r0]
 1381 0bc4 1421     		movs r1, # 20
 1382 0bc6 1160     		str r1, [r2]
 1383              	
 1384 0bc8 A748     		ldr r0, = cos_sin_shuliang
 1385 0bca 0221     		movs r1, # 2
 1386 0bcc 0160     		str r1, [r0]
 1387              	
 1388              	
 1389              	
 1390              		@__dma_chushihua:
 1391 0bce A748     		ldr r0, = 0x40020000
 1392 0bd0 0021     		movs r1, # 0
 1393 0bd2 8160     		str r1, [r0, # 0x08]
 1394 0bd4 A649     		ldr r1, = 0x4002084c
 1395 0bd6 0161     		str r1, [r0, # 0x10]
 1396 0bd8 A649     		ldr r1, = dianyabiao
 1397 0bda 4161     		str r1, [r0, # 0x14]
 1398 0bdc 4FF47A61 		ldr r1, = 4000                  @采样数量       sl
 1399 0be0 C160     		str r1, [r0, # 0x0c]
 1400 0be2 43F2A151 		movw r1, # 0x35a1                       @0x3581(单次)，0x35a1(循环)
 1401 0be6 8160     		str r1, [r0, # 0x08]
 1402              	
 1403 0be8 A348     		ldr r0, = 0x40020014
 1404 0bea 0021     		movs r1, # 0
 1405 0bec 8160     		str r1, [r0, # 0x08]
 1406 0bee A349     		ldr r1, = 0x40012c34
 1407 0bf0 0161     		str r1, [r0, # 0x10]
 1408 0bf2 A349     		ldr r1, = zhengxian_1khz
 1409 0bf4 4161     		str r1, [r0, # 0x14]
 1410 0bf6 4FF4C871 		ldr r1, = 400
 1411 0bfa C160     		str r1, [r0, # 0x0c]
 1412 0bfc 1121     		movs r1, # 0x11
 1413 0bfe 8161     		str r1, [r0, # 0x18]
 1414 0c00 43F2B161 		movw r1, # 0x36b1
 1415 0c04 8160     		str r1, [r0, # 0x08]
 1416              	
 1417              		@__adc_chushihua:
ARM GAS  1.s 			page 26


 1418              		@采样时间1\128000000（MHZ）*14(周期)= 9142857HZ
 1419 0c06 9F48     		ldr r0, = 0x40020800
 1420 0c08 4FF00501 		ldr r1, =  0x05
 1421 0c0c 8160     		str r1, [r0, # 0x08]            @开ADC和校准
 1422              	__deng_adc_jiaozhun2:
 1423 0c0e 8168     		ldr r1, [r0, # 0x08]
 1424 0c10 4907     		lsls r1, r1, # 29
 1425 0c12 FCD4     		bmi __deng_adc_jiaozhun2         @等ADC校准
 1426              	__deng_adc_zhunbeihao2:
 1427 0c14 816D     		ldr r1, [r0, # 0x58]
 1428 0c16 8906     		lsls r1, r1, # 26
 1429 0c18 FCD5     		bpl __deng_adc_zhunbeihao2       @等ADC准备好
 1430 0c1a 0121     		movs r1, # 0x01                 @通道选择
 1431 0c1c 4163     		str r1, [r0, # 0x34]
 1432 0c1e 9A49     		ldr r1, = 0x180101      @0X100101  @0x180101
 1433 0c20 8160     		str r1, [r0, # 0x08]
 1434 0c22 8160     		str r1, [r0, # 0x08]            @为啥还要开两次。。。
 1435              	
 1436              	
 1437              	
 1438 0c24 9948     		ldr r0, = lvbo_changdu
 1439 0c26 9A49     		ldr r1, = lvbo_youyi
 1440 0c28 5FF4DC72 		movs r2, # 440
 1441 0c2c 0260     		str r2, [r0]
 1442 0c2e 0C22     		movs r2, # 12
 1443 0c30 0A60     		str r2, [r1]
 1444              	
 1445 0c32 9848     		ldr r0, = 0xe000e010
 1446 0c34 9C49     		ldr r1, = 1279999
 1447 0c36 4160     		str r1, [r0, # 4]
 1448 0c38 8160     		str r1, [r0, # 8]
 1449 0c3a 0721     		movs r1, # 0x07
 1450 0c3c 0160     		str r1, [r0]    @systick 开
 1451              	
 1452              	
 1453              		@__tim3chushihua:
 1454 0c3e 974B     		ldr r3, = 0x40000400 @ tim3_cr1
 1455 0c40 4FF00002 		ldr r2, = 0
 1456 0c44 9A62     		str r2, [r3, # 0x28] @ psc
 1457 0c46 40F23F12 		ldr r2, = 319                  @639=200KHZ
 1458 0c4a DA62     		str r2, [r3, # 0x2c] @ ARR
 1459 0c4c 2022     		movs r2, # 0x20
 1460 0c4e 5A60     		str r2, [r3, # 0x04] @ TRGO
 1461 0c50 0122     		movs r2, # 0x01
 1462 0c52 DA60     		str r2, [r3, # 0x0c]
 1463 0c54 8122     		movs r2, # 0x81
 1464              		@__tim1_chushiha:
 1465 0c56 924C     		ldr r4, = 0x40012c00 @ tim1_cr1
 1466 0c58 0025     		movs r5, # 0
 1467 0c5a A562     		str r5, [r4, # 0x28] @ psc
 1468 0c5c 40F23F15 		ldr r5, = 319
 1469 0c60 E562     		str r5, [r4, # 0x2c] @ ARR
 1470              		@       movs r2, # 0x20
 1471              		@       str r2, [r4, # 0x04]     @TRGO
 1472 0c62 40F20025 		movw r5, # 0x200
 1473 0c66 E560     		str r5, [r4, # 0x0c]
 1474 0c68 6825     		movs r5, # 0x68
ARM GAS  1.s 			page 27


 1475 0c6a A561     		str r5, [r4, # 0x18]
 1476 0c6c 0325     		movs r5, # 0x03
 1477 0c6e 2562     		str r5, [r4, # 0x20] @ ccer
 1478 0c70 4FF40045 		ldr r5, = 0x8000
 1479 0c74 6564     		str r5, [r4, # 0x44] @ BDTR
 1480 0c76 4FF08105 		ldr r5, = 0x81
 1481 0c7a 2560     		str r5, [r4]
 1482 0c7c 1A60     		str r2, [r3]
 1483 0c7e 3FBD     		pop {r0-r5,pc}
 1484              	
 1485              		
 1486              	__pinlv_10khz:
 1487 0c80 7448     		ldr r0, = 0x40023418
 1488 0c82 41F60061 		movw r1, # 0x1e00
 1489 0c86 0160     		str r1, [r0]
 1490 0c88 40F20061 		movw r1, # 0x600
 1491 0c8c 0904     		lsls r1, r1, # 16
 1492 0c8e 0160     		str r1, [r0]
 1493              	
 1494 0c90 7248     	        ldr r0, = cos_sin
 1495 0c92 8449     		ldr r1, = cos_sin_10khz
 1496 0c94 734A     		ldr r2, = dft_shuliang
 1497 0c96 0160     		str r1, [r0]
 1498 0c98 1421     		movs r1, # 20
 1499 0c9a 1160     		str r1, [r2]
 1500              	
 1501 0c9c 7248     		ldr r0, = cos_sin_shuliang
 1502 0c9e 0221     		movs r1, # 2
 1503 0ca0 0160     		str r1, [r0]
 1504              		
 1505              		
 1506              	
 1507              		
 1508              		@__dma_chushihua:
 1509 0ca2 7248     		ldr r0, = 0x40020000
 1510 0ca4 0021     		movs r1, # 0
 1511 0ca6 8160     		str r1, [r0, # 0x08]
 1512 0ca8 7149     		ldr r1, = 0x4002084c
 1513 0caa 0161     		str r1, [r0, # 0x10]
 1514 0cac 7149     		ldr r1, = dianyabiao
 1515 0cae 4161     		str r1, [r0, # 0x14]
 1516 0cb0 4FF47A61 		ldr r1, = 4000                  @采样数量       sl
 1517 0cb4 C160     		str r1, [r0, # 0x0c]
 1518 0cb6 43F2A151 		movw r1, # 0x35a1                       @0x3581(单次)，0x35a1(循环)
 1519 0cba 8160     		str r1, [r0, # 0x08]
 1520              	
 1521 0cbc 6E48     		ldr r0, = 0x40020014
 1522 0cbe 0021     		movs r1, # 0
 1523 0cc0 8160     		str r1, [r0, # 0x08]
 1524 0cc2 6E49     		ldr r1, = 0x40012c34
 1525 0cc4 0161     		str r1, [r0, # 0x10]
 1526 0cc6 7949     		ldr r1, = zhengxian_10khz
 1527 0cc8 4161     		str r1, [r0, # 0x14]
 1528 0cca 4FF06401 		ldr r1, = 100
 1529 0cce C160     		str r1, [r0, # 0x0c]
 1530 0cd0 1121     		movs r1, # 0x11
 1531 0cd2 8161     		str r1, [r0, # 0x18]
ARM GAS  1.s 			page 28


 1532 0cd4 43F2B121 		movw r1, # 0x32b1
 1533 0cd8 8160     		str r1, [r0, # 0x08]
 1534              	
 1535              		@__adc_chushihua:
 1536              		@采样时间1\128000000（MHZ）*14(周期)= 9142857HZ
 1537 0cda 6A48     		ldr r0, = 0x40020800
 1538 0cdc 4FF00501 		ldr r1, =  0x05
 1539 0ce0 8160     		str r1, [r0, # 0x08]            @开ADC和校准
 1540              	__deng_adc_jiaozhun1:
 1541 0ce2 8168     		ldr r1, [r0, # 0x08]
 1542 0ce4 4907     		lsls r1, r1, # 29
 1543 0ce6 FCD4     		bmi __deng_adc_jiaozhun1         @等ADC校准
 1544              	__deng_adc_zhunbeihao1:
 1545 0ce8 816D     		ldr r1, [r0, # 0x58]
 1546 0cea 8906     		lsls r1, r1, # 26
 1547 0cec FCD5     		bpl __deng_adc_zhunbeihao1       @等ADC准备好
 1548 0cee 0121     		movs r1, # 0x01                 @通道选择
 1549 0cf0 4163     		str r1, [r0, # 0x34]
 1550 0cf2 6549     		ldr r1, = 0x180101      @0X100101  @0x180101
 1551 0cf4 8160     		str r1, [r0, # 0x08]
 1552 0cf6 8160     		str r1, [r0, # 0x08]            @为啥还要开两次。。。
 1553              	
 1554              	
 1555              	
 1556 0cf8 6448     		ldr r0, = lvbo_changdu
 1557 0cfa 6549     		ldr r1, = lvbo_youyi
 1558 0cfc 5FF4C872 		movs r2, # 400
 1559 0d00 0260     		str r2, [r0]
 1560 0d02 0A22     		movs r2, # 10
 1561 0d04 0A60     		str r2, [r1]
 1562              	
 1563 0d06 6348     		       ldr r0, = 0xe000e010
 1564 0d08 6349     		       ldr r1, = 127999
 1565 0d0a 4160     		       str r1, [r0, # 4]
 1566 0d0c 8160     		       str r1, [r0, # 8]
 1567 0d0e 0721     		       movs r1, # 0x07
 1568 0d10 0160     		       str r1, [r0]    @systick 开
 1569              	
 1570              	
 1571              		@__tim3chushihua:
 1572 0d12 624B     		ldr r3, = 0x40000400 @ tim3_cr1
 1573 0d14 4FF00002 		ldr r2, = 0
 1574 0d18 9A62     		str r2, [r3, # 0x28] @ psc
 1575 0d1a 4FF01F02 		ldr r2, = 31                  @639=200KHZ
 1576 0d1e DA62     		str r2, [r3, # 0x2c] @ ARR
 1577 0d20 2022     		movs r2, # 0x20
 1578 0d22 5A60     		str r2, [r3, # 0x04] @ TRGO
 1579 0d24 0122     		movs r2, # 0x01
 1580 0d26 DA60     		str r2, [r3, # 0x0c]
 1581 0d28 8122     		movs r2, # 0x81
 1582              		@__tim1_chushiha:
 1583 0d2a 5D4C     		ldr r4, = 0x40012c00 @ tim1_cr1
 1584 0d2c 0025     		movs r5, # 0
 1585 0d2e A562     		str r5, [r4, # 0x28] @ psc
 1586 0d30 4FF07F05 		ldr r5, = 127
 1587 0d34 E562     		str r5, [r4, # 0x2c] @ ARR
 1588              		@       movs r2, # 0x20
ARM GAS  1.s 			page 29


 1589              		@       str r2, [r4, # 0x04]     @TRGO
 1590 0d36 40F20025 		movw r5, # 0x200
 1591 0d3a E560     		str r5, [r4, # 0x0c]
 1592 0d3c 6825     		movs r5, # 0x68
 1593 0d3e A561     		str r5, [r4, # 0x18]
 1594 0d40 0325     		movs r5, # 0x03
 1595 0d42 2562     		str r5, [r4, # 0x20] @ ccer
 1596 0d44 4FF40045 		ldr r5, = 0x8000
 1597 0d48 6564     		str r5, [r4, # 0x44] @ BDTR
 1598 0d4a 4FF08105 		ldr r5, = 0x81
 1599 0d4e 2560     		str r5, [r4]
 1600 0d50 1A60     		str r2, [r3]
 1601 0d52 3FBD     		pop {r0-r5,pc}
 1602              	
 1603              		
 1604              	__pinlv_100khz:
 1605 0d54 3F48     		ldr r0, = 0x40023418
 1606 0d56 41F60061 		movw r1, # 0x1e00
 1607 0d5a 0160     		str r1, [r0]
 1608              	
 1609 0d5c 3F48     	        ldr r0, = cos_sin
 1610 0d5e 5449     		ldr r1, = cos_sin_100khz
 1611 0d60 404A     		ldr r2, = dft_shuliang
 1612 0d62 0160     		str r1, [r0]
 1613 0d64 1421     		movs r1, # 20
 1614 0d66 1160     		str r1, [r2]
 1615 0d68 3F48     		ldr r0, = cos_sin_shuliang
 1616 0d6a 0121     		movs r1, # 1
 1617 0d6c 0160     		str r1, [r0]
 1618              		
 1619              	
 1620              		
 1621              	@__dma_chushihua:
 1622 0d6e 3F48     		ldr r0, = 0x40020000
 1623 0d70 0021     		movs r1, # 0
 1624 0d72 8160     		str r1, [r0, # 0x08]
 1625 0d74 3E49     		ldr r1, = 0x4002084c
 1626 0d76 0161     		str r1, [r0, # 0x10]
 1627 0d78 3E49     		ldr r1, = dianyabiao
 1628 0d7a 4161     		str r1, [r0, # 0x14]
 1629 0d7c 4FF47A61 		ldr r1, = 4000                  @采样数量       sl
 1630 0d80 C160     		str r1, [r0, # 0x0c]
 1631 0d82 43F2A151 		movw r1, # 0x35a1                       @0x3581(单次)，0x35a1(循环)
 1632 0d86 8160     		str r1, [r0, # 0x08]
 1633              	
 1634 0d88 3B48     		ldr r0, = 0x40020014
 1635 0d8a 0021     		movs r1, # 0
 1636 0d8c 8160     		str r1, [r0, # 0x08]
 1637 0d8e 3B49     		ldr r1, = 0x40012c34
 1638 0d90 0161     		str r1, [r0, # 0x10]
 1639 0d92 4849     		ldr r1, = zhengxian_100khz
 1640 0d94 4161     		str r1, [r0, # 0x14]
 1641 0d96 4FF02801 		ldr r1, = 40
 1642 0d9a C160     		str r1, [r0, # 0x0c]
 1643 0d9c 1121     		movs r1, # 0x11
 1644 0d9e 8161     		str r1, [r0, # 0x18]
 1645 0da0 43F2B121 		movw r1, # 0x32b1
ARM GAS  1.s 			page 30


 1646 0da4 8160     		str r1, [r0, # 0x08]
 1647              	
 1648              	@__adc_chushihua:
 1649              		@采样时间1\128000000（MHZ）*14(周期)= 9142857HZ
 1650 0da6 3748     		ldr r0, = 0x40020800
 1651 0da8 4FF00501 		ldr r1, =  0x05
 1652 0dac 8160     		str r1, [r0, # 0x08]            @开ADC和校准
 1653              	__deng_adc_jiaozhun:
 1654 0dae 8168     		ldr r1, [r0, # 0x08]
 1655 0db0 4907     		lsls r1, r1, # 29
 1656 0db2 FCD4     		bmi __deng_adc_jiaozhun         @等ADC校准
 1657              	__deng_adc_zhunbeihao:
 1658 0db4 816D     		ldr r1, [r0, # 0x58]
 1659 0db6 8906     		lsls r1, r1, # 26
 1660 0db8 FCD5     		bpl __deng_adc_zhunbeihao       @等ADC准备好
 1661 0dba 0121     		movs r1, # 0x01                 @通道选择
 1662 0dbc 4163     		str r1, [r0, # 0x34]
 1663 0dbe 3249     		ldr r1, = 0x180101      @0X100101  @0x180101
 1664 0dc0 8160     		str r1, [r0, # 0x08]
 1665 0dc2 8160     		str r1, [r0, # 0x08]            @为啥还要开两次。。。
 1666              	
 1667              	
 1668              	
 1669 0dc4 3148     		ldr r0, = lvbo_changdu
 1670 0dc6 3249     		ldr r1, = lvbo_youyi
 1671 0dc8 5FF4C872 		movs r2, # 400
 1672 0dcc 0260     		str r2, [r0]
 1673 0dce 0A22     		movs r2, # 10
 1674 0dd0 0A60     		str r2, [r1]
 1675              	
 1676 0dd2 3048     		       ldr r0, = 0xe000e010
 1677 0dd4 3049     		      ldr r1, = 127999
 1678 0dd6 4160     		      str r1, [r0, # 4]
 1679 0dd8 8160     		      str r1, [r0, # 8]
 1680 0dda 0721     		      movs r1, # 0x07
 1681 0ddc 0160     		     str r1, [r0]    @systick 开
 1682              	
 1683              	
 1684              	@__tim3chushihua:
 1685 0dde 2F4B     		ldr r3, = 0x40000400 @ tim3_cr1
 1686 0de0 4FF00002 		ldr r2, = 0
 1687 0de4 9A62     		str r2, [r3, # 0x28] @ psc
 1688 0de6 4FF01F02 		ldr r2, = 31                  @639=200KHZ
 1689 0dea DA62     		str r2, [r3, # 0x2c] @ ARR
 1690 0dec 2022     		movs r2, # 0x20
 1691 0dee 5A60     		str r2, [r3, # 0x04] @ TRGO
 1692 0df0 0122     		movs r2, # 0x01
 1693 0df2 DA60     		str r2, [r3, # 0x0c]
 1694 0df4 8122     		movs r2, # 0x81
 1695              	@__tim1_chushiha:
 1696 0df6 2A4C     		ldr r4, = 0x40012c00 @ tim1_cr1
 1697 0df8 0025     		movs r5, # 0
 1698 0dfa A562     		str r5, [r4, # 0x28] @ psc
 1699 0dfc 4FF01F05 		ldr r5, = 31
 1700 0e00 E562     		str r5, [r4, # 0x2c] @ ARR
 1701              		@       movs r2, # 0x20
 1702              		@       str r2, [r4, # 0x04]     @TRGO
ARM GAS  1.s 			page 31


 1703 0e02 40F20025 		movw r5, # 0x200
 1704 0e06 E560     		str r5, [r4, # 0x0c]
 1705 0e08 6825     		movs r5, # 0x68
 1706 0e0a A561     		str r5, [r4, # 0x18]
 1707 0e0c 0325     		movs r5, # 0x03
 1708 0e0e 2562     		str r5, [r4, # 0x20] @ ccer
 1709 0e10 4FF40045 		ldr r5, = 0x8000
 1710 0e14 6564     		str r5, [r4, # 0x44] @ BDTR
 1711 0e16 4FF08105 		ldr r5, = 0x81
 1712 0e1a 2560     		str r5, [r4]
 1713 0e1c 1A60     		str r2, [r3]
 1714 0e1e 3FBD     		pop {r0-r5,pc}
 1715              	
 1716              	
 1717              	
 1718              	
 1719              		
 1720              	__ls_jisuan:
 1721              		入口R0=z_i
 1722 0e20 0EB4     		push {r1-r3}
 1723 0e22 43F62B61 		ldr r1, = 15915         @1591549430918953
 1724 0e26 4843     		muls r0, r0, r1
 1725 0e28 0346     		mov r3, r0
 1726 0e2a 084A     	        ldr r2, = pinlv
 1727 0e2c 1268     		ldr r2, [r2]
 1728 0e2e 2248     		ldr r0, = ls_weishu
 1729 0e30 9200     		lsls r2, r2, # 2
 1730 0e32 8258     		ldr r2, [r0, r2]
 1731 0e34 2148     		ldr r0, = liangcheng
 1732 0e36 0068     		ldr r0, [r0]
 1733 0e38 8000     		lsls r0, r0, # 2
 1734 0e3a 1258     		ldr r2, [r2, r0]
 1735 0e3c B3FBF2F3 		udiv r3, r3, r2
 1736 0e40 1F49     		ldr r1, = ls
 1737 0e42 0B60     		str r3, [r1]
 1738 0e44 0EBC     		pop {r1-r3}
 1739 0e46 7047     		bx lr
 1740 0e48 48000020 		.ltorg
 1740      4C000020 
 1740      00010000 
 1740      18340240 
 1740      18400240 
 1741              	__cs_jisuan:
 1742 0ec4 06B4     		push {r1-r2}
 1743              		@入口r0= z_i
 1744 0ec6 0146     		mov r1, r0
 1745 0ec8 C943     		mvns  r1, r1
 1746 0eca 0131     		adds r1, r1, # 1
 1747 0ecc BB4A     		ldr r2, = pinlv
 1748 0ece 1268     		ldr r2, [r2]
 1749 0ed0 BB48     		ldr r0, = cs_weishu
 1750 0ed2 9200     		lsls r2, r2, # 2
 1751 0ed4 8258     		ldr r2, [r0, r2]
 1752 0ed6 BB48     		ldr r0, = liangcheng
 1753 0ed8 0068     		ldr r0, [r0]
 1754 0eda 4000     		lsls r0, r0, # 1
 1755 0edc 125A     		ldrh r2, [r2, r0]
ARM GAS  1.s 			page 32


 1756 0ede BA48     		ldr r0, = 1591549431
 1757 0ee0 B64B     		ldr r3, = pinlv
 1758 0ee2 1B68     		ldr r3, [r3]
 1759 0ee4 042B     		cmp r3, # 4
 1760 0ee6 00D1     		bne __pinlv_xiaoyu_200k
 1761 0ee8 4008     		lsrs r0, r0, # 1
 1762              	__pinlv_xiaoyu_200k:
 1763 0eea 5143     		muls r1, r1, r2
 1764 0eec B0FBF1F0 		udiv r0, r0, r1
 1765 0ef0 B649     		ldr r1, = cs
 1766 0ef2 0860     		str r0, [r1]
 1767 0ef4 06BC     		pop {r1-r2}
 1768 0ef6 7047     		bx lr
 1769              	
 1770              		
 1771              	__xianshi_zhu_danwei:	@zdw
 1772 0ef8 1FB5     		push {r0-r4,lr}
 1773 0efa B248     		ldr r0, = liangcheng
 1774 0efc B449     		ldr r1, = rs_danwei_biao
 1775 0efe 0068     		ldr r0, [r0]
 1776 0f00 085C     		ldrb r0, [r1, r0]
 1777 0f02 0221     		movs r1, # 2             @两个字符
 1778 0f04 B34A     		ldr r2, = asciibiao
 1779 0f06 FF23     		movs r3, # 0xff
 1780 0f08 01F06BFD 		bl _zhuanascii
 1781 0f0c 0220     		movs r0, # 2            @写几个字
 1782 0f0e 2D21     		movs r1, # 45           @字库单字长度
 1783 0f10 0322     		movs r2, # 3            @宽度
 1784 0f12 46F20253 		movw r3, # 0x6502              @lcd位置(高8位0-0x83,低8位0-7)
 1785 0f16 B04C     		ldr r4, = danweibiao
 1786 0f18 01F0F5FC 		bl __xie_alabo
 1787              	
 1788              	
 1789 0f1c A748     		ldr r0, = pinlv
 1790 0f1e A949     		ldr r1, = liangcheng
 1791 0f20 AE4A     		ldr r2, = xs_cs_ls
 1792 0f22 1368     		ldr r3, [r2]
 1793 0f24 0268     		ldr r2, [r0]
 1794 0f26 9B00     		lsls r3, r3, # 2
 1795 0f28 AD48     		ldr r0, = zhucanshu_i_danwei_biao
 1796 0f2a C058     		ldr r0, [r0, r3]
 1797 0f2c 9200     		lsls r2, r2, # 2
 1798 0f2e 8058     		ldr r0, [r0, r2]
 1799 0f30 0B68     		ldr r3, [r1]
 1800 0f32 C05C     		ldrb r0, [r0, r3]
 1801              		
 1802 0f34 0221     		movs r1, # 2             @转换几个字符
 1803 0f36 A74A     		ldr r2, = asciibiao
 1804 0f38 FF23     		movs r3, # 0xff
 1805 0f3a 01F052FD 		bl _zhuanascii
 1806 0f3e 0220     		movs r0, # 2            @写几个字
 1807 0f40 2D21     		movs r1, # 45           @字库单字长度
 1808 0f42 0322     		movs r2, # 3            @宽度
 1809 0f44 46F20553 		movw r3, # 0x6505              @lcd位置(高8位0-0x83,低8位0-7)
 1810 0f48 A34C     		ldr r4, = danweibiao
 1811 0f4a 01F0DCFC 		bl __xie_alabo
 1812 0f4e 1FBD     		pop {r0-r4,pc}
ARM GAS  1.s 			page 33


 1813              	
 1814              	__adc_jiance:
 1815 0f50 1FB4     		push {r0-r4}
 1816 0f52 A448     		ldr r0, = 0x20000200
 1817 0f54 40F6F073 		movw r3, # 0xff0
 1818 0f58 0024     		movs r4, # 0
 1819 0f5a 4FF47A61 		ldr r1, = 4000
 1820 0f5e 4900     		lsls r1, r1, # 1
 1821              	__adc_jiance_xunhuan:
 1822 0f60 425A     		ldrh r2, [r0, r1]
 1823 0f62 9A42     		cmp r2, r3
 1824 0f64 00D3     		bcc __adc_yiwei
 1825 0f66 0134     		adds r4, r4, # 1
 1826              	__adc_yiwei:
 1827 0f68 0239     		subs r1, r1, # 2
 1828 0f6a F9D1     		bne __adc_jiance_xunhuan
 1829 0f6c 9E48     		ldr r0, = adc_jiance
 1830 0f6e 0460     		str r4, [r0]
 1831 0f70 B4F57A7F 		cmp r4, # 1000
 1832 0f74 FFD3     		bcc __adc_jiance_fanhui
 1833              	@	ldr r0, = liangcheng
 1834              	@	movs r1, # 3
 1835              	@	str r1, [r0]
 1836              	__adc_jiance_fanhui:
 1837 0f76 1FBC     		pop {r0-r4}
 1838 0f78 7047     		bx lr
 1839              	
 1840              		
 1841              	__zidong_dangwei:
 1842 0f7a 0FB5     		push {r0-r3,lr}
 1843 0f7c 9B48     		ldr r0, = zidong_dangwei_kaiguan
 1844 0f7e 0168     		ldr r1, [r0]
 1845 0f80 0129     		cmp r1, # 1
 1846 0f82 2CD0     		beq __zidong_dangwei_fanhui
 1847              	__huan_dang:
 1848 0f84 9A48     		ldr r0, = z_fudu	
 1849 0f86 0068     		ldr r0, [r0]
 1850 0f88 0009     		lsrs r0, r0, # 4
 1851 0f8a 4FF41673 		ldr r3, =  600
 1852 0f8e 1B09     		lsrs r3, r3, # 4
 1853 0f90 9842     		cmp r0, r3
 1854 0f92 0DD3     		bcc __dang_wei_jian
 1855 0f94 41F27073 		ldr r3, =  6000
 1856 0f98 1B09     		lsrs r3, r3, # 4
 1857 0f9a 9842     		cmp r0, r3
 1858 0f9c 10D3     		bcc __zi_dong_dang_wei_fan_hui
 1859 0f9e 8948     		ldr r0, = liangcheng
 1860 0fa0 0168     		ldr r1, [r0]
 1861 0fa2 0131     		adds r1, r1, # 1
 1862 0fa4 0160     		str r1, [r0]
 1863 0fa6 0729     		cmp r1, # 7
 1864 0fa8 0AD1     		bne __zi_dong_dang_wei_fan_hui
 1865 0faa 0621     		movs r1, # 6
 1866 0fac 0160     		str r1, [r0]
 1867 0fae 07E0     		b __zi_dong_dang_wei_fan_hui
 1868              	__dang_wei_jian:
 1869 0fb0 8448     		ldr r0, = liangcheng
ARM GAS  1.s 			page 34


 1870 0fb2 0168     		ldr r1, [r0]
 1871 0fb4 0139     		subs r1, r1, # 1
 1872 0fb6 0160     		str r1, [r0]
 1873 0fb8 FF29     		cmp r1, # 0xff
 1874 0fba 01D3     		bcc __zi_dong_dang_wei_fan_hui
 1875 0fbc 0021     		movs r1, # 0
 1876 0fbe 0160     		str r1, [r0]
 1877              	__zi_dong_dang_wei_fan_hui:
 1878 0fc0 0FBD     		pop {r0-r3,pc}
 1879              	__xianshi_adc_jiance:
 1880 0fc2 0FB5     		push {r0-r3,lr}
 1881 0fc4 8848     		ldr r0, = adc_jiance
 1882 0fc6 0521     		movs r1, # 5            @转换几个字符
 1883 0fc8 0068     		ldr r0, [r0]
 1884 0fca 824A     		ldr r2, = asciibiao
 1885 0fcc FF23     		movs r3, # 0xff             @小数点位置
 1886 0fce 01F020FD 		bl __zhuanascii
 1887 0fd2 8048     		ldr r0, = asciibiao
 1888 0fd4 0521     		movs r1, # 5           @显示几个字符
 1889 0fd6 45F60012 		movw r2, # 0x5900         @LCD位置lcd位置(高8位0-0x83,低8位0-7)
 1890 0fda 01F073FC 		bl __xie_ascii
 1891              	__zidong_dangwei_fanhui:	
 1892 0fde 0FBD     		pop {r0-r3,pc}
 1893              	
 1894              		
 1895              	__xianshi_z_fudu:
 1896 0fe0 0FB5     		push {r0-r3,lr}
 1897 0fe2 8348     	        ldr r0, = z_fudu
 1898 0fe4 0521     		movs r1, # 5             @转换几个字符
 1899 0fe6 0068     		ldr r0, [r0]
 1900 0fe8 7A4A     		ldr r2, = asciibiao
 1901 0fea FF23     		movs r3, # 0xff             @小数点位置
 1902 0fec 01F011FD 		bl __zhuanascii
 1903 0ff0 7848     		ldr r0, = asciibiao
 1904 0ff2 0521     		movs r1, # 5           @显示几个字符
 1905 0ff4 45F60142 		movw r2, # 0x5c01         @LCD位置lcd位置(高8位0-0x83,低8位0-7)
 1906 0ff8 01F064FC 		bl __xie_ascii
 1907 0ffc 0FBD     		pop {r0-r3,pc}
 1908              	__xianshi_dangwei:
 1909 0ffe 07B5     		push {r0-r2,lr}
 1910 1000 7048     		ldr r0, = liangcheng
 1911 1002 7C49     		ldr r1, = dangwei_ascii
 1912 1004 0068     		ldr r0, [r0]
 1913 1006 8000     		lsls r0, r0, # 2
 1914 1008 0858     		ldr r0, [r1, r0]
 1915 100a 0621     		movs r1, # 6           @显示几个字符
 1916 100c 40F20102 		movw r2, # 0x0001         @LCD位置lcd位置(高8位0-0x83,低8位0-7)
 1917 1010 01F058FC 		bl __xie_ascii
 1918 1014 07BD     		pop {r0-r2,pc}
 1919              		
 1920              		
 1921              	__xianshi_dangwei1:
 1922 1016 0FB5     		push {r0-r3,lr}
 1923 1018 6A48     		ldr r0, = liangcheng
 1924 101a 0221     		movs r1, # 2             @转换几个字符
 1925 101c 0068     		ldr r0, [r0]
 1926 101e 6D4A     		ldr r2, = asciibiao
ARM GAS  1.s 			page 35


 1927 1020 FF23     		movs r3, # 0xff             @小数点位置
 1928 1022 01F0F6FC 		bl __zhuanascii
 1929 1026 6B48     		ldr r0, = asciibiao
 1930 1028 0221     		movs r1, # 2           @显示几个字符
 1931 102a 47F20172 		movw r2, # 0x7701         @LCD位置lcd位置(高8位0-0x83,低8位0-7)
 1932 102e 01F049FC 		bl __xie_ascii
 1933 1032 0FBD     		pop {r0-r3,pc}
 1934              	
 1935              	__xianshi_mansu_kaiguan:
 1936 1034 0FB5     		push {r0-r3,lr}
 1937 1036 7048     		ldr r0, = mansu_kaiguan
 1938 1038 0121     		movs r1, # 1             @转换几个字符
 1939 103a 0068     		ldr r0, [r0]
 1940 103c 654A     		ldr r2, = asciibiao
 1941 103e FF23     		movs r3, # 0xff             @小数点位置
 1942 1040 01F0E7FC 		bl __zhuanascii
 1943 1044 6348     		ldr r0, = asciibiao
 1944 1046 0121     		movs r1, # 1        @显示几个字符
 1945 1048 47F20072 		movw r2, # 0x7700         @LCD位置lcd位置(高8位0-0x83,低8位0-7)
 1946 104c 01F03AFC 		bl __xie_ascii
 1947 1050 0FBD     		pop {r0-r3,pc}
 1948              	
 1949              		
 1950              	__xianshi_zukang:
 1951              		@入口R0=R，R1=I
 1952 1052 7CB5     		push {r2-r6,lr}
 1953              	       @ ldr r0, = z_r
 1954              		@ldr r1, = z_i
 1955              	@	ldr r0, [r0]
 1956              		@	ldr r5, [r1]
 1957 1054 0D46     		mov r5, r1
 1958 1056 0600     		movs r6, r0
 1959 1058 06D4     		bmi __z_r_shi_fu
 1960              	__z_r_bushi_fu:
 1961 105a 6848     		ldr r0, = kong
 1962 105c 0121     		movs r1, # 1           @显示几个字符
 1963 105e 40F60402 		movw r2, # 0x0804         @LCD位置lcd位置(高8位0-0x83,低8位0-7)
 1964 1062 01F02FFC 		bl __xie_ascii
 1965 1066 07E0     		b __xianshi_z_r
 1966              	__z_r_shi_fu:
 1967 1068 6548     		ldr r0, = fu
 1968 106a 0121     		movs r1, # 1           @显示几个字符
 1969 106c 40F60402 		movw r2, # 0x0804         @LCD位置lcd位置(高8位0-0x83,低8位0-7)
 1970 1070 01F028FC 		bl __xie_ascii
 1971 1074 F643     		mvns r6, r6
 1972 1076 0136     		adds r6, r6, # 1
 1973              	__xianshi_z_r:
 1974 1078 6248     		ldr r0, = zukang_xiaoshudian
 1975 107a 5049     		ldr r1, = pinlv
 1976 107c 514A     		ldr r2, = liangcheng
 1977 107e 0B68     		ldr r3, [r1]
 1978 1080 9B00     		lsls r3, r3, # 2
 1979 1082 1168     		ldr r1, [r2]
 1980 1084 C358     		ldr r3, [r0, r3]
 1981 1086 5B5C     		ldrb r3, [r3, r1]
 1982 1088 3046     		mov r0, r6
 1983 108a 0621     	        movs r1, # 6
ARM GAS  1.s 			page 36


 1984 108c 514A     		ldr r2, = asciibiao
 1985              	@	movs r3, # 0xff            @小数点位置
 1986 108e 01F0A8FC 		bl _zhuanascii
 1987 1092 0620     		movs r0, # 6            @写几个字
 1988 1094 3021     		movs r1, # 48           @字库单字长度
 1989 1096 0322     		movs r2, # 3            @宽度
 1990 1098 41F20213 		movw r3, # 0x1102              @lcd位置
 1991 109c 01F05AFC 		bl __xie_lcd_ascii
 1992              		
 1993              	
 1994 10a0 2E00     		movs r6, r5
 1995 10a2 06D4     		bmi __z_i_shi_fu
 1996              	__z_i_bushi_fu:
 1997 10a4 5548     		ldr r0, = kong
 1998 10a6 0121     		movs r1, # 1           @显示几个字符
 1999 10a8 40F60702 		movw r2, # 0x0807         @LCD位置lcd位置(高8位0-0x83,低8位0-7)
 2000 10ac 01F00AFC 		bl __xie_ascii
 2001 10b0 07E0     		b __xianshi_z_i
 2002              	__z_i_shi_fu:
 2003 10b2 5348     		ldr r0, = fu
 2004 10b4 0121     		movs r1, # 1           @显示几个字符
 2005 10b6 40F60702 		movw r2, # 0x0807         @LCD位置lcd位置(高8位0-0x83,低8位0-7)
 2006 10ba 01F003FC 		bl __xie_ascii
 2007 10be F643     		mvns r6, r6
 2008 10c0 0136     		adds r6, r6, # 1
 2009              	__xianshi_z_i:
 2010 10c2 3E48     	        ldr r0, = pinlv
 2011 10c4 3F49     		ldr r1, = liangcheng
 2012 10c6 454A     		ldr r2, = xs_cs_ls
 2013 10c8 1368     		ldr r3, [r2]
 2014 10ca 0268     		ldr r2, [r0]
 2015 10cc 9B00     		lsls r3, r3, # 2
 2016 10ce 4E48     		ldr r0, = zhucanshu_i_xiaoshudian
 2017 10d0 C058     		ldr r0, [r0, r3]
 2018 10d2 9200     		lsls r2, r2, # 2
 2019 10d4 8058     		ldr r0, [r0, r2]
 2020 10d6 0B68     		ldr r3, [r1]
 2021 10d8 C35C     		ldrb r3, [r0, r3]
 2022              		
 2023 10da 3046     		mov r0, r6
 2024 10dc 0621     	        movs r1, # 6
 2025 10de 3D4A     		ldr r2, = asciibiao
 2026              	@	movs r3, # 3            @小数点位置
 2027 10e0 01F07FFC 		bl _zhuanascii
 2028 10e4 0620     		movs r0, # 6            @写几个字
 2029 10e6 3021     		movs r1, # 48           @字库单字长度
 2030 10e8 0322     		movs r2, # 3            @宽度
 2031 10ea 41F20513 		movw r3, # 0x1105              @lcd位置
 2032 10ee 01F031FC 		bl __xie_lcd_ascii
 2033 10f2 7CBD     		pop {r2-r6,pc}
 2034              		
 2035              	
 2036              	__jisuan_z_fudu:
 2037              		@入口R0=a，R1=b，R2=c，R3=d
 2038 10f4 10B5     		push {r4,lr}
 2039 10f6 01F0F8FC 		bl __ji_suan_fu_du
 2040 10fa 0446     		mov r4, r0
ARM GAS  1.s 			page 37


 2041 10fc 1046     		mov r0, r2
 2042 10fe 1946     		mov r1, r3
 2043 1100 01F0F3FC 		bl __ji_suan_fu_du
 2044 1104 4FF47A72 		ldr r2, = 1000
 2045 1108 5443     		muls r4, r4, r2
 2046 110a B4FBF0F0 		udiv r0, r4, r0
 2047 110e 10BD     		pop {r4,pc}
 2048              	
 2049              	__jisuan_z_fudu1:
 2050              		@入口R0=c，R1=d，R2=a，R3=b
 2051 1110 10B5     		push {r4,lr}
 2052 1112 01F0EAFC 		bl __ji_suan_fu_du
 2053 1116 0446     		mov r4, r0
 2054 1118 1046     		mov r0, r2
 2055 111a 1946     		mov r1, r3
 2056 111c 01F0E5FC 		bl __ji_suan_fu_du
 2057 1120 4FF47A72 		ldr r2, = 1000
 2058 1124 5043     		muls r0, r0, r2
 2059 1126 B0FBF4F0 		udiv r0, r0, r4
 2060 112a 10BD     		pop {r4,pc}
 2061              		
 2062              		
 2063              	__jisuan_zukang:
 2064 112c DFB5     		push {r0-r4,r6-r7,lr}
 2065 112e 3748     		ldr r0, = jiaozhun_moshi
 2066 1130 0168     		ldr r1, [r0]
 2067 1132 0129     		cmp r1, # 1
 2068 1134 09D0     		beq __jiaozhun_moshi_zukang
 2069 1136 3648     	        ldr r0, = flash_dianzu_biao
 2070 1138 364A     		ldr r2, = flash_diankang_biao
 2071 113a 2249     		ldr r1, = liangcheng
 2072 113c 0968     		ldr r1, [r1]
 2073 113e 8900     		lsls r1, r1, # 2
 2074 1140 4458     		ldr r4, [r0, r1]
 2075 1142 5558     		ldr r5, [r2, r1]
 2076 1144 2468     		ldr r4, [r4]
 2077 1146 2D68     		ldr r5, [r5]
 2078 1148 08E0     		b __suan_zu_kang
 2079              	__jiaozhun_moshi_zukang:
 2080 114a 3348     		ldr r0, = ram_dianzu_biao
 2081 114c 334A     		ldr r2, = ram_diankang_biao
 2082 114e 1D49     		ldr r1, = liangcheng
 2083 1150 0968     		ldr r1, [r1]
 2084 1152 8900     		lsls r1, r1, # 2
 2085 1154 4458     		ldr r4, [r0, r1]
 2086 1156 5558     		ldr r5, [r2, r1]
 2087 1158 2468     		ldr r4, [r4]
 2088 115a 2D68     		ldr r5, [r5]
 2089              	__suan_zu_kang:	
 2090 115c 3048     		ldr r0, = shangbi_r
 2091 115e 3149     		ldr r1, = shangbi_i
 2092 1160 314A     		ldr r2, = xiabi_r
 2093 1162 324B     		ldr r3, = xiabi_i
 2094 1164 0068     		ldr r0, [r0]
 2095 1166 0968     		ldr r1, [r1]
 2096 1168 1268     		ldr r2, [r2]
 2097 116a 1B68     		ldr r3, [r3]
ARM GAS  1.s 			page 38


 2098 116c C000     		lsls r0, r0, # 3
 2099 116e C900     		lsls r1, r1, # 3
 2100 1170 D200     		lsls r2, r2, # 3
 2101 1172 DB00     		lsls r3, r3, # 3
 2102 1174 01F0CAFD 		bl __fushu_chufa
 2103 1178 2246     		mov r2, r4
 2104 117a 2B46     		mov r3, r5
 2105 117c 01F072FD 		bl __fushu_chengfa
 2106 1180 2B4A     		ldr r2, = z_r
 2107 1182 2C4B     		ldr r3, = z_i
 2108 1184 1060     		str r0, [r2]
 2109 1186 1960     		str r1, [r3]
 2110 1188 DFBD     		pop {r0-r4,r6-r7,pc}
 2111              	
 2112              	
 2113              	
 2114              		
 2115              	__lv_bo_qi:
 2116              		@地址顺序：指针，累加值，缓冲区
 2117              		@入口R0=缓冲区，R1=数据, r2,=指针
 2118              		@出口R0
 2119 118a F8B5     		push {r3-r7,lr}
 2120 118c 2A4C     		ldr r4, = lvbo_changdu
 2121 118e 2B4F     		ldr r7, = lvbo_youyi
 2122 1190 2468     		ldr r4, [r4]
 2123 1192 3F68     		ldr r7, [r7]
 2124 1194 1568     		ldr r5, [r2]
 2125 1196 2B46     		mov r3, r5
 2126 1198 AB00     		lsls r3, r5, # 2
 2127 119a C658     		ldr r6, [r0, r3]
 2128 119c C150     		str r1, [r0, r3]
 2129 119e 0135     		adds r5, r5, # 1
 2130 11a0 1560     		str r5, [r2]
 2131 11a2 A542     		cmp r5, r4
 2132 11a4 01D1     		bne __huanchong_leijia
 2133 11a6 0025     		movs r5, # 0
 2134 11a8 1560     		str r5, [r2]
 2135              	__huanchong_leijia:
 2136 11aa 0438     		subs r0, r0, # 4
 2137 11ac 0568     		ldr r5, [r0]
 2138 11ae 4919     		adds r1, r1, r5
 2139 11b0 891B     		subs r1, r1, r6
 2140 11b2 0160     		str r1, [r0]
 2141 11b4 3941     		asrs r1, r1, r7	 @# 12 @12 @  7	@128
 2142 11b6 0846     		mov r0, r1
 2143 11b8 F8BD     		pop {r3-r7,pc}
 2144 11ba 00004C00 		.ltorg
 2144      0020F701 
 2144      0000A001 
 2144      0020F71D 
 2144      DD5E9001 
 2145              	
 2146              	__lv_bo_qi1:
 2147              		@地址顺序：指针，累加值，缓冲区
 2148              		@入口R0=缓冲区，R1=数据, r2,=指针
 2149              		@出口R0
 2150 1240 F8B5     		push {r3-r7,lr}
ARM GAS  1.s 			page 39


 2151              		@ldr r4, =  lvbo_changdu
 2152              		@ldr r7, =  lvbo_youyi
 2153              		@ldr r4, [r4]
 2154              		@ldr r7, [r7]
 2155 1242 6424     		movs r4, # 100
 2156 1244 0627     		movs r7, # 6
 2157 1246 1568     		ldr r5, [r2]
 2158 1248 2B46     		mov r3, r5
 2159 124a AB00     		lsls r3, r5, # 2
 2160 124c C658     		ldr r6, [r0, r3]
 2161 124e C150     		str r1, [r0, r3]
 2162 1250 0135     		adds r5, r5, # 1
 2163 1252 1560     		str r5, [r2]
 2164 1254 A542     		cmp r5, r4
 2165 1256 01D1     		bne __huanchong_leijia1
 2166 1258 0025     		movs r5, # 0
 2167 125a 1560     		str r5, [r2]
 2168              	__huanchong_leijia1:
 2169 125c 0438     		subs r0, r0, # 4
 2170 125e 0568     		ldr r5, [r0]
 2171 1260 4919     		adds r1, r1, r5
 2172 1262 891B     		subs r1, r1, r6
 2173 1264 0160     		str r1, [r0]
 2174 1266 3941     		asrs r1, r1, r7  @# 12 @12 @  7 @128
 2175 1268 0846     		mov r0, r1
 2176 126a F8BD     		pop {r3-r7,pc}
 2177              		.ltorg
 2178              		
 2179              	
 2180              		
 2181              	__xianshi_shangxia_bi:
 2182 126c 2DE9FF5F 		push {r0-r12,lr}
 2183 1270 6E48     		ldr r0, = shangbi_r
 2184 1272 6F49     		ldr r1, = shangbi_i
 2185 1274 0068     		ldr r0, [r0]
 2186 1276 0F68     		ldr r7, [r1]
 2187 1278 0600     		movs r6, r0
 2188 127a 06D4     		bmi __shangbi_r_shi_fu
 2189              	__shangbi_r_bushi_fu:
 2190 127c 6D48     		ldr r0, = kong
 2191 127e 0121     		movs r1, # 1           @显示几个字符
 2192 1280 40F20002 		movw r2, # 0x00         @LCD位置lcd位置(高8位0-0x83,低8位0-7)
 2193 1284 01F01EFB 		bl __xie_ascii
 2194 1288 07E0     		b __xianshi_shangbi_r
 2195              	__shangbi_r_shi_fu:
 2196 128a 6B48     		ldr r0, = fu
 2197 128c 0121     		movs r1, # 1           @显示几个字符
 2198 128e 40F20002 		movw r2, # 0x00         @LCD位置lcd位置(高8位0-0x83,低8位0-7)
 2199 1292 01F017FB 		bl __xie_ascii
 2200 1296 F643     		mvns r6, r6
 2201 1298 0136     		adds r6, r6, # 1
 2202              	__xianshi_shangbi_r:
 2203 129a 3046     		mov r0, r6
 2204 129c 0821     		movs r1, # 8             @转换几个字符
 2205 129e 674A     		ldr r2, = asciibiao
 2206 12a0 FF23     		movs r3, # 0xff             @小数点位置
 2207 12a2 01F0B6FB 		bl __zhuanascii
ARM GAS  1.s 			page 40


 2208 12a6 6548     		ldr r0, = asciibiao
 2209 12a8 0821     		movs r1, # 8           @显示几个字符
 2210 12aa 40F60002 		movw r2, # 0x800         @LCD位置lcd位置(高8位0-0x83,低8位0-7)
 2211 12ae 01F009FB 		bl __xie_ascii
 2212              	
 2213 12b2 3E00     	        movs r6, r7
 2214 12b4 06D4     		bmi __shangbi_i_shi_fu
 2215              	__shangbi_i_bushi_fu:
 2216 12b6 5F48     		ldr r0, = kong
 2217 12b8 0121     		movs r1, # 1           @显示几个字符
 2218 12ba 44F20022 		movw r2, # 0x4200         @LCD位置lcd位置(高8位0-0x83,低8位0-7)
 2219 12be 01F001FB 		bl __xie_ascii
 2220 12c2 07E0     		b __xianshi_shangbi_i
 2221              	__shangbi_i_shi_fu:
 2222 12c4 5C48     		ldr r0, = fu
 2223 12c6 0121     		movs r1, # 1           @显示几个字符
 2224 12c8 44F20022 		movw r2, # 0x4200         @LCD位置lcd位置(高8位0-0x83,低8位0-7)
 2225 12cc 01F0FAFA 		bl __xie_ascii
 2226 12d0 F643     		mvns r6, r6
 2227 12d2 0136     		adds r6, r6, # 1
 2228              	__xianshi_shangbi_i:
 2229 12d4 3046     		mov r0, r6
 2230 12d6 0821     		movs r1, # 8             @转换几个字符
 2231 12d8 584A     		ldr r2, = asciibiao
 2232 12da FF23     		movs r3, # 0xff             @小数点位置
 2233 12dc 01F099FB 		bl __zhuanascii
 2234 12e0 5648     		ldr r0, = asciibiao
 2235 12e2 0821     		movs r1, # 8           @显示几个字符
 2236 12e4 44F60022 		movw r2, # 0x4a00         @LCD位置lcd位置(高8位0-0x83,低8位0-7)
 2237 12e8 01F0ECFA 		bl __xie_ascii
 2238              	
 2239 12ec 5448     	        ldr r0, = xiabi_r
 2240 12ee 5549     		ldr r1, = xiabi_i
 2241 12f0 0068     		ldr r0, [r0]
 2242 12f2 0F68     		ldr r7, [r1]
 2243 12f4 0600     		movs r6, r0
 2244 12f6 06D4     		bmi __xiabi_r_shi_fu
 2245              	__xiabi_r_bushi_fu:
 2246 12f8 4E48     		ldr r0, = kong
 2247 12fa 0121     		movs r1, # 1           @显示几个字符
 2248 12fc 40F20102 		movw r2, # 0x01         @LCD位置lcd位置(高8位0-0x83,低8位0-7)
 2249 1300 01F0E0FA 		bl __xie_ascii
 2250 1304 07E0     		b __xianshi_xiabi_r
 2251              	__xiabi_r_shi_fu:
 2252 1306 4C48     		ldr r0, = fu
 2253 1308 0121     		movs r1, # 1           @显示几个字符
 2254 130a 40F20102 		movw r2, # 0x01         @LCD位置lcd位置(高8位0-0x83,低8位0-7)
 2255 130e 01F0D9FA 		bl __xie_ascii
 2256 1312 F643     		mvns r6, r6
 2257 1314 0136     		adds r6, r6, # 1
 2258              	__xianshi_xiabi_r:
 2259 1316 3046     		mov r0, r6
 2260 1318 0821     		movs r1, # 8             @转换几个字符
 2261 131a 484A     		ldr r2, = asciibiao
 2262 131c FF23     		movs r3, # 0xff             @小数点位置
 2263 131e 01F078FB 		bl __zhuanascii
 2264 1322 4648     		ldr r0, = asciibiao
ARM GAS  1.s 			page 41


 2265 1324 0821     		movs r1, # 8           @显示几个字符
 2266 1326 40F60102 		movw r2, # 0x801         @LCD位置lcd位置(高8位0-0x83,低8位0-7)
 2267 132a 01F0CBFA 		bl __xie_ascii
 2268              	
 2269 132e 3E00     		movs r6, r7
 2270 1330 06D4     		bmi __xiabi_i_shi_fu
 2271              	__xiabi_i_bushi_fu:
 2272 1332 4048     		ldr r0, = kong
 2273 1334 0121     		movs r1, # 1           @显示几个字符
 2274 1336 44F20122 		movw r2, # 0x4201         @LCD位置lcd位置(高8位0-0x83,低8位0-7)
 2275 133a 01F0C3FA 		bl __xie_ascii
 2276 133e 07E0     		b __xianshi_xiabi_i
 2277              	__xiabi_i_shi_fu:
 2278 1340 3D48     		ldr r0, = fu
 2279 1342 0121     		movs r1, # 1           @显示几个字符
 2280 1344 44F20122 		movw r2, # 0x4201         @LCD位置lcd位置(高8位0-0x83,低8位0-7)
 2281 1348 01F0BCFA 		bl __xie_ascii
 2282 134c F643     		mvns r6, r6
 2283 134e 0136     		adds r6, r6, # 1
 2284              	__xianshi_xiabi_i:
 2285 1350 3046     		mov r0, r6
 2286 1352 0821     		movs r1, # 8             @转换几个字符
 2287 1354 394A     		ldr r2, = asciibiao
 2288 1356 FF23     		movs r3, # 0xff             @小数点位置
 2289 1358 01F05BFB 		bl __zhuanascii
 2290 135c 3748     		ldr r0, = asciibiao
 2291 135e 0821     		movs r1, # 8           @显示几个字符
 2292 1360 44F60122 		movw r2, # 0x4a01         @LCD位置lcd位置(高8位0-0x83,低8位0-7)
 2293 1364 01F0AEFA 		bl __xie_ascii
 2294              		
 2295 1368 BDE8FF9F 		pop {r0-r12,pc}
 2296              	
 2297              		
 2298              	
 2299              	__ceshi_dft_shijian:
 2300 136c 3648     		ldr r0, = 0xe000e010
 2301 136e 6FF07F41 		ldr r1, = 0xffffff
 2302 1372 4160     		str r1, [r0, # 4]
 2303 1374 8160     		str r1, [r0, # 8]
 2304 1376 0721     		movs r1, # 0x07
 2305 1378 0160     		str r1, [r0]    @systick 开
 2306              	
 2307 137a 3448     		ldr r0, = cos_sin
 2308 137c 3449     		ldr r1, = cos_sin_100khz
 2309 137e 0160     		str r1, [r0]
 2310 1380 3448     		ldr r0, = dft_shuliang
 2311 1382 3221     		movs r1, # 50
 2312 1384 0160     		str r1, [r0]
 2313 1386 00F06FF8 		bl __dft_jisuan
 2314              	
 2315 138a 3348     		ldr r0, = 0xe000e018
 2316 138c D0F800A0 		ldr r10, [r0]
 2317 1390 01BE     		bkpt # 1
 2318              		
 2319              	
 2320              	__lcd_xianshi_shuju_shiyan:	
 2321 1392 43F23900 		ldr r0, = 12345
ARM GAS  1.s 			page 42


 2322 1396 0621     		movs r1, # 6
 2323 1398 284A     		ldr r2, = asciibiao
 2324 139a 0423     		movs r3, # 4            @小数点位置
 2325 139c 01F021FB 		bl _zhuanascii
 2326 13a0 0620     		movs r0, # 6            @写几个字
 2327 13a2 3021     		movs r1, # 48           @字库单字长度
 2328 13a4 0322     		movs r2, # 3            @宽度
 2329 13a6 41F20013 		movw r3, # 0x1100              @lcd位置
 2330 13aa 01F0D3FA 		bl __xie_lcd_ascii
 2331              		
 2332 13ae 43F23900 		ldr r0, = 12345
 2333 13b2 0621     		movs r1, # 6
 2334 13b4 214A     		ldr r2, = asciibiao
 2335 13b6 0423     		movs r3, # 4            @小数点位置
 2336 13b8 01F013FB 		bl _zhuanascii
 2337 13bc 0620     		movs r0, # 6            @写几个字
 2338 13be 3021     		movs r1, # 48           @字库单字长度
 2339 13c0 0322     		movs r2, # 3            @宽度
 2340 13c2 41F20313 		movw r3, # 0x1103              @lcd位置
 2341 13c6 01F0C5FA 		bl __xie_lcd_ascii
 2342              		
 2343              		
 2344 13ca 4FF02900 		ldr r0, = 41
 2345 13ce 0221     		movs r1, # 2             @两个字符
 2346 13d0 1A4A     		ldr r2, = asciibiao
 2347 13d2 FF23     		movs r3, # 0xff
 2348 13d4 01F005FB 		bl _zhuanascii
 2349 13d8 0220     		movs r0, # 2            @写几个字
 2350 13da 2D21     		movs r1, # 45           @字库单字长度
 2351 13dc 0322     		movs r2, # 3            @宽度
 2352 13de 46F20053 		movw r3, # 0x6500              @lcd位置(高8位0-0x83,低8位0-7)
 2353 13e2 1E4C     		ldr r4, = danweibiao
 2354 13e4 01F08FFA 		bl __xie_alabo
 2355              		
 2356              		
 2357 13e8 4FF00700 		ldr r0, = 07
 2358 13ec 0221     		movs r1, # 2             @转换几个字符
 2359 13ee 134A     		ldr r2, = asciibiao
 2360 13f0 FF23     		movs r3, # 0xff
 2361 13f2 01F0F6FA 		bl _zhuanascii
 2362 13f6 0220     		movs r0, # 2            @写几个字
 2363 13f8 2D21     		movs r1, # 45           @字库单字长度
 2364 13fa 0322     		movs r2, # 3            @宽度
 2365 13fc 46F20353 		movw r3, # 0x6503              @lcd位置(高8位0-0x83,低8位0-7)
 2366 1400 164C     		ldr r4, = danweibiao
 2367 1402 01F080FA 		bl __xie_alabo
 2368              	
 2369 1406 1648     		ldr r0, = yjmwxwx
 2370 1408 0721     		movs r1, # 7
 2371 140a 40F20602 		movw r2, # 0x06
 2372 140e 01F059FA 		bl __xie_ascii
 2373              		
 2374 1412 1448     	        ldr r0, = 123456789
 2375 1414 0A21     		movs r1, # 10             @转换几个字符
 2376 1416 094A     		ldr r2, = asciibiao
 2377 1418 0323     		movs r3, # 3		 @小数点位置
 2378 141a 01F0FAFA 		bl __zhuanascii
ARM GAS  1.s 			page 43


 2379 141e 0748     		ldr r0, = asciibiao	 
 2380 1420 0A21     		movs r1, # 10		@显示几个字符
 2381 1422 40F20702 		movw r2, # 0x07		@LCD位置lcd位置(高8位0-0x83,低8位0-7)
 2382 1426 01F04DFA 		bl __xie_ascii
 2383 142a 7047     		bx lr
 2384 142c EC010020 		.ltorg
 2384      F0010020 
 2384      C3040000 
 2384      D9040000 
 2384      00000020 
 2385              	
 2386              		
 2387              	__dft_jisuan:	 
 2388              		@出口R0=实部，R1=虚部
 2389 1468 2DE9FC5F 		push {r2-r12,lr}
 2390 146c 0A48     		ldr r0, = dft_shuliang
 2391 146e 0B49     		ldr r1, = dft_chongfu_jishu
 2392 1470 0068     		ldr r0, [r0]
 2393 1472 0860     		str r0, [r1]
 2394 1474 0A48     		ldr r0, = cos_sin_shuliang
 2395 1476 0B49     		ldr r1, = cos_sin_jishu
 2396 1478 0068     		ldr r0, [r0]
 2397 147a 0860     		str r0, [r1]
 2398 147c 0A48     		ldr r0, = sp_zhizhen
 2399 147e C0F800D0 		str sp, [r0]
 2400 1482 DFF828D0 		ldr sp, = cos_sin
 2401 1486 DDF800D0 		ldr sp, [sp]
 2402 148a DFF824C0 		ldr r12, = dianyabiao          @dianyabiao
 2403 148e 5FF0000A 		movs r10, # 0
 2404 1492 5FF0000B 		movs r11, # 0
 2405 1496 0DE0     		b __dft_xunhuan
 2406 1498 F8010020 		.ltorg
 2406      68010020 
 2406      6C010020 
 2406      70010020 
 2406      FC010020 
 2407              	__dft_xunhuan:
 2408              		@0 (4 ge)
 2409 14b4 BDE8FC03 		pop {r2-r9}
 2410 14b8 BCE80300 		ldmia r12!, {r0-r1}
 2411 14bc 8646     		mov lr, r0
 2412 14be 5FEA1E4E 		lsrs lr, lr, # 16
 2413 14c2 0004     		lsls r0, r0, # 16
 2414 14c4 000C     		lsrs r0, r0, # 16
 2415 14c6 02FB0EF2 		mul r2, r2, lr
 2416 14ca 03FB0EF3 		mul r3, r3, lr
 2417 14ce 04FB00F4 		mul r4, r4, r0
 2418 14d2 05FB00F5 		mul r5, r5, r0
 2419 14d6 8E46     		mov lr, r1
 2420 14d8 5FEA1E4E 		lsrs lr, lr, # 16
 2421 14dc 0904     		lsls r1, r1, # 16
 2422 14de 090C     		lsrs r1, r1, # 16
 2423 14e0 06FB0EF6 		mul r6, r6, lr
 2424 14e4 07FB0EF7 		mul r7, r7, lr
 2425 14e8 08FB01F8 		mul r8, r8, r1
 2426 14ec 09FB01F9 		mul r9, r9, r1
 2427 14f0 5213     		asrs r2, r2, # 13
ARM GAS  1.s 			page 44


 2428 14f2 5B13     		asrs r3, r3, # 13
 2429 14f4 6413     		asrs r4, r4, # 13
 2430 14f6 6D13     		asrs r5, r5, # 13
 2431 14f8 7613     		asrs r6, r6, # 13
 2432 14fa 7F13     		asrs r7, r7, # 13
 2433 14fc 5FEA6838 		asrs r8, r8, # 13
 2434 1500 5FEA6939 		asrs r9, r9, # 13
 2435 1504 9244     		add r10, r10, r2
 2436 1506 A244     		add r10, r10, r4
 2437 1508 B244     		add r10, r10, r6
 2438 150a C244     		add r10, r10, r8
 2439 150c 9B44     		add r11, r11, r3
 2440 150e AB44     		add r11, r11, r5
 2441 1510 BB44     		add r11, r11, r7
 2442 1512 CB44     		add r11, r11, r9
 2443              		@1
 2444 1514 BDE8FC03 		pop {r2-r9}
 2445 1518 BCE80300 		ldmia r12!, {r0-r1}
 2446 151c 8646     		mov lr, r0
 2447 151e 5FEA1E4E 		lsrs lr, lr, # 16
 2448 1522 0004     		lsls r0, r0, # 16
 2449 1524 000C     		lsrs r0, r0, # 16
 2450 1526 02FB0EF2 		mul r2, r2, lr
 2451 152a 03FB0EF3 		mul r3, r3, lr
 2452 152e 04FB00F4 		mul r4, r4, r0
 2453 1532 05FB00F5 		mul r5, r5, r0
 2454 1536 8E46     		mov lr, r1
 2455 1538 5FEA1E4E 		lsrs lr, lr, # 16
 2456 153c 0904     		lsls r1, r1, # 16
 2457 153e 090C     		lsrs r1, r1, # 16
 2458 1540 06FB0EF6 		mul r6, r6, lr
 2459 1544 07FB0EF7 		mul r7, r7, lr
 2460 1548 08FB01F8 		mul r8, r8, r1
 2461 154c 09FB01F9 		mul r9, r9, r1
 2462 1550 5213     		asrs r2, r2, # 13
 2463 1552 5B13     		asrs r3, r3, # 13
 2464 1554 6413     		asrs r4, r4, # 13
 2465 1556 6D13     		asrs r5, r5, # 13
 2466 1558 7613     		asrs r6, r6, # 13
 2467 155a 7F13     		asrs r7, r7, # 13
 2468 155c 5FEA6838 		asrs r8, r8, # 13
 2469 1560 5FEA6939 		asrs r9, r9, # 13
 2470 1564 9244     		add r10, r10, r2
 2471 1566 A244     		add r10, r10, r4
 2472 1568 B244     		add r10, r10, r6
 2473 156a C244     		add r10, r10, r8
 2474 156c 9B44     		add r11, r11, r3
 2475 156e AB44     		add r11, r11, r5
 2476 1570 BB44     		add r11, r11, r7
 2477 1572 CB44     		add r11, r11, r9
 2478              		@2
 2479 1574 BDE8FC03 		pop {r2-r9}
 2480 1578 BCE80300 		ldmia r12!, {r0-r1}
 2481 157c 8646     		mov lr, r0
 2482 157e 5FEA1E4E 		lsrs lr, lr, # 16
 2483 1582 0004     		lsls r0, r0, # 16
 2484 1584 000C     		lsrs r0, r0, # 16
ARM GAS  1.s 			page 45


 2485 1586 02FB0EF2 		mul r2, r2, lr
 2486 158a 03FB0EF3 		mul r3, r3, lr
 2487 158e 04FB00F4 		mul r4, r4, r0
 2488 1592 05FB00F5 		mul r5, r5, r0
 2489 1596 8E46     		mov lr, r1
 2490 1598 5FEA1E4E 		lsrs lr, lr, # 16
 2491 159c 0904     		lsls r1, r1, # 16
 2492 159e 090C     		lsrs r1, r1, # 16
 2493 15a0 06FB0EF6 		mul r6, r6, lr
 2494 15a4 07FB0EF7 		mul r7, r7, lr
 2495 15a8 08FB01F8 		mul r8, r8, r1
 2496 15ac 09FB01F9 		mul r9, r9, r1
 2497 15b0 5213     		asrs r2, r2, # 13
 2498 15b2 5B13     		asrs r3, r3, # 13
 2499 15b4 6413     		asrs r4, r4, # 13
 2500 15b6 6D13     		asrs r5, r5, # 13
 2501 15b8 7613     		asrs r6, r6, # 13
 2502 15ba 7F13     		asrs r7, r7, # 13
 2503 15bc 5FEA6838 		asrs r8, r8, # 13
 2504 15c0 5FEA6939 		asrs r9, r9, # 13
 2505 15c4 9244     		add r10, r10, r2
 2506 15c6 A244     		add r10, r10, r4
 2507 15c8 B244     		add r10, r10, r6
 2508 15ca C244     		add r10, r10, r8
 2509 15cc 9B44     		add r11, r11, r3
 2510 15ce AB44     		add r11, r11, r5
 2511 15d0 BB44     		add r11, r11, r7
 2512 15d2 CB44     		add r11, r11, r9
 2513              		@3
 2514 15d4 BDE8FC03 		pop {r2-r9}
 2515 15d8 BCE80300 		ldmia r12!, {r0-r1}
 2516 15dc 8646     		mov lr, r0
 2517 15de 5FEA1E4E 		lsrs lr, lr, # 16
 2518 15e2 0004     		lsls r0, r0, # 16
 2519 15e4 000C     		lsrs r0, r0, # 16
 2520 15e6 02FB0EF2 		mul r2, r2, lr
 2521 15ea 03FB0EF3 		mul r3, r3, lr
 2522 15ee 04FB00F4 		mul r4, r4, r0
 2523 15f2 05FB00F5 		mul r5, r5, r0
 2524 15f6 8E46     		mov lr, r1
 2525 15f8 5FEA1E4E 		lsrs lr, lr, # 16
 2526 15fc 0904     		lsls r1, r1, # 16
 2527 15fe 090C     		lsrs r1, r1, # 16
 2528 1600 06FB0EF6 		mul r6, r6, lr
 2529 1604 07FB0EF7 		mul r7, r7, lr
 2530 1608 08FB01F8 		mul r8, r8, r1
 2531 160c 09FB01F9 		mul r9, r9, r1
 2532 1610 5213     		asrs r2, r2, # 13
 2533 1612 5B13     		asrs r3, r3, # 13
 2534 1614 6413     		asrs r4, r4, # 13
 2535 1616 6D13     		asrs r5, r5, # 13
 2536 1618 7613     		asrs r6, r6, # 13
 2537 161a 7F13     		asrs r7, r7, # 13
 2538 161c 5FEA6838 		asrs r8, r8, # 13
 2539 1620 5FEA6939 		asrs r9, r9, # 13
 2540 1624 9244     		add r10, r10, r2
 2541 1626 A244     		add r10, r10, r4
ARM GAS  1.s 			page 46


 2542 1628 B244     		add r10, r10, r6
 2543 162a C244     		add r10, r10, r8
 2544 162c 9B44     		add r11, r11, r3
 2545 162e AB44     		add r11, r11, r5
 2546 1630 BB44     		add r11, r11, r7
 2547 1632 CB44     		add r11, r11, r9
 2548              		@4
 2549 1634 BDE8FC03 		pop {r2-r9}
 2550 1638 BCE80300 		ldmia r12!, {r0-r1}
 2551 163c 8646     		mov lr, r0
 2552 163e 5FEA1E4E 		lsrs lr, lr, # 16
 2553 1642 0004     		lsls r0, r0, # 16
 2554 1644 000C     		lsrs r0, r0, # 16
 2555 1646 02FB0EF2 		mul r2, r2, lr
 2556 164a 03FB0EF3 		mul r3, r3, lr
 2557 164e 04FB00F4 		mul r4, r4, r0
 2558 1652 05FB00F5 		mul r5, r5, r0
 2559 1656 8E46     		mov lr, r1
 2560 1658 5FEA1E4E 		lsrs lr, lr, # 16
 2561 165c 0904     		lsls r1, r1, # 16
 2562 165e 090C     		lsrs r1, r1, # 16
 2563 1660 06FB0EF6 		mul r6, r6, lr
 2564 1664 07FB0EF7 		mul r7, r7, lr
 2565 1668 08FB01F8 		mul r8, r8, r1
 2566 166c 09FB01F9 		mul r9, r9, r1
 2567 1670 5213     		asrs r2, r2, # 13
 2568 1672 5B13     		asrs r3, r3, # 13
 2569 1674 6413     		asrs r4, r4, # 13
 2570 1676 6D13     		asrs r5, r5, # 13
 2571 1678 7613     		asrs r6, r6, # 13
 2572 167a 7F13     		asrs r7, r7, # 13
 2573 167c 5FEA6838 		asrs r8, r8, # 13
 2574 1680 5FEA6939 		asrs r9, r9, # 13
 2575 1684 9244     		add r10, r10, r2
 2576 1686 A244     		add r10, r10, r4
 2577 1688 B244     		add r10, r10, r6
 2578 168a C244     		add r10, r10, r8
 2579 168c 9B44     		add r11, r11, r3
 2580 168e AB44     		add r11, r11, r5
 2581 1690 BB44     		add r11, r11, r7
 2582 1692 CB44     		add r11, r11, r9
 2583              		@5
 2584 1694 BDE8FC03 		pop {r2-r9}
 2585 1698 BCE80300 		ldmia r12!, {r0-r1}
 2586 169c 8646     		mov lr, r0
 2587 169e 5FEA1E4E 		lsrs lr, lr, # 16
 2588 16a2 0004     		lsls r0, r0, # 16
 2589 16a4 000C     		lsrs r0, r0, # 16
 2590 16a6 02FB0EF2 		mul r2, r2, lr
 2591 16aa 03FB0EF3 		mul r3, r3, lr
 2592 16ae 04FB00F4 		mul r4, r4, r0
 2593 16b2 05FB00F5 		mul r5, r5, r0
 2594 16b6 8E46     		mov lr, r1
 2595 16b8 5FEA1E4E 		lsrs lr, lr, # 16
 2596 16bc 0904     		lsls r1, r1, # 16
 2597 16be 090C     		lsrs r1, r1, # 16
 2598 16c0 06FB0EF6 		mul r6, r6, lr
ARM GAS  1.s 			page 47


 2599 16c4 07FB0EF7 		mul r7, r7, lr
 2600 16c8 08FB01F8 		mul r8, r8, r1
 2601 16cc 09FB01F9 		mul r9, r9, r1
 2602 16d0 5213     		asrs r2, r2, # 13
 2603 16d2 5B13     		asrs r3, r3, # 13
 2604 16d4 6413     		asrs r4, r4, # 13
 2605 16d6 6D13     		asrs r5, r5, # 13
 2606 16d8 7613     		asrs r6, r6, # 13
 2607 16da 7F13     		asrs r7, r7, # 13
 2608 16dc 5FEA6838 		asrs r8, r8, # 13
 2609 16e0 5FEA6939 		asrs r9, r9, # 13
 2610 16e4 9244     		add r10, r10, r2
 2611 16e6 A244     		add r10, r10, r4
 2612 16e8 B244     		add r10, r10, r6
 2613 16ea C244     		add r10, r10, r8
 2614 16ec 9B44     		add r11, r11, r3
 2615 16ee AB44     		add r11, r11, r5
 2616 16f0 BB44     		add r11, r11, r7
 2617 16f2 CB44     		add r11, r11, r9
 2618              		@6
 2619 16f4 BDE8FC03 		pop {r2-r9}
 2620 16f8 BCE80300 		ldmia r12!, {r0-r1}
 2621 16fc 8646     		mov lr, r0
 2622 16fe 5FEA1E4E 		lsrs lr, lr, # 16
 2623 1702 0004     		lsls r0, r0, # 16
 2624 1704 000C     		lsrs r0, r0, # 16
 2625 1706 02FB0EF2 		mul r2, r2, lr
 2626 170a 03FB0EF3 		mul r3, r3, lr
 2627 170e 04FB00F4 		mul r4, r4, r0
 2628 1712 05FB00F5 		mul r5, r5, r0
 2629 1716 8E46     		mov lr, r1
 2630 1718 5FEA1E4E 		lsrs lr, lr, # 16
 2631 171c 0904     		lsls r1, r1, # 16
 2632 171e 090C     		lsrs r1, r1, # 16
 2633 1720 06FB0EF6 		mul r6, r6, lr
 2634 1724 07FB0EF7 		mul r7, r7, lr
 2635 1728 08FB01F8 		mul r8, r8, r1
 2636 172c 09FB01F9 		mul r9, r9, r1
 2637 1730 5213     		asrs r2, r2, # 13
 2638 1732 5B13     		asrs r3, r3, # 13
 2639 1734 6413     		asrs r4, r4, # 13
 2640 1736 6D13     		asrs r5, r5, # 13
 2641 1738 7613     		asrs r6, r6, # 13
 2642 173a 7F13     		asrs r7, r7, # 13
 2643 173c 5FEA6838 		asrs r8, r8, # 13
 2644 1740 5FEA6939 		asrs r9, r9, # 13
 2645 1744 9244     		add r10, r10, r2
 2646 1746 A244     		add r10, r10, r4
 2647 1748 B244     		add r10, r10, r6
 2648 174a C244     		add r10, r10, r8
 2649 174c 9B44     		add r11, r11, r3
 2650 174e AB44     		add r11, r11, r5
 2651 1750 BB44     		add r11, r11, r7
 2652 1752 CB44     		add r11, r11, r9
 2653              		@7
 2654 1754 BDE8FC03 		pop {r2-r9}
 2655 1758 BCE80300 		ldmia r12!, {r0-r1}
ARM GAS  1.s 			page 48


 2656 175c 8646     		mov lr, r0
 2657 175e 5FEA1E4E 		lsrs lr, lr, # 16
 2658 1762 0004     		lsls r0, r0, # 16
 2659 1764 000C     		lsrs r0, r0, # 16
 2660 1766 02FB0EF2 		mul r2, r2, lr
 2661 176a 03FB0EF3 		mul r3, r3, lr
 2662 176e 04FB00F4 		mul r4, r4, r0
 2663 1772 05FB00F5 		mul r5, r5, r0
 2664 1776 8E46     		mov lr, r1
 2665 1778 5FEA1E4E 		lsrs lr, lr, # 16
 2666 177c 0904     		lsls r1, r1, # 16
 2667 177e 090C     		lsrs r1, r1, # 16
 2668 1780 06FB0EF6 		mul r6, r6, lr
 2669 1784 07FB0EF7 		mul r7, r7, lr
 2670 1788 08FB01F8 		mul r8, r8, r1
 2671 178c 09FB01F9 		mul r9, r9, r1
 2672 1790 5213     		asrs r2, r2, # 13
 2673 1792 5B13     		asrs r3, r3, # 13
 2674 1794 6413     		asrs r4, r4, # 13
 2675 1796 6D13     		asrs r5, r5, # 13
 2676 1798 7613     		asrs r6, r6, # 13
 2677 179a 7F13     		asrs r7, r7, # 13
 2678 179c 5FEA6838 		asrs r8, r8, # 13
 2679 17a0 5FEA6939 		asrs r9, r9, # 13
 2680 17a4 9244     		add r10, r10, r2
 2681 17a6 A244     		add r10, r10, r4
 2682 17a8 B244     		add r10, r10, r6
 2683 17aa C244     		add r10, r10, r8
 2684 17ac 9B44     		add r11, r11, r3
 2685 17ae AB44     		add r11, r11, r5
 2686 17b0 BB44     		add r11, r11, r7
 2687 17b2 CB44     		add r11, r11, r9
 2688              		@8
 2689 17b4 BDE8FC03 		pop {r2-r9}
 2690 17b8 BCE80300 		ldmia r12!, {r0-r1}
 2691 17bc 8646     		mov lr, r0
 2692 17be 5FEA1E4E 		lsrs lr, lr, # 16
 2693 17c2 0004     		lsls r0, r0, # 16
 2694 17c4 000C     		lsrs r0, r0, # 16
 2695 17c6 02FB0EF2 		mul r2, r2, lr
 2696 17ca 03FB0EF3 		mul r3, r3, lr
 2697 17ce 04FB00F4 		mul r4, r4, r0
 2698 17d2 05FB00F5 		mul r5, r5, r0
 2699 17d6 8E46     		mov lr, r1
 2700 17d8 5FEA1E4E 		lsrs lr, lr, # 16
 2701 17dc 0904     		lsls r1, r1, # 16
 2702 17de 090C     		lsrs r1, r1, # 16
 2703 17e0 06FB0EF6 		mul r6, r6, lr
 2704 17e4 07FB0EF7 		mul r7, r7, lr
 2705 17e8 08FB01F8 		mul r8, r8, r1
 2706 17ec 09FB01F9 		mul r9, r9, r1
 2707 17f0 5213     		asrs r2, r2, # 13
 2708 17f2 5B13     		asrs r3, r3, # 13
 2709 17f4 6413     		asrs r4, r4, # 13
 2710 17f6 6D13     		asrs r5, r5, # 13
 2711 17f8 7613     		asrs r6, r6, # 13
 2712 17fa 7F13     		asrs r7, r7, # 13
ARM GAS  1.s 			page 49


 2713 17fc 5FEA6838 		asrs r8, r8, # 13
 2714 1800 5FEA6939 		asrs r9, r9, # 13
 2715 1804 9244     		add r10, r10, r2
 2716 1806 A244     		add r10, r10, r4
 2717 1808 B244     		add r10, r10, r6
 2718 180a C244     		add r10, r10, r8
 2719 180c 9B44     		add r11, r11, r3
 2720 180e AB44     		add r11, r11, r5
 2721 1810 BB44     		add r11, r11, r7
 2722 1812 CB44     		add r11, r11, r9
 2723              		@9
 2724 1814 BDE8FC03 		pop {r2-r9}
 2725 1818 BCE80300 		ldmia r12!, {r0-r1}
 2726 181c 8646     		mov lr, r0
 2727 181e 5FEA1E4E 		lsrs lr, lr, # 16
 2728 1822 0004     		lsls r0, r0, # 16
 2729 1824 000C     		lsrs r0, r0, # 16
 2730 1826 02FB0EF2 		mul r2, r2, lr
 2731 182a 03FB0EF3 		mul r3, r3, lr
 2732 182e 04FB00F4 		mul r4, r4, r0
 2733 1832 05FB00F5 		mul r5, r5, r0
 2734 1836 8E46     		mov lr, r1
 2735 1838 5FEA1E4E 		lsrs lr, lr, # 16
 2736 183c 0904     		lsls r1, r1, # 16
 2737 183e 090C     		lsrs r1, r1, # 16
 2738 1840 06FB0EF6 		mul r6, r6, lr
 2739 1844 07FB0EF7 		mul r7, r7, lr
 2740 1848 08FB01F8 		mul r8, r8, r1
 2741 184c 09FB01F9 		mul r9, r9, r1
 2742 1850 5213     		asrs r2, r2, # 13
 2743 1852 5B13     		asrs r3, r3, # 13
 2744 1854 6413     		asrs r4, r4, # 13
 2745 1856 6D13     		asrs r5, r5, # 13
 2746 1858 7613     		asrs r6, r6, # 13
 2747 185a 7F13     		asrs r7, r7, # 13
 2748 185c 5FEA6838 		asrs r8, r8, # 13
 2749 1860 5FEA6939 		asrs r9, r9, # 13
 2750 1864 9244     		add r10, r10, r2
 2751 1866 A244     		add r10, r10, r4
 2752 1868 B244     		add r10, r10, r6
 2753 186a C244     		add r10, r10, r8
 2754 186c 9B44     		add r11, r11, r3
 2755 186e AB44     		add r11, r11, r5
 2756 1870 BB44     		add r11, r11, r7
 2757 1872 CB44     		add r11, r11, r9
 2758              	
 2759              		@0 (4 ge)
 2760 1874 BDE8FC03 		pop {r2-r9}
 2761 1878 BCE80300 		ldmia r12!, {r0-r1}
 2762 187c 8646     		mov lr, r0
 2763 187e 5FEA1E4E 		lsrs lr, lr, # 16
 2764 1882 0004     		lsls r0, r0, # 16
 2765 1884 000C     		lsrs r0, r0, # 16
 2766 1886 02FB0EF2 		mul r2, r2, lr
 2767 188a 03FB0EF3 		mul r3, r3, lr
 2768 188e 04FB00F4 		mul r4, r4, r0
 2769 1892 05FB00F5 		mul r5, r5, r0
ARM GAS  1.s 			page 50


 2770 1896 8E46     		mov lr, r1
 2771 1898 5FEA1E4E 		lsrs lr, lr, # 16
 2772 189c 0904     		lsls r1, r1, # 16
 2773 189e 090C     		lsrs r1, r1, # 16
 2774 18a0 06FB0EF6 		mul r6, r6, lr
 2775 18a4 07FB0EF7 		mul r7, r7, lr
 2776 18a8 08FB01F8 		mul r8, r8, r1
 2777 18ac 09FB01F9 		mul r9, r9, r1
 2778 18b0 5213     		asrs r2, r2, # 13
 2779 18b2 5B13     		asrs r3, r3, # 13
 2780 18b4 6413     		asrs r4, r4, # 13
 2781 18b6 6D13     		asrs r5, r5, # 13
 2782 18b8 7613     		asrs r6, r6, # 13
 2783 18ba 7F13     		asrs r7, r7, # 13
 2784 18bc 5FEA6838 		asrs r8, r8, # 13
 2785 18c0 5FEA6939 		asrs r9, r9, # 13
 2786 18c4 9244     		add r10, r10, r2
 2787 18c6 A244     		add r10, r10, r4
 2788 18c8 B244     		add r10, r10, r6
 2789 18ca C244     		add r10, r10, r8
 2790 18cc 9B44     		add r11, r11, r3
 2791 18ce AB44     		add r11, r11, r5
 2792 18d0 BB44     		add r11, r11, r7
 2793 18d2 CB44     		add r11, r11, r9
 2794              		@1
 2795 18d4 BDE8FC03 		pop {r2-r9}
 2796 18d8 BCE80300 		ldmia r12!, {r0-r1}
 2797 18dc 8646     		mov lr, r0
 2798 18de 5FEA1E4E 		lsrs lr, lr, # 16
 2799 18e2 0004     		lsls r0, r0, # 16
 2800 18e4 000C     		lsrs r0, r0, # 16
 2801 18e6 02FB0EF2 		mul r2, r2, lr
 2802 18ea 03FB0EF3 		mul r3, r3, lr
 2803 18ee 04FB00F4 		mul r4, r4, r0
 2804 18f2 05FB00F5 		mul r5, r5, r0
 2805 18f6 8E46     		mov lr, r1
 2806 18f8 5FEA1E4E 		lsrs lr, lr, # 16
 2807 18fc 0904     		lsls r1, r1, # 16
 2808 18fe 090C     		lsrs r1, r1, # 16
 2809 1900 06FB0EF6 		mul r6, r6, lr
 2810 1904 07FB0EF7 		mul r7, r7, lr
 2811 1908 08FB01F8 		mul r8, r8, r1
 2812 190c 09FB01F9 		mul r9, r9, r1
 2813 1910 5213     		asrs r2, r2, # 13
 2814 1912 5B13     		asrs r3, r3, # 13
 2815 1914 6413     		asrs r4, r4, # 13
 2816 1916 6D13     		asrs r5, r5, # 13
 2817 1918 7613     		asrs r6, r6, # 13
 2818 191a 7F13     		asrs r7, r7, # 13
 2819 191c 5FEA6838 		asrs r8, r8, # 13
 2820 1920 5FEA6939 		asrs r9, r9, # 13
 2821 1924 9244     		add r10, r10, r2
 2822 1926 A244     		add r10, r10, r4
 2823 1928 B244     		add r10, r10, r6
 2824 192a C244     		add r10, r10, r8
 2825 192c 9B44     		add r11, r11, r3
 2826 192e AB44     		add r11, r11, r5
ARM GAS  1.s 			page 51


 2827 1930 BB44     		add r11, r11, r7
 2828 1932 CB44     		add r11, r11, r9
 2829              		@2
 2830 1934 BDE8FC03 		pop {r2-r9}
 2831 1938 BCE80300 		ldmia r12!, {r0-r1}
 2832 193c 8646     		mov lr, r0
 2833 193e 5FEA1E4E 		lsrs lr, lr, # 16
 2834 1942 0004     		lsls r0, r0, # 16
 2835 1944 000C     		lsrs r0, r0, # 16
 2836 1946 02FB0EF2 		mul r2, r2, lr
 2837 194a 03FB0EF3 		mul r3, r3, lr
 2838 194e 04FB00F4 		mul r4, r4, r0
 2839 1952 05FB00F5 		mul r5, r5, r0
 2840 1956 8E46     		mov lr, r1
 2841 1958 5FEA1E4E 		lsrs lr, lr, # 16
 2842 195c 0904     		lsls r1, r1, # 16
 2843 195e 090C     		lsrs r1, r1, # 16
 2844 1960 06FB0EF6 		mul r6, r6, lr
 2845 1964 07FB0EF7 		mul r7, r7, lr
 2846 1968 08FB01F8 		mul r8, r8, r1
 2847 196c 09FB01F9 		mul r9, r9, r1
 2848 1970 5213     		asrs r2, r2, # 13
 2849 1972 5B13     		asrs r3, r3, # 13
 2850 1974 6413     		asrs r4, r4, # 13
 2851 1976 6D13     		asrs r5, r5, # 13
 2852 1978 7613     		asrs r6, r6, # 13
 2853 197a 7F13     		asrs r7, r7, # 13
 2854 197c 5FEA6838 		asrs r8, r8, # 13
 2855 1980 5FEA6939 		asrs r9, r9, # 13
 2856 1984 9244     		add r10, r10, r2
 2857 1986 A244     		add r10, r10, r4
 2858 1988 B244     		add r10, r10, r6
 2859 198a C244     		add r10, r10, r8
 2860 198c 9B44     		add r11, r11, r3
 2861 198e AB44     		add r11, r11, r5
 2862 1990 BB44     		add r11, r11, r7
 2863 1992 CB44     		add r11, r11, r9
 2864              		@3
 2865 1994 BDE8FC03 		pop {r2-r9}
 2866 1998 BCE80300 		ldmia r12!, {r0-r1}
 2867 199c 8646     		mov lr, r0
 2868 199e 5FEA1E4E 		lsrs lr, lr, # 16
 2869 19a2 0004     		lsls r0, r0, # 16
 2870 19a4 000C     		lsrs r0, r0, # 16
 2871 19a6 02FB0EF2 		mul r2, r2, lr
 2872 19aa 03FB0EF3 		mul r3, r3, lr
 2873 19ae 04FB00F4 		mul r4, r4, r0
 2874 19b2 05FB00F5 		mul r5, r5, r0
 2875 19b6 8E46     		mov lr, r1
 2876 19b8 5FEA1E4E 		lsrs lr, lr, # 16
 2877 19bc 0904     		lsls r1, r1, # 16
 2878 19be 090C     		lsrs r1, r1, # 16
 2879 19c0 06FB0EF6 		mul r6, r6, lr
 2880 19c4 07FB0EF7 		mul r7, r7, lr
 2881 19c8 08FB01F8 		mul r8, r8, r1
 2882 19cc 09FB01F9 		mul r9, r9, r1
 2883 19d0 5213     		asrs r2, r2, # 13
ARM GAS  1.s 			page 52


 2884 19d2 5B13     		asrs r3, r3, # 13
 2885 19d4 6413     		asrs r4, r4, # 13
 2886 19d6 6D13     		asrs r5, r5, # 13
 2887 19d8 7613     		asrs r6, r6, # 13
 2888 19da 7F13     		asrs r7, r7, # 13
 2889 19dc 5FEA6838 		asrs r8, r8, # 13
 2890 19e0 5FEA6939 		asrs r9, r9, # 13
 2891 19e4 9244     		add r10, r10, r2
 2892 19e6 A244     		add r10, r10, r4
 2893 19e8 B244     		add r10, r10, r6
 2894 19ea C244     		add r10, r10, r8
 2895 19ec 9B44     		add r11, r11, r3
 2896 19ee AB44     		add r11, r11, r5
 2897 19f0 BB44     		add r11, r11, r7
 2898 19f2 CB44     		add r11, r11, r9
 2899              		@4
 2900 19f4 BDE8FC03 		pop {r2-r9}
 2901 19f8 BCE80300 		ldmia r12!, {r0-r1}
 2902 19fc 8646     		mov lr, r0
 2903 19fe 5FEA1E4E 		lsrs lr, lr, # 16
 2904 1a02 0004     		lsls r0, r0, # 16
 2905 1a04 000C     		lsrs r0, r0, # 16
 2906 1a06 02FB0EF2 		mul r2, r2, lr
 2907 1a0a 03FB0EF3 		mul r3, r3, lr
 2908 1a0e 04FB00F4 		mul r4, r4, r0
 2909 1a12 05FB00F5 		mul r5, r5, r0
 2910 1a16 8E46     		mov lr, r1
 2911 1a18 5FEA1E4E 		lsrs lr, lr, # 16
 2912 1a1c 0904     		lsls r1, r1, # 16
 2913 1a1e 090C     		lsrs r1, r1, # 16
 2914 1a20 06FB0EF6 		mul r6, r6, lr
 2915 1a24 07FB0EF7 		mul r7, r7, lr
 2916 1a28 08FB01F8 		mul r8, r8, r1
 2917 1a2c 09FB01F9 		mul r9, r9, r1
 2918 1a30 5213     		asrs r2, r2, # 13
 2919 1a32 5B13     		asrs r3, r3, # 13
 2920 1a34 6413     		asrs r4, r4, # 13
 2921 1a36 6D13     		asrs r5, r5, # 13
 2922 1a38 7613     		asrs r6, r6, # 13
 2923 1a3a 7F13     		asrs r7, r7, # 13
 2924 1a3c 5FEA6838 		asrs r8, r8, # 13
 2925 1a40 5FEA6939 		asrs r9, r9, # 13
 2926 1a44 9244     		add r10, r10, r2
 2927 1a46 A244     		add r10, r10, r4
 2928 1a48 B244     		add r10, r10, r6
 2929 1a4a C244     		add r10, r10, r8
 2930 1a4c 9B44     		add r11, r11, r3
 2931 1a4e AB44     		add r11, r11, r5
 2932 1a50 BB44     		add r11, r11, r7
 2933 1a52 CB44     		add r11, r11, r9
 2934              		@5
 2935 1a54 BDE8FC03 		pop {r2-r9}
 2936 1a58 BCE80300 		ldmia r12!, {r0-r1}
 2937 1a5c 8646     		mov lr, r0
 2938 1a5e 5FEA1E4E 		lsrs lr, lr, # 16
 2939 1a62 0004     		lsls r0, r0, # 16
 2940 1a64 000C     		lsrs r0, r0, # 16
ARM GAS  1.s 			page 53


 2941 1a66 02FB0EF2 		mul r2, r2, lr
 2942 1a6a 03FB0EF3 		mul r3, r3, lr
 2943 1a6e 04FB00F4 		mul r4, r4, r0
 2944 1a72 05FB00F5 		mul r5, r5, r0
 2945 1a76 8E46     		mov lr, r1
 2946 1a78 5FEA1E4E 		lsrs lr, lr, # 16
 2947 1a7c 0904     		lsls r1, r1, # 16
 2948 1a7e 090C     		lsrs r1, r1, # 16
 2949 1a80 06FB0EF6 		mul r6, r6, lr
 2950 1a84 07FB0EF7 		mul r7, r7, lr
 2951 1a88 08FB01F8 		mul r8, r8, r1
 2952 1a8c 09FB01F9 		mul r9, r9, r1
 2953 1a90 5213     		asrs r2, r2, # 13
 2954 1a92 5B13     		asrs r3, r3, # 13
 2955 1a94 6413     		asrs r4, r4, # 13
 2956 1a96 6D13     		asrs r5, r5, # 13
 2957 1a98 7613     		asrs r6, r6, # 13
 2958 1a9a 7F13     		asrs r7, r7, # 13
 2959 1a9c 5FEA6838 		asrs r8, r8, # 13
 2960 1aa0 5FEA6939 		asrs r9, r9, # 13
 2961 1aa4 9244     		add r10, r10, r2
 2962 1aa6 A244     		add r10, r10, r4
 2963 1aa8 B244     		add r10, r10, r6
 2964 1aaa C244     		add r10, r10, r8
 2965 1aac 9B44     		add r11, r11, r3
 2966 1aae AB44     		add r11, r11, r5
 2967 1ab0 BB44     		add r11, r11, r7
 2968 1ab2 CB44     		add r11, r11, r9
 2969              		@6
 2970 1ab4 BDE8FC03 		pop {r2-r9}
 2971 1ab8 BCE80300 		ldmia r12!, {r0-r1}
 2972 1abc 8646     		mov lr, r0
 2973 1abe 5FEA1E4E 		lsrs lr, lr, # 16
 2974 1ac2 0004     		lsls r0, r0, # 16
 2975 1ac4 000C     		lsrs r0, r0, # 16
 2976 1ac6 02FB0EF2 		mul r2, r2, lr
 2977 1aca 03FB0EF3 		mul r3, r3, lr
 2978 1ace 04FB00F4 		mul r4, r4, r0
 2979 1ad2 05FB00F5 		mul r5, r5, r0
 2980 1ad6 8E46     		mov lr, r1
 2981 1ad8 5FEA1E4E 		lsrs lr, lr, # 16
 2982 1adc 0904     		lsls r1, r1, # 16
 2983 1ade 090C     		lsrs r1, r1, # 16
 2984 1ae0 06FB0EF6 		mul r6, r6, lr
 2985 1ae4 07FB0EF7 		mul r7, r7, lr
 2986 1ae8 08FB01F8 		mul r8, r8, r1
 2987 1aec 09FB01F9 		mul r9, r9, r1
 2988 1af0 5213     		asrs r2, r2, # 13
 2989 1af2 5B13     		asrs r3, r3, # 13
 2990 1af4 6413     		asrs r4, r4, # 13
 2991 1af6 6D13     		asrs r5, r5, # 13
 2992 1af8 7613     		asrs r6, r6, # 13
 2993 1afa 7F13     		asrs r7, r7, # 13
 2994 1afc 5FEA6838 		asrs r8, r8, # 13
 2995 1b00 5FEA6939 		asrs r9, r9, # 13
 2996 1b04 9244     		add r10, r10, r2
 2997 1b06 A244     		add r10, r10, r4
ARM GAS  1.s 			page 54


 2998 1b08 B244     		add r10, r10, r6
 2999 1b0a C244     		add r10, r10, r8
 3000 1b0c 9B44     		add r11, r11, r3
 3001 1b0e AB44     		add r11, r11, r5
 3002 1b10 BB44     		add r11, r11, r7
 3003 1b12 CB44     		add r11, r11, r9
 3004              		@7
 3005 1b14 BDE8FC03 		pop {r2-r9}
 3006 1b18 BCE80300 		ldmia r12!, {r0-r1}
 3007 1b1c 8646     		mov lr, r0
 3008 1b1e 5FEA1E4E 		lsrs lr, lr, # 16
 3009 1b22 0004     		lsls r0, r0, # 16
 3010 1b24 000C     		lsrs r0, r0, # 16
 3011 1b26 02FB0EF2 		mul r2, r2, lr
 3012 1b2a 03FB0EF3 		mul r3, r3, lr
 3013 1b2e 04FB00F4 		mul r4, r4, r0
 3014 1b32 05FB00F5 		mul r5, r5, r0
 3015 1b36 8E46     		mov lr, r1
 3016 1b38 5FEA1E4E 		lsrs lr, lr, # 16
 3017 1b3c 0904     		lsls r1, r1, # 16
 3018 1b3e 090C     		lsrs r1, r1, # 16
 3019 1b40 06FB0EF6 		mul r6, r6, lr
 3020 1b44 07FB0EF7 		mul r7, r7, lr
 3021 1b48 08FB01F8 		mul r8, r8, r1
 3022 1b4c 09FB01F9 		mul r9, r9, r1
 3023 1b50 5213     		asrs r2, r2, # 13
 3024 1b52 5B13     		asrs r3, r3, # 13
 3025 1b54 6413     		asrs r4, r4, # 13
 3026 1b56 6D13     		asrs r5, r5, # 13
 3027 1b58 7613     		asrs r6, r6, # 13
 3028 1b5a 7F13     		asrs r7, r7, # 13
 3029 1b5c 5FEA6838 		asrs r8, r8, # 13
 3030 1b60 5FEA6939 		asrs r9, r9, # 13
 3031 1b64 9244     		add r10, r10, r2
 3032 1b66 A244     		add r10, r10, r4
 3033 1b68 B244     		add r10, r10, r6
 3034 1b6a C244     		add r10, r10, r8
 3035 1b6c 9B44     		add r11, r11, r3
 3036 1b6e AB44     		add r11, r11, r5
 3037 1b70 BB44     		add r11, r11, r7
 3038 1b72 CB44     		add r11, r11, r9
 3039              		@8
 3040 1b74 BDE8FC03 		pop {r2-r9}
 3041 1b78 BCE80300 		ldmia r12!, {r0-r1}
 3042 1b7c 8646     		mov lr, r0
 3043 1b7e 5FEA1E4E 		lsrs lr, lr, # 16
 3044 1b82 0004     		lsls r0, r0, # 16
 3045 1b84 000C     		lsrs r0, r0, # 16
 3046 1b86 02FB0EF2 		mul r2, r2, lr
 3047 1b8a 03FB0EF3 		mul r3, r3, lr
 3048 1b8e 04FB00F4 		mul r4, r4, r0
 3049 1b92 05FB00F5 		mul r5, r5, r0
 3050 1b96 8E46     		mov lr, r1
 3051 1b98 5FEA1E4E 		lsrs lr, lr, # 16
 3052 1b9c 0904     		lsls r1, r1, # 16
 3053 1b9e 090C     		lsrs r1, r1, # 16
 3054 1ba0 06FB0EF6 		mul r6, r6, lr
ARM GAS  1.s 			page 55


 3055 1ba4 07FB0EF7 		mul r7, r7, lr
 3056 1ba8 08FB01F8 		mul r8, r8, r1
 3057 1bac 09FB01F9 		mul r9, r9, r1
 3058 1bb0 5213     		asrs r2, r2, # 13
 3059 1bb2 5B13     		asrs r3, r3, # 13
 3060 1bb4 6413     		asrs r4, r4, # 13
 3061 1bb6 6D13     		asrs r5, r5, # 13
 3062 1bb8 7613     		asrs r6, r6, # 13
 3063 1bba 7F13     		asrs r7, r7, # 13
 3064 1bbc 5FEA6838 		asrs r8, r8, # 13
 3065 1bc0 5FEA6939 		asrs r9, r9, # 13
 3066 1bc4 9244     		add r10, r10, r2
 3067 1bc6 A244     		add r10, r10, r4
 3068 1bc8 B244     		add r10, r10, r6
 3069 1bca C244     		add r10, r10, r8
 3070 1bcc 9B44     		add r11, r11, r3
 3071 1bce AB44     		add r11, r11, r5
 3072 1bd0 BB44     		add r11, r11, r7
 3073 1bd2 CB44     		add r11, r11, r9
 3074              		@9
 3075 1bd4 BDE8FC03 		pop {r2-r9}
 3076 1bd8 BCE80300 		ldmia r12!, {r0-r1}
 3077 1bdc 8646     		mov lr, r0
 3078 1bde 5FEA1E4E 		lsrs lr, lr, # 16
 3079 1be2 0004     		lsls r0, r0, # 16
 3080 1be4 000C     		lsrs r0, r0, # 16
 3081 1be6 02FB0EF2 		mul r2, r2, lr
 3082 1bea 03FB0EF3 		mul r3, r3, lr
 3083 1bee 04FB00F4 		mul r4, r4, r0
 3084 1bf2 05FB00F5 		mul r5, r5, r0
 3085 1bf6 8E46     		mov lr, r1
 3086 1bf8 5FEA1E4E 		lsrs lr, lr, # 16
 3087 1bfc 0904     		lsls r1, r1, # 16
 3088 1bfe 090C     		lsrs r1, r1, # 16
 3089 1c00 06FB0EF6 		mul r6, r6, lr
 3090 1c04 07FB0EF7 		mul r7, r7, lr
 3091 1c08 08FB01F8 		mul r8, r8, r1
 3092 1c0c 09FB01F9 		mul r9, r9, r1
 3093 1c10 5213     		asrs r2, r2, # 13
 3094 1c12 5B13     		asrs r3, r3, # 13
 3095 1c14 6413     		asrs r4, r4, # 13
 3096 1c16 6D13     		asrs r5, r5, # 13
 3097 1c18 7613     		asrs r6, r6, # 13
 3098 1c1a 7F13     		asrs r7, r7, # 13
 3099 1c1c 5FEA6838 		asrs r8, r8, # 13
 3100 1c20 5FEA6939 		asrs r9, r9, # 13
 3101 1c24 9244     		add r10, r10, r2
 3102 1c26 A244     		add r10, r10, r4
 3103 1c28 B244     		add r10, r10, r6
 3104 1c2a C244     		add r10, r10, r8
 3105 1c2c 9B44     		add r11, r11, r3
 3106 1c2e AB44     		add r11, r11, r5
 3107 1c30 BB44     		add r11, r11, r7
 3108 1c32 CB44     		add r11, r11, r9
 3109              	
 3110              	
 3111              		@0 (4 ge)
ARM GAS  1.s 			page 56


 3112 1c34 BDE8FC03 		pop {r2-r9}
 3113 1c38 BCE80300 		ldmia r12!, {r0-r1}
 3114 1c3c 8646     		mov lr, r0
 3115 1c3e 5FEA1E4E 		lsrs lr, lr, # 16
 3116 1c42 0004     		lsls r0, r0, # 16
 3117 1c44 000C     		lsrs r0, r0, # 16
 3118 1c46 02FB0EF2 		mul r2, r2, lr
 3119 1c4a 03FB0EF3 		mul r3, r3, lr
 3120 1c4e 04FB00F4 		mul r4, r4, r0
 3121 1c52 05FB00F5 		mul r5, r5, r0
 3122 1c56 8E46     		mov lr, r1
 3123 1c58 5FEA1E4E 		lsrs lr, lr, # 16
 3124 1c5c 0904     		lsls r1, r1, # 16
 3125 1c5e 090C     		lsrs r1, r1, # 16
 3126 1c60 06FB0EF6 		mul r6, r6, lr
 3127 1c64 07FB0EF7 		mul r7, r7, lr
 3128 1c68 08FB01F8 		mul r8, r8, r1
 3129 1c6c 09FB01F9 		mul r9, r9, r1
 3130 1c70 5213     		asrs r2, r2, # 13
 3131 1c72 5B13     		asrs r3, r3, # 13
 3132 1c74 6413     		asrs r4, r4, # 13
 3133 1c76 6D13     		asrs r5, r5, # 13
 3134 1c78 7613     		asrs r6, r6, # 13
 3135 1c7a 7F13     		asrs r7, r7, # 13
 3136 1c7c 5FEA6838 		asrs r8, r8, # 13
 3137 1c80 5FEA6939 		asrs r9, r9, # 13
 3138 1c84 9244     		add r10, r10, r2
 3139 1c86 A244     		add r10, r10, r4
 3140 1c88 B244     		add r10, r10, r6
 3141 1c8a C244     		add r10, r10, r8
 3142 1c8c 9B44     		add r11, r11, r3
 3143 1c8e AB44     		add r11, r11, r5
 3144 1c90 BB44     		add r11, r11, r7
 3145 1c92 CB44     		add r11, r11, r9
 3146              		@1
 3147 1c94 BDE8FC03 		pop {r2-r9}
 3148 1c98 BCE80300 		ldmia r12!, {r0-r1}
 3149 1c9c 8646     		mov lr, r0
 3150 1c9e 5FEA1E4E 		lsrs lr, lr, # 16
 3151 1ca2 0004     		lsls r0, r0, # 16
 3152 1ca4 000C     		lsrs r0, r0, # 16
 3153 1ca6 02FB0EF2 		mul r2, r2, lr
 3154 1caa 03FB0EF3 		mul r3, r3, lr
 3155 1cae 04FB00F4 		mul r4, r4, r0
 3156 1cb2 05FB00F5 		mul r5, r5, r0
 3157 1cb6 8E46     		mov lr, r1
 3158 1cb8 5FEA1E4E 		lsrs lr, lr, # 16
 3159 1cbc 0904     		lsls r1, r1, # 16
 3160 1cbe 090C     		lsrs r1, r1, # 16
 3161 1cc0 06FB0EF6 		mul r6, r6, lr
 3162 1cc4 07FB0EF7 		mul r7, r7, lr
 3163 1cc8 08FB01F8 		mul r8, r8, r1
 3164 1ccc 09FB01F9 		mul r9, r9, r1
 3165 1cd0 5213     		asrs r2, r2, # 13
 3166 1cd2 5B13     		asrs r3, r3, # 13
 3167 1cd4 6413     		asrs r4, r4, # 13
 3168 1cd6 6D13     		asrs r5, r5, # 13
ARM GAS  1.s 			page 57


 3169 1cd8 7613     		asrs r6, r6, # 13
 3170 1cda 7F13     		asrs r7, r7, # 13
 3171 1cdc 5FEA6838 		asrs r8, r8, # 13
 3172 1ce0 5FEA6939 		asrs r9, r9, # 13
 3173 1ce4 9244     		add r10, r10, r2
 3174 1ce6 A244     		add r10, r10, r4
 3175 1ce8 B244     		add r10, r10, r6
 3176 1cea C244     		add r10, r10, r8
 3177 1cec 9B44     		add r11, r11, r3
 3178 1cee AB44     		add r11, r11, r5
 3179 1cf0 BB44     		add r11, r11, r7
 3180 1cf2 CB44     		add r11, r11, r9
 3181              		@2
 3182 1cf4 BDE8FC03 		pop {r2-r9}
 3183 1cf8 BCE80300 		ldmia r12!, {r0-r1}
 3184 1cfc 8646     		mov lr, r0
 3185 1cfe 5FEA1E4E 		lsrs lr, lr, # 16
 3186 1d02 0004     		lsls r0, r0, # 16
 3187 1d04 000C     		lsrs r0, r0, # 16
 3188 1d06 02FB0EF2 		mul r2, r2, lr
 3189 1d0a 03FB0EF3 		mul r3, r3, lr
 3190 1d0e 04FB00F4 		mul r4, r4, r0
 3191 1d12 05FB00F5 		mul r5, r5, r0
 3192 1d16 8E46     		mov lr, r1
 3193 1d18 5FEA1E4E 		lsrs lr, lr, # 16
 3194 1d1c 0904     		lsls r1, r1, # 16
 3195 1d1e 090C     		lsrs r1, r1, # 16
 3196 1d20 06FB0EF6 		mul r6, r6, lr
 3197 1d24 07FB0EF7 		mul r7, r7, lr
 3198 1d28 08FB01F8 		mul r8, r8, r1
 3199 1d2c 09FB01F9 		mul r9, r9, r1
 3200 1d30 5213     		asrs r2, r2, # 13
 3201 1d32 5B13     		asrs r3, r3, # 13
 3202 1d34 6413     		asrs r4, r4, # 13
 3203 1d36 6D13     		asrs r5, r5, # 13
 3204 1d38 7613     		asrs r6, r6, # 13
 3205 1d3a 7F13     		asrs r7, r7, # 13
 3206 1d3c 5FEA6838 		asrs r8, r8, # 13
 3207 1d40 5FEA6939 		asrs r9, r9, # 13
 3208 1d44 9244     		add r10, r10, r2
 3209 1d46 A244     		add r10, r10, r4
 3210 1d48 B244     		add r10, r10, r6
 3211 1d4a C244     		add r10, r10, r8
 3212 1d4c 9B44     		add r11, r11, r3
 3213 1d4e AB44     		add r11, r11, r5
 3214 1d50 BB44     		add r11, r11, r7
 3215 1d52 CB44     		add r11, r11, r9
 3216              		@3
 3217 1d54 BDE8FC03 		pop {r2-r9}
 3218 1d58 BCE80300 		ldmia r12!, {r0-r1}
 3219 1d5c 8646     		mov lr, r0
 3220 1d5e 5FEA1E4E 		lsrs lr, lr, # 16
 3221 1d62 0004     		lsls r0, r0, # 16
 3222 1d64 000C     		lsrs r0, r0, # 16
 3223 1d66 02FB0EF2 		mul r2, r2, lr
 3224 1d6a 03FB0EF3 		mul r3, r3, lr
 3225 1d6e 04FB00F4 		mul r4, r4, r0
ARM GAS  1.s 			page 58


 3226 1d72 05FB00F5 		mul r5, r5, r0
 3227 1d76 8E46     		mov lr, r1
 3228 1d78 5FEA1E4E 		lsrs lr, lr, # 16
 3229 1d7c 0904     		lsls r1, r1, # 16
 3230 1d7e 090C     		lsrs r1, r1, # 16
 3231 1d80 06FB0EF6 		mul r6, r6, lr
 3232 1d84 07FB0EF7 		mul r7, r7, lr
 3233 1d88 08FB01F8 		mul r8, r8, r1
 3234 1d8c 09FB01F9 		mul r9, r9, r1
 3235 1d90 5213     		asrs r2, r2, # 13
 3236 1d92 5B13     		asrs r3, r3, # 13
 3237 1d94 6413     		asrs r4, r4, # 13
 3238 1d96 6D13     		asrs r5, r5, # 13
 3239 1d98 7613     		asrs r6, r6, # 13
 3240 1d9a 7F13     		asrs r7, r7, # 13
 3241 1d9c 5FEA6838 		asrs r8, r8, # 13
 3242 1da0 5FEA6939 		asrs r9, r9, # 13
 3243 1da4 9244     		add r10, r10, r2
 3244 1da6 A244     		add r10, r10, r4
 3245 1da8 B244     		add r10, r10, r6
 3246 1daa C244     		add r10, r10, r8
 3247 1dac 9B44     		add r11, r11, r3
 3248 1dae AB44     		add r11, r11, r5
 3249 1db0 BB44     		add r11, r11, r7
 3250 1db2 CB44     		add r11, r11, r9
 3251              		@4
 3252 1db4 BDE8FC03 		pop {r2-r9}
 3253 1db8 BCE80300 		ldmia r12!, {r0-r1}
 3254 1dbc 8646     		mov lr, r0
 3255 1dbe 5FEA1E4E 		lsrs lr, lr, # 16
 3256 1dc2 0004     		lsls r0, r0, # 16
 3257 1dc4 000C     		lsrs r0, r0, # 16
 3258 1dc6 02FB0EF2 		mul r2, r2, lr
 3259 1dca 03FB0EF3 		mul r3, r3, lr
 3260 1dce 04FB00F4 		mul r4, r4, r0
 3261 1dd2 05FB00F5 		mul r5, r5, r0
 3262 1dd6 8E46     		mov lr, r1
 3263 1dd8 5FEA1E4E 		lsrs lr, lr, # 16
 3264 1ddc 0904     		lsls r1, r1, # 16
 3265 1dde 090C     		lsrs r1, r1, # 16
 3266 1de0 06FB0EF6 		mul r6, r6, lr
 3267 1de4 07FB0EF7 		mul r7, r7, lr
 3268 1de8 08FB01F8 		mul r8, r8, r1
 3269 1dec 09FB01F9 		mul r9, r9, r1
 3270 1df0 5213     		asrs r2, r2, # 13
 3271 1df2 5B13     		asrs r3, r3, # 13
 3272 1df4 6413     		asrs r4, r4, # 13
 3273 1df6 6D13     		asrs r5, r5, # 13
 3274 1df8 7613     		asrs r6, r6, # 13
 3275 1dfa 7F13     		asrs r7, r7, # 13
 3276 1dfc 5FEA6838 		asrs r8, r8, # 13
 3277 1e00 5FEA6939 		asrs r9, r9, # 13
 3278 1e04 9244     		add r10, r10, r2
 3279 1e06 A244     		add r10, r10, r4
 3280 1e08 B244     		add r10, r10, r6
 3281 1e0a C244     		add r10, r10, r8
 3282 1e0c 9B44     		add r11, r11, r3
ARM GAS  1.s 			page 59


 3283 1e0e AB44     		add r11, r11, r5
 3284 1e10 BB44     		add r11, r11, r7
 3285 1e12 CB44     		add r11, r11, r9
 3286              		@5
 3287 1e14 BDE8FC03 		pop {r2-r9}
 3288 1e18 BCE80300 		ldmia r12!, {r0-r1}
 3289 1e1c 8646     		mov lr, r0
 3290 1e1e 5FEA1E4E 		lsrs lr, lr, # 16
 3291 1e22 0004     		lsls r0, r0, # 16
 3292 1e24 000C     		lsrs r0, r0, # 16
 3293 1e26 02FB0EF2 		mul r2, r2, lr
 3294 1e2a 03FB0EF3 		mul r3, r3, lr
 3295 1e2e 04FB00F4 		mul r4, r4, r0
 3296 1e32 05FB00F5 		mul r5, r5, r0
 3297 1e36 8E46     		mov lr, r1
 3298 1e38 5FEA1E4E 		lsrs lr, lr, # 16
 3299 1e3c 0904     		lsls r1, r1, # 16
 3300 1e3e 090C     		lsrs r1, r1, # 16
 3301 1e40 06FB0EF6 		mul r6, r6, lr
 3302 1e44 07FB0EF7 		mul r7, r7, lr
 3303 1e48 08FB01F8 		mul r8, r8, r1
 3304 1e4c 09FB01F9 		mul r9, r9, r1
 3305 1e50 5213     		asrs r2, r2, # 13
 3306 1e52 5B13     		asrs r3, r3, # 13
 3307 1e54 6413     		asrs r4, r4, # 13
 3308 1e56 6D13     		asrs r5, r5, # 13
 3309 1e58 7613     		asrs r6, r6, # 13
 3310 1e5a 7F13     		asrs r7, r7, # 13
 3311 1e5c 5FEA6838 		asrs r8, r8, # 13
 3312 1e60 5FEA6939 		asrs r9, r9, # 13
 3313 1e64 9244     		add r10, r10, r2
 3314 1e66 A244     		add r10, r10, r4
 3315 1e68 B244     		add r10, r10, r6
 3316 1e6a C244     		add r10, r10, r8
 3317 1e6c 9B44     		add r11, r11, r3
 3318 1e6e AB44     		add r11, r11, r5
 3319 1e70 BB44     		add r11, r11, r7
 3320 1e72 CB44     		add r11, r11, r9
 3321              		@6
 3322 1e74 BDE8FC03 		pop {r2-r9}
 3323 1e78 BCE80300 		ldmia r12!, {r0-r1}
 3324 1e7c 8646     		mov lr, r0
 3325 1e7e 5FEA1E4E 		lsrs lr, lr, # 16
 3326 1e82 0004     		lsls r0, r0, # 16
 3327 1e84 000C     		lsrs r0, r0, # 16
 3328 1e86 02FB0EF2 		mul r2, r2, lr
 3329 1e8a 03FB0EF3 		mul r3, r3, lr
 3330 1e8e 04FB00F4 		mul r4, r4, r0
 3331 1e92 05FB00F5 		mul r5, r5, r0
 3332 1e96 8E46     		mov lr, r1
 3333 1e98 5FEA1E4E 		lsrs lr, lr, # 16
 3334 1e9c 0904     		lsls r1, r1, # 16
 3335 1e9e 090C     		lsrs r1, r1, # 16
 3336 1ea0 06FB0EF6 		mul r6, r6, lr
 3337 1ea4 07FB0EF7 		mul r7, r7, lr
 3338 1ea8 08FB01F8 		mul r8, r8, r1
 3339 1eac 09FB01F9 		mul r9, r9, r1
ARM GAS  1.s 			page 60


 3340 1eb0 5213     		asrs r2, r2, # 13
 3341 1eb2 5B13     		asrs r3, r3, # 13
 3342 1eb4 6413     		asrs r4, r4, # 13
 3343 1eb6 6D13     		asrs r5, r5, # 13
 3344 1eb8 7613     		asrs r6, r6, # 13
 3345 1eba 7F13     		asrs r7, r7, # 13
 3346 1ebc 5FEA6838 		asrs r8, r8, # 13
 3347 1ec0 5FEA6939 		asrs r9, r9, # 13
 3348 1ec4 9244     		add r10, r10, r2
 3349 1ec6 A244     		add r10, r10, r4
 3350 1ec8 B244     		add r10, r10, r6
 3351 1eca C244     		add r10, r10, r8
 3352 1ecc 9B44     		add r11, r11, r3
 3353 1ece AB44     		add r11, r11, r5
 3354 1ed0 BB44     		add r11, r11, r7
 3355 1ed2 CB44     		add r11, r11, r9
 3356              		@7
 3357 1ed4 BDE8FC03 		pop {r2-r9}
 3358 1ed8 BCE80300 		ldmia r12!, {r0-r1}
 3359 1edc 8646     		mov lr, r0
 3360 1ede 5FEA1E4E 		lsrs lr, lr, # 16
 3361 1ee2 0004     		lsls r0, r0, # 16
 3362 1ee4 000C     		lsrs r0, r0, # 16
 3363 1ee6 02FB0EF2 		mul r2, r2, lr
 3364 1eea 03FB0EF3 		mul r3, r3, lr
 3365 1eee 04FB00F4 		mul r4, r4, r0
 3366 1ef2 05FB00F5 		mul r5, r5, r0
 3367 1ef6 8E46     		mov lr, r1
 3368 1ef8 5FEA1E4E 		lsrs lr, lr, # 16
 3369 1efc 0904     		lsls r1, r1, # 16
 3370 1efe 090C     		lsrs r1, r1, # 16
 3371 1f00 06FB0EF6 		mul r6, r6, lr
 3372 1f04 07FB0EF7 		mul r7, r7, lr
 3373 1f08 08FB01F8 		mul r8, r8, r1
 3374 1f0c 09FB01F9 		mul r9, r9, r1
 3375 1f10 5213     		asrs r2, r2, # 13
 3376 1f12 5B13     		asrs r3, r3, # 13
 3377 1f14 6413     		asrs r4, r4, # 13
 3378 1f16 6D13     		asrs r5, r5, # 13
 3379 1f18 7613     		asrs r6, r6, # 13
 3380 1f1a 7F13     		asrs r7, r7, # 13
 3381 1f1c 5FEA6838 		asrs r8, r8, # 13
 3382 1f20 5FEA6939 		asrs r9, r9, # 13
 3383 1f24 9244     		add r10, r10, r2
 3384 1f26 A244     		add r10, r10, r4
 3385 1f28 B244     		add r10, r10, r6
 3386 1f2a C244     		add r10, r10, r8
 3387 1f2c 9B44     		add r11, r11, r3
 3388 1f2e AB44     		add r11, r11, r5
 3389 1f30 BB44     		add r11, r11, r7
 3390 1f32 CB44     		add r11, r11, r9
 3391              		@8
 3392 1f34 BDE8FC03 		pop {r2-r9}
 3393 1f38 BCE80300 		ldmia r12!, {r0-r1}
 3394 1f3c 8646     		mov lr, r0
 3395 1f3e 5FEA1E4E 		lsrs lr, lr, # 16
 3396 1f42 0004     		lsls r0, r0, # 16
ARM GAS  1.s 			page 61


 3397 1f44 000C     		lsrs r0, r0, # 16
 3398 1f46 02FB0EF2 		mul r2, r2, lr
 3399 1f4a 03FB0EF3 		mul r3, r3, lr
 3400 1f4e 04FB00F4 		mul r4, r4, r0
 3401 1f52 05FB00F5 		mul r5, r5, r0
 3402 1f56 8E46     		mov lr, r1
 3403 1f58 5FEA1E4E 		lsrs lr, lr, # 16
 3404 1f5c 0904     		lsls r1, r1, # 16
 3405 1f5e 090C     		lsrs r1, r1, # 16
 3406 1f60 06FB0EF6 		mul r6, r6, lr
 3407 1f64 07FB0EF7 		mul r7, r7, lr
 3408 1f68 08FB01F8 		mul r8, r8, r1
 3409 1f6c 09FB01F9 		mul r9, r9, r1
 3410 1f70 5213     		asrs r2, r2, # 13
 3411 1f72 5B13     		asrs r3, r3, # 13
 3412 1f74 6413     		asrs r4, r4, # 13
 3413 1f76 6D13     		asrs r5, r5, # 13
 3414 1f78 7613     		asrs r6, r6, # 13
 3415 1f7a 7F13     		asrs r7, r7, # 13
 3416 1f7c 5FEA6838 		asrs r8, r8, # 13
 3417 1f80 5FEA6939 		asrs r9, r9, # 13
 3418 1f84 9244     		add r10, r10, r2
 3419 1f86 A244     		add r10, r10, r4
 3420 1f88 B244     		add r10, r10, r6
 3421 1f8a C244     		add r10, r10, r8
 3422 1f8c 9B44     		add r11, r11, r3
 3423 1f8e AB44     		add r11, r11, r5
 3424 1f90 BB44     		add r11, r11, r7
 3425 1f92 CB44     		add r11, r11, r9
 3426              		@9
 3427 1f94 BDE8FC03 		pop {r2-r9}
 3428 1f98 BCE80300 		ldmia r12!, {r0-r1}
 3429 1f9c 8646     		mov lr, r0
 3430 1f9e 5FEA1E4E 		lsrs lr, lr, # 16
 3431 1fa2 0004     		lsls r0, r0, # 16
 3432 1fa4 000C     		lsrs r0, r0, # 16
 3433 1fa6 02FB0EF2 		mul r2, r2, lr
 3434 1faa 03FB0EF3 		mul r3, r3, lr
 3435 1fae 04FB00F4 		mul r4, r4, r0
 3436 1fb2 05FB00F5 		mul r5, r5, r0
 3437 1fb6 8E46     		mov lr, r1
 3438 1fb8 5FEA1E4E 		lsrs lr, lr, # 16
 3439 1fbc 0904     		lsls r1, r1, # 16
 3440 1fbe 090C     		lsrs r1, r1, # 16
 3441 1fc0 06FB0EF6 		mul r6, r6, lr
 3442 1fc4 07FB0EF7 		mul r7, r7, lr
 3443 1fc8 08FB01F8 		mul r8, r8, r1
 3444 1fcc 09FB01F9 		mul r9, r9, r1
 3445 1fd0 5213     		asrs r2, r2, # 13
 3446 1fd2 5B13     		asrs r3, r3, # 13
 3447 1fd4 6413     		asrs r4, r4, # 13
 3448 1fd6 6D13     		asrs r5, r5, # 13
 3449 1fd8 7613     		asrs r6, r6, # 13
 3450 1fda 7F13     		asrs r7, r7, # 13
 3451 1fdc 5FEA6838 		asrs r8, r8, # 13
 3452 1fe0 5FEA6939 		asrs r9, r9, # 13
 3453 1fe4 9244     		add r10, r10, r2
ARM GAS  1.s 			page 62


 3454 1fe6 A244     		add r10, r10, r4
 3455 1fe8 B244     		add r10, r10, r6
 3456 1fea C244     		add r10, r10, r8
 3457 1fec 9B44     		add r11, r11, r3
 3458 1fee AB44     		add r11, r11, r5
 3459 1ff0 BB44     		add r11, r11, r7
 3460 1ff2 CB44     		add r11, r11, r9
 3461              	
 3462              	
 3463              		@0 (4 ge)
 3464 1ff4 BDE8FC03 		pop {r2-r9}
 3465 1ff8 BCE80300 		ldmia r12!, {r0-r1}
 3466 1ffc 8646     		mov lr, r0
 3467 1ffe 5FEA1E4E 		lsrs lr, lr, # 16
 3468 2002 0004     		lsls r0, r0, # 16
 3469 2004 000C     		lsrs r0, r0, # 16
 3470 2006 02FB0EF2 		mul r2, r2, lr
 3471 200a 03FB0EF3 		mul r3, r3, lr
 3472 200e 04FB00F4 		mul r4, r4, r0
 3473 2012 05FB00F5 		mul r5, r5, r0
 3474 2016 8E46     		mov lr, r1
 3475 2018 5FEA1E4E 		lsrs lr, lr, # 16
 3476 201c 0904     		lsls r1, r1, # 16
 3477 201e 090C     		lsrs r1, r1, # 16
 3478 2020 06FB0EF6 		mul r6, r6, lr
 3479 2024 07FB0EF7 		mul r7, r7, lr
 3480 2028 08FB01F8 		mul r8, r8, r1
 3481 202c 09FB01F9 		mul r9, r9, r1
 3482 2030 5213     		asrs r2, r2, # 13
 3483 2032 5B13     		asrs r3, r3, # 13
 3484 2034 6413     		asrs r4, r4, # 13
 3485 2036 6D13     		asrs r5, r5, # 13
 3486 2038 7613     		asrs r6, r6, # 13
 3487 203a 7F13     		asrs r7, r7, # 13
 3488 203c 5FEA6838 		asrs r8, r8, # 13
 3489 2040 5FEA6939 		asrs r9, r9, # 13
 3490 2044 9244     		add r10, r10, r2
 3491 2046 A244     		add r10, r10, r4
 3492 2048 B244     		add r10, r10, r6
 3493 204a C244     		add r10, r10, r8
 3494 204c 9B44     		add r11, r11, r3
 3495 204e AB44     		add r11, r11, r5
 3496 2050 BB44     		add r11, r11, r7
 3497 2052 CB44     		add r11, r11, r9
 3498              		@1
 3499 2054 BDE8FC03 		pop {r2-r9}
 3500 2058 BCE80300 		ldmia r12!, {r0-r1}
 3501 205c 8646     		mov lr, r0
 3502 205e 5FEA1E4E 		lsrs lr, lr, # 16
 3503 2062 0004     		lsls r0, r0, # 16
 3504 2064 000C     		lsrs r0, r0, # 16
 3505 2066 02FB0EF2 		mul r2, r2, lr
 3506 206a 03FB0EF3 		mul r3, r3, lr
 3507 206e 04FB00F4 		mul r4, r4, r0
 3508 2072 05FB00F5 		mul r5, r5, r0
 3509 2076 8E46     		mov lr, r1
 3510 2078 5FEA1E4E 		lsrs lr, lr, # 16
ARM GAS  1.s 			page 63


 3511 207c 0904     		lsls r1, r1, # 16
 3512 207e 090C     		lsrs r1, r1, # 16
 3513 2080 06FB0EF6 		mul r6, r6, lr
 3514 2084 07FB0EF7 		mul r7, r7, lr
 3515 2088 08FB01F8 		mul r8, r8, r1
 3516 208c 09FB01F9 		mul r9, r9, r1
 3517 2090 5213     		asrs r2, r2, # 13
 3518 2092 5B13     		asrs r3, r3, # 13
 3519 2094 6413     		asrs r4, r4, # 13
 3520 2096 6D13     		asrs r5, r5, # 13
 3521 2098 7613     		asrs r6, r6, # 13
 3522 209a 7F13     		asrs r7, r7, # 13
 3523 209c 5FEA6838 		asrs r8, r8, # 13
 3524 20a0 5FEA6939 		asrs r9, r9, # 13
 3525 20a4 9244     		add r10, r10, r2
 3526 20a6 A244     		add r10, r10, r4
 3527 20a8 B244     		add r10, r10, r6
 3528 20aa C244     		add r10, r10, r8
 3529 20ac 9B44     		add r11, r11, r3
 3530 20ae AB44     		add r11, r11, r5
 3531 20b0 BB44     		add r11, r11, r7
 3532 20b2 CB44     		add r11, r11, r9
 3533              		@2
 3534 20b4 BDE8FC03 		pop {r2-r9}
 3535 20b8 BCE80300 		ldmia r12!, {r0-r1}
 3536 20bc 8646     		mov lr, r0
 3537 20be 5FEA1E4E 		lsrs lr, lr, # 16
 3538 20c2 0004     		lsls r0, r0, # 16
 3539 20c4 000C     		lsrs r0, r0, # 16
 3540 20c6 02FB0EF2 		mul r2, r2, lr
 3541 20ca 03FB0EF3 		mul r3, r3, lr
 3542 20ce 04FB00F4 		mul r4, r4, r0
 3543 20d2 05FB00F5 		mul r5, r5, r0
 3544 20d6 8E46     		mov lr, r1
 3545 20d8 5FEA1E4E 		lsrs lr, lr, # 16
 3546 20dc 0904     		lsls r1, r1, # 16
 3547 20de 090C     		lsrs r1, r1, # 16
 3548 20e0 06FB0EF6 		mul r6, r6, lr
 3549 20e4 07FB0EF7 		mul r7, r7, lr
 3550 20e8 08FB01F8 		mul r8, r8, r1
 3551 20ec 09FB01F9 		mul r9, r9, r1
 3552 20f0 5213     		asrs r2, r2, # 13
 3553 20f2 5B13     		asrs r3, r3, # 13
 3554 20f4 6413     		asrs r4, r4, # 13
 3555 20f6 6D13     		asrs r5, r5, # 13
 3556 20f8 7613     		asrs r6, r6, # 13
 3557 20fa 7F13     		asrs r7, r7, # 13
 3558 20fc 5FEA6838 		asrs r8, r8, # 13
 3559 2100 5FEA6939 		asrs r9, r9, # 13
 3560 2104 9244     		add r10, r10, r2
 3561 2106 A244     		add r10, r10, r4
 3562 2108 B244     		add r10, r10, r6
 3563 210a C244     		add r10, r10, r8
 3564 210c 9B44     		add r11, r11, r3
 3565 210e AB44     		add r11, r11, r5
 3566 2110 BB44     		add r11, r11, r7
 3567 2112 CB44     		add r11, r11, r9
ARM GAS  1.s 			page 64


 3568              		@3
 3569 2114 BDE8FC03 		pop {r2-r9}
 3570 2118 BCE80300 		ldmia r12!, {r0-r1}
 3571 211c 8646     		mov lr, r0
 3572 211e 5FEA1E4E 		lsrs lr, lr, # 16
 3573 2122 0004     		lsls r0, r0, # 16
 3574 2124 000C     		lsrs r0, r0, # 16
 3575 2126 02FB0EF2 		mul r2, r2, lr
 3576 212a 03FB0EF3 		mul r3, r3, lr
 3577 212e 04FB00F4 		mul r4, r4, r0
 3578 2132 05FB00F5 		mul r5, r5, r0
 3579 2136 8E46     		mov lr, r1
 3580 2138 5FEA1E4E 		lsrs lr, lr, # 16
 3581 213c 0904     		lsls r1, r1, # 16
 3582 213e 090C     		lsrs r1, r1, # 16
 3583 2140 06FB0EF6 		mul r6, r6, lr
 3584 2144 07FB0EF7 		mul r7, r7, lr
 3585 2148 08FB01F8 		mul r8, r8, r1
 3586 214c 09FB01F9 		mul r9, r9, r1
 3587 2150 5213     		asrs r2, r2, # 13
 3588 2152 5B13     		asrs r3, r3, # 13
 3589 2154 6413     		asrs r4, r4, # 13
 3590 2156 6D13     		asrs r5, r5, # 13
 3591 2158 7613     		asrs r6, r6, # 13
 3592 215a 7F13     		asrs r7, r7, # 13
 3593 215c 5FEA6838 		asrs r8, r8, # 13
 3594 2160 5FEA6939 		asrs r9, r9, # 13
 3595 2164 9244     		add r10, r10, r2
 3596 2166 A244     		add r10, r10, r4
 3597 2168 B244     		add r10, r10, r6
 3598 216a C244     		add r10, r10, r8
 3599 216c 9B44     		add r11, r11, r3
 3600 216e AB44     		add r11, r11, r5
 3601 2170 BB44     		add r11, r11, r7
 3602 2172 CB44     		add r11, r11, r9
 3603              		@4
 3604 2174 BDE8FC03 		pop {r2-r9}
 3605 2178 BCE80300 		ldmia r12!, {r0-r1}
 3606 217c 8646     		mov lr, r0
 3607 217e 5FEA1E4E 		lsrs lr, lr, # 16
 3608 2182 0004     		lsls r0, r0, # 16
 3609 2184 000C     		lsrs r0, r0, # 16
 3610 2186 02FB0EF2 		mul r2, r2, lr
 3611 218a 03FB0EF3 		mul r3, r3, lr
 3612 218e 04FB00F4 		mul r4, r4, r0
 3613 2192 05FB00F5 		mul r5, r5, r0
 3614 2196 8E46     		mov lr, r1
 3615 2198 5FEA1E4E 		lsrs lr, lr, # 16
 3616 219c 0904     		lsls r1, r1, # 16
 3617 219e 090C     		lsrs r1, r1, # 16
 3618 21a0 06FB0EF6 		mul r6, r6, lr
 3619 21a4 07FB0EF7 		mul r7, r7, lr
 3620 21a8 08FB01F8 		mul r8, r8, r1
 3621 21ac 09FB01F9 		mul r9, r9, r1
 3622 21b0 5213     		asrs r2, r2, # 13
 3623 21b2 5B13     		asrs r3, r3, # 13
 3624 21b4 6413     		asrs r4, r4, # 13
ARM GAS  1.s 			page 65


 3625 21b6 6D13     		asrs r5, r5, # 13
 3626 21b8 7613     		asrs r6, r6, # 13
 3627 21ba 7F13     		asrs r7, r7, # 13
 3628 21bc 5FEA6838 		asrs r8, r8, # 13
 3629 21c0 5FEA6939 		asrs r9, r9, # 13
 3630 21c4 9244     		add r10, r10, r2
 3631 21c6 A244     		add r10, r10, r4
 3632 21c8 B244     		add r10, r10, r6
 3633 21ca C244     		add r10, r10, r8
 3634 21cc 9B44     		add r11, r11, r3
 3635 21ce AB44     		add r11, r11, r5
 3636 21d0 BB44     		add r11, r11, r7
 3637 21d2 CB44     		add r11, r11, r9
 3638              		@5
 3639 21d4 BDE8FC03 		pop {r2-r9}
 3640 21d8 BCE80300 		ldmia r12!, {r0-r1}
 3641 21dc 8646     		mov lr, r0
 3642 21de 5FEA1E4E 		lsrs lr, lr, # 16
 3643 21e2 0004     		lsls r0, r0, # 16
 3644 21e4 000C     		lsrs r0, r0, # 16
 3645 21e6 02FB0EF2 		mul r2, r2, lr
 3646 21ea 03FB0EF3 		mul r3, r3, lr
 3647 21ee 04FB00F4 		mul r4, r4, r0
 3648 21f2 05FB00F5 		mul r5, r5, r0
 3649 21f6 8E46     		mov lr, r1
 3650 21f8 5FEA1E4E 		lsrs lr, lr, # 16
 3651 21fc 0904     		lsls r1, r1, # 16
 3652 21fe 090C     		lsrs r1, r1, # 16
 3653 2200 06FB0EF6 		mul r6, r6, lr
 3654 2204 07FB0EF7 		mul r7, r7, lr
 3655 2208 08FB01F8 		mul r8, r8, r1
 3656 220c 09FB01F9 		mul r9, r9, r1
 3657 2210 5213     		asrs r2, r2, # 13
 3658 2212 5B13     		asrs r3, r3, # 13
 3659 2214 6413     		asrs r4, r4, # 13
 3660 2216 6D13     		asrs r5, r5, # 13
 3661 2218 7613     		asrs r6, r6, # 13
 3662 221a 7F13     		asrs r7, r7, # 13
 3663 221c 5FEA6838 		asrs r8, r8, # 13
 3664 2220 5FEA6939 		asrs r9, r9, # 13
 3665 2224 9244     		add r10, r10, r2
 3666 2226 A244     		add r10, r10, r4
 3667 2228 B244     		add r10, r10, r6
 3668 222a C244     		add r10, r10, r8
 3669 222c 9B44     		add r11, r11, r3
 3670 222e AB44     		add r11, r11, r5
 3671 2230 BB44     		add r11, r11, r7
 3672 2232 CB44     		add r11, r11, r9
 3673              		@6
 3674 2234 BDE8FC03 		pop {r2-r9}
 3675 2238 BCE80300 		ldmia r12!, {r0-r1}
 3676 223c 8646     		mov lr, r0
 3677 223e 5FEA1E4E 		lsrs lr, lr, # 16
 3678 2242 0004     		lsls r0, r0, # 16
 3679 2244 000C     		lsrs r0, r0, # 16
 3680 2246 02FB0EF2 		mul r2, r2, lr
 3681 224a 03FB0EF3 		mul r3, r3, lr
ARM GAS  1.s 			page 66


 3682 224e 04FB00F4 		mul r4, r4, r0
 3683 2252 05FB00F5 		mul r5, r5, r0
 3684 2256 8E46     		mov lr, r1
 3685 2258 5FEA1E4E 		lsrs lr, lr, # 16
 3686 225c 0904     		lsls r1, r1, # 16
 3687 225e 090C     		lsrs r1, r1, # 16
 3688 2260 06FB0EF6 		mul r6, r6, lr
 3689 2264 07FB0EF7 		mul r7, r7, lr
 3690 2268 08FB01F8 		mul r8, r8, r1
 3691 226c 09FB01F9 		mul r9, r9, r1
 3692 2270 5213     		asrs r2, r2, # 13
 3693 2272 5B13     		asrs r3, r3, # 13
 3694 2274 6413     		asrs r4, r4, # 13
 3695 2276 6D13     		asrs r5, r5, # 13
 3696 2278 7613     		asrs r6, r6, # 13
 3697 227a 7F13     		asrs r7, r7, # 13
 3698 227c 5FEA6838 		asrs r8, r8, # 13
 3699 2280 5FEA6939 		asrs r9, r9, # 13
 3700 2284 9244     		add r10, r10, r2
 3701 2286 A244     		add r10, r10, r4
 3702 2288 B244     		add r10, r10, r6
 3703 228a C244     		add r10, r10, r8
 3704 228c 9B44     		add r11, r11, r3
 3705 228e AB44     		add r11, r11, r5
 3706 2290 BB44     		add r11, r11, r7
 3707 2292 CB44     		add r11, r11, r9
 3708              		@7
 3709 2294 BDE8FC03 		pop {r2-r9}
 3710 2298 BCE80300 		ldmia r12!, {r0-r1}
 3711 229c 8646     		mov lr, r0
 3712 229e 5FEA1E4E 		lsrs lr, lr, # 16
 3713 22a2 0004     		lsls r0, r0, # 16
 3714 22a4 000C     		lsrs r0, r0, # 16
 3715 22a6 02FB0EF2 		mul r2, r2, lr
 3716 22aa 03FB0EF3 		mul r3, r3, lr
 3717 22ae 04FB00F4 		mul r4, r4, r0
 3718 22b2 05FB00F5 		mul r5, r5, r0
 3719 22b6 8E46     		mov lr, r1
 3720 22b8 5FEA1E4E 		lsrs lr, lr, # 16
 3721 22bc 0904     		lsls r1, r1, # 16
 3722 22be 090C     		lsrs r1, r1, # 16
 3723 22c0 06FB0EF6 		mul r6, r6, lr
 3724 22c4 07FB0EF7 		mul r7, r7, lr
 3725 22c8 08FB01F8 		mul r8, r8, r1
 3726 22cc 09FB01F9 		mul r9, r9, r1
 3727 22d0 5213     		asrs r2, r2, # 13
 3728 22d2 5B13     		asrs r3, r3, # 13
 3729 22d4 6413     		asrs r4, r4, # 13
 3730 22d6 6D13     		asrs r5, r5, # 13
 3731 22d8 7613     		asrs r6, r6, # 13
 3732 22da 7F13     		asrs r7, r7, # 13
 3733 22dc 5FEA6838 		asrs r8, r8, # 13
 3734 22e0 5FEA6939 		asrs r9, r9, # 13
 3735 22e4 9244     		add r10, r10, r2
 3736 22e6 A244     		add r10, r10, r4
 3737 22e8 B244     		add r10, r10, r6
 3738 22ea C244     		add r10, r10, r8
ARM GAS  1.s 			page 67


 3739 22ec 9B44     		add r11, r11, r3
 3740 22ee AB44     		add r11, r11, r5
 3741 22f0 BB44     		add r11, r11, r7
 3742 22f2 CB44     		add r11, r11, r9
 3743              		@8
 3744 22f4 BDE8FC03 		pop {r2-r9}
 3745 22f8 BCE80300 		ldmia r12!, {r0-r1}
 3746 22fc 8646     		mov lr, r0
 3747 22fe 5FEA1E4E 		lsrs lr, lr, # 16
 3748 2302 0004     		lsls r0, r0, # 16
 3749 2304 000C     		lsrs r0, r0, # 16
 3750 2306 02FB0EF2 		mul r2, r2, lr
 3751 230a 03FB0EF3 		mul r3, r3, lr
 3752 230e 04FB00F4 		mul r4, r4, r0
 3753 2312 05FB00F5 		mul r5, r5, r0
 3754 2316 8E46     		mov lr, r1
 3755 2318 5FEA1E4E 		lsrs lr, lr, # 16
 3756 231c 0904     		lsls r1, r1, # 16
 3757 231e 090C     		lsrs r1, r1, # 16
 3758 2320 06FB0EF6 		mul r6, r6, lr
 3759 2324 07FB0EF7 		mul r7, r7, lr
 3760 2328 08FB01F8 		mul r8, r8, r1
 3761 232c 09FB01F9 		mul r9, r9, r1
 3762 2330 5213     		asrs r2, r2, # 13
 3763 2332 5B13     		asrs r3, r3, # 13
 3764 2334 6413     		asrs r4, r4, # 13
 3765 2336 6D13     		asrs r5, r5, # 13
 3766 2338 7613     		asrs r6, r6, # 13
 3767 233a 7F13     		asrs r7, r7, # 13
 3768 233c 5FEA6838 		asrs r8, r8, # 13
 3769 2340 5FEA6939 		asrs r9, r9, # 13
 3770 2344 9244     		add r10, r10, r2
 3771 2346 A244     		add r10, r10, r4
 3772 2348 B244     		add r10, r10, r6
 3773 234a C244     		add r10, r10, r8
 3774 234c 9B44     		add r11, r11, r3
 3775 234e AB44     		add r11, r11, r5
 3776 2350 BB44     		add r11, r11, r7
 3777 2352 CB44     		add r11, r11, r9
 3778              		@9
 3779 2354 BDE8FC03 		pop {r2-r9}
 3780 2358 BCE80300 		ldmia r12!, {r0-r1}
 3781 235c 8646     		mov lr, r0
 3782 235e 5FEA1E4E 		lsrs lr, lr, # 16
 3783 2362 0004     		lsls r0, r0, # 16
 3784 2364 000C     		lsrs r0, r0, # 16
 3785 2366 02FB0EF2 		mul r2, r2, lr
 3786 236a 03FB0EF3 		mul r3, r3, lr
 3787 236e 04FB00F4 		mul r4, r4, r0
 3788 2372 05FB00F5 		mul r5, r5, r0
 3789 2376 8E46     		mov lr, r1
 3790 2378 5FEA1E4E 		lsrs lr, lr, # 16
 3791 237c 0904     		lsls r1, r1, # 16
 3792 237e 090C     		lsrs r1, r1, # 16
 3793 2380 06FB0EF6 		mul r6, r6, lr
 3794 2384 07FB0EF7 		mul r7, r7, lr
 3795 2388 08FB01F8 		mul r8, r8, r1
ARM GAS  1.s 			page 68


 3796 238c 09FB01F9 		mul r9, r9, r1
 3797 2390 5213     		asrs r2, r2, # 13
 3798 2392 5B13     		asrs r3, r3, # 13
 3799 2394 6413     		asrs r4, r4, # 13
 3800 2396 6D13     		asrs r5, r5, # 13
 3801 2398 7613     		asrs r6, r6, # 13
 3802 239a 7F13     		asrs r7, r7, # 13
 3803 239c 5FEA6838 		asrs r8, r8, # 13
 3804 23a0 5FEA6939 		asrs r9, r9, # 13
 3805 23a4 9244     		add r10, r10, r2
 3806 23a6 A244     		add r10, r10, r4
 3807 23a8 B244     		add r10, r10, r6
 3808 23aa C244     		add r10, r10, r8
 3809 23ac 9B44     		add r11, r11, r3
 3810 23ae AB44     		add r11, r11, r5
 3811 23b0 BB44     		add r11, r11, r7
 3812 23b2 CB44     		add r11, r11, r9
 3813              	
 3814              		@0 (4 ge)
 3815 23b4 BDE8FC03 		pop {r2-r9}
 3816 23b8 BCE80300 		ldmia r12!, {r0-r1}
 3817 23bc 8646     		mov lr, r0
 3818 23be 5FEA1E4E 		lsrs lr, lr, # 16
 3819 23c2 0004     		lsls r0, r0, # 16
 3820 23c4 000C     		lsrs r0, r0, # 16
 3821 23c6 02FB0EF2 		mul r2, r2, lr
 3822 23ca 03FB0EF3 		mul r3, r3, lr
 3823 23ce 04FB00F4 		mul r4, r4, r0
 3824 23d2 05FB00F5 		mul r5, r5, r0
 3825 23d6 8E46     		mov lr, r1
 3826 23d8 5FEA1E4E 		lsrs lr, lr, # 16
 3827 23dc 0904     		lsls r1, r1, # 16
 3828 23de 090C     		lsrs r1, r1, # 16
 3829 23e0 06FB0EF6 		mul r6, r6, lr
 3830 23e4 07FB0EF7 		mul r7, r7, lr
 3831 23e8 08FB01F8 		mul r8, r8, r1
 3832 23ec 09FB01F9 		mul r9, r9, r1
 3833 23f0 5213     		asrs r2, r2, # 13
 3834 23f2 5B13     		asrs r3, r3, # 13
 3835 23f4 6413     		asrs r4, r4, # 13
 3836 23f6 6D13     		asrs r5, r5, # 13
 3837 23f8 7613     		asrs r6, r6, # 13
 3838 23fa 7F13     		asrs r7, r7, # 13
 3839 23fc 5FEA6838 		asrs r8, r8, # 13
 3840 2400 5FEA6939 		asrs r9, r9, # 13
 3841 2404 9244     		add r10, r10, r2
 3842 2406 A244     		add r10, r10, r4
 3843 2408 B244     		add r10, r10, r6
 3844 240a C244     		add r10, r10, r8
 3845 240c 9B44     		add r11, r11, r3
 3846 240e AB44     		add r11, r11, r5
 3847 2410 BB44     		add r11, r11, r7
 3848 2412 CB44     		add r11, r11, r9
 3849              		@1
 3850 2414 BDE8FC03 		pop {r2-r9}
 3851 2418 BCE80300 		ldmia r12!, {r0-r1}
 3852 241c 8646     		mov lr, r0
ARM GAS  1.s 			page 69


 3853 241e 5FEA1E4E 		lsrs lr, lr, # 16
 3854 2422 0004     		lsls r0, r0, # 16
 3855 2424 000C     		lsrs r0, r0, # 16
 3856 2426 02FB0EF2 		mul r2, r2, lr
 3857 242a 03FB0EF3 		mul r3, r3, lr
 3858 242e 04FB00F4 		mul r4, r4, r0
 3859 2432 05FB00F5 		mul r5, r5, r0
 3860 2436 8E46     		mov lr, r1
 3861 2438 5FEA1E4E 		lsrs lr, lr, # 16
 3862 243c 0904     		lsls r1, r1, # 16
 3863 243e 090C     		lsrs r1, r1, # 16
 3864 2440 06FB0EF6 		mul r6, r6, lr
 3865 2444 07FB0EF7 		mul r7, r7, lr
 3866 2448 08FB01F8 		mul r8, r8, r1
 3867 244c 09FB01F9 		mul r9, r9, r1
 3868 2450 5213     		asrs r2, r2, # 13
 3869 2452 5B13     		asrs r3, r3, # 13
 3870 2454 6413     		asrs r4, r4, # 13
 3871 2456 6D13     		asrs r5, r5, # 13
 3872 2458 7613     		asrs r6, r6, # 13
 3873 245a 7F13     		asrs r7, r7, # 13
 3874 245c 5FEA6838 		asrs r8, r8, # 13
 3875 2460 5FEA6939 		asrs r9, r9, # 13
 3876 2464 9244     		add r10, r10, r2
 3877 2466 A244     		add r10, r10, r4
 3878 2468 B244     		add r10, r10, r6
 3879 246a C244     		add r10, r10, r8
 3880 246c 9B44     		add r11, r11, r3
 3881 246e AB44     		add r11, r11, r5
 3882 2470 BB44     		add r11, r11, r7
 3883 2472 CB44     		add r11, r11, r9
 3884              		@2
 3885 2474 BDE8FC03 		pop {r2-r9}
 3886 2478 BCE80300 		ldmia r12!, {r0-r1}
 3887 247c 8646     		mov lr, r0
 3888 247e 5FEA1E4E 		lsrs lr, lr, # 16
 3889 2482 0004     		lsls r0, r0, # 16
 3890 2484 000C     		lsrs r0, r0, # 16
 3891 2486 02FB0EF2 		mul r2, r2, lr
 3892 248a 03FB0EF3 		mul r3, r3, lr
 3893 248e 04FB00F4 		mul r4, r4, r0
 3894 2492 05FB00F5 		mul r5, r5, r0
 3895 2496 8E46     		mov lr, r1
 3896 2498 5FEA1E4E 		lsrs lr, lr, # 16
 3897 249c 0904     		lsls r1, r1, # 16
 3898 249e 090C     		lsrs r1, r1, # 16
 3899 24a0 06FB0EF6 		mul r6, r6, lr
 3900 24a4 07FB0EF7 		mul r7, r7, lr
 3901 24a8 08FB01F8 		mul r8, r8, r1
 3902 24ac 09FB01F9 		mul r9, r9, r1
 3903 24b0 5213     		asrs r2, r2, # 13
 3904 24b2 5B13     		asrs r3, r3, # 13
 3905 24b4 6413     		asrs r4, r4, # 13
 3906 24b6 6D13     		asrs r5, r5, # 13
 3907 24b8 7613     		asrs r6, r6, # 13
 3908 24ba 7F13     		asrs r7, r7, # 13
 3909 24bc 5FEA6838 		asrs r8, r8, # 13
ARM GAS  1.s 			page 70


 3910 24c0 5FEA6939 		asrs r9, r9, # 13
 3911 24c4 9244     		add r10, r10, r2
 3912 24c6 A244     		add r10, r10, r4
 3913 24c8 B244     		add r10, r10, r6
 3914 24ca C244     		add r10, r10, r8
 3915 24cc 9B44     		add r11, r11, r3
 3916 24ce AB44     		add r11, r11, r5
 3917 24d0 BB44     		add r11, r11, r7
 3918 24d2 CB44     		add r11, r11, r9
 3919              		@3
 3920 24d4 BDE8FC03 		pop {r2-r9}
 3921 24d8 BCE80300 		ldmia r12!, {r0-r1}
 3922 24dc 8646     		mov lr, r0
 3923 24de 5FEA1E4E 		lsrs lr, lr, # 16
 3924 24e2 0004     		lsls r0, r0, # 16
 3925 24e4 000C     		lsrs r0, r0, # 16
 3926 24e6 02FB0EF2 		mul r2, r2, lr
 3927 24ea 03FB0EF3 		mul r3, r3, lr
 3928 24ee 04FB00F4 		mul r4, r4, r0
 3929 24f2 05FB00F5 		mul r5, r5, r0
 3930 24f6 8E46     		mov lr, r1
 3931 24f8 5FEA1E4E 		lsrs lr, lr, # 16
 3932 24fc 0904     		lsls r1, r1, # 16
 3933 24fe 090C     		lsrs r1, r1, # 16
 3934 2500 06FB0EF6 		mul r6, r6, lr
 3935 2504 07FB0EF7 		mul r7, r7, lr
 3936 2508 08FB01F8 		mul r8, r8, r1
 3937 250c 09FB01F9 		mul r9, r9, r1
 3938 2510 5213     		asrs r2, r2, # 13
 3939 2512 5B13     		asrs r3, r3, # 13
 3940 2514 6413     		asrs r4, r4, # 13
 3941 2516 6D13     		asrs r5, r5, # 13
 3942 2518 7613     		asrs r6, r6, # 13
 3943 251a 7F13     		asrs r7, r7, # 13
 3944 251c 5FEA6838 		asrs r8, r8, # 13
 3945 2520 5FEA6939 		asrs r9, r9, # 13
 3946 2524 9244     		add r10, r10, r2
 3947 2526 A244     		add r10, r10, r4
 3948 2528 B244     		add r10, r10, r6
 3949 252a C244     		add r10, r10, r8
 3950 252c 9B44     		add r11, r11, r3
 3951 252e AB44     		add r11, r11, r5
 3952 2530 BB44     		add r11, r11, r7
 3953 2532 CB44     		add r11, r11, r9
 3954              		@4
 3955 2534 BDE8FC03 		pop {r2-r9}
 3956 2538 BCE80300 		ldmia r12!, {r0-r1}
 3957 253c 8646     		mov lr, r0
 3958 253e 5FEA1E4E 		lsrs lr, lr, # 16
 3959 2542 0004     		lsls r0, r0, # 16
 3960 2544 000C     		lsrs r0, r0, # 16
 3961 2546 02FB0EF2 		mul r2, r2, lr
 3962 254a 03FB0EF3 		mul r3, r3, lr
 3963 254e 04FB00F4 		mul r4, r4, r0
 3964 2552 05FB00F5 		mul r5, r5, r0
 3965 2556 8E46     		mov lr, r1
 3966 2558 5FEA1E4E 		lsrs lr, lr, # 16
ARM GAS  1.s 			page 71


 3967 255c 0904     		lsls r1, r1, # 16
 3968 255e 090C     		lsrs r1, r1, # 16
 3969 2560 06FB0EF6 		mul r6, r6, lr
 3970 2564 07FB0EF7 		mul r7, r7, lr
 3971 2568 08FB01F8 		mul r8, r8, r1
 3972 256c 09FB01F9 		mul r9, r9, r1
 3973 2570 5213     		asrs r2, r2, # 13
 3974 2572 5B13     		asrs r3, r3, # 13
 3975 2574 6413     		asrs r4, r4, # 13
 3976 2576 6D13     		asrs r5, r5, # 13
 3977 2578 7613     		asrs r6, r6, # 13
 3978 257a 7F13     		asrs r7, r7, # 13
 3979 257c 5FEA6838 		asrs r8, r8, # 13
 3980 2580 5FEA6939 		asrs r9, r9, # 13
 3981 2584 9244     		add r10, r10, r2
 3982 2586 A244     		add r10, r10, r4
 3983 2588 B244     		add r10, r10, r6
 3984 258a C244     		add r10, r10, r8
 3985 258c 9B44     		add r11, r11, r3
 3986 258e AB44     		add r11, r11, r5
 3987 2590 BB44     		add r11, r11, r7
 3988 2592 CB44     		add r11, r11, r9
 3989              		@5
 3990 2594 BDE8FC03 		pop {r2-r9}
 3991 2598 BCE80300 		ldmia r12!, {r0-r1}
 3992 259c 8646     		mov lr, r0
 3993 259e 5FEA1E4E 		lsrs lr, lr, # 16
 3994 25a2 0004     		lsls r0, r0, # 16
 3995 25a4 000C     		lsrs r0, r0, # 16
 3996 25a6 02FB0EF2 		mul r2, r2, lr
 3997 25aa 03FB0EF3 		mul r3, r3, lr
 3998 25ae 04FB00F4 		mul r4, r4, r0
 3999 25b2 05FB00F5 		mul r5, r5, r0
 4000 25b6 8E46     		mov lr, r1
 4001 25b8 5FEA1E4E 		lsrs lr, lr, # 16
 4002 25bc 0904     		lsls r1, r1, # 16
 4003 25be 090C     		lsrs r1, r1, # 16
 4004 25c0 06FB0EF6 		mul r6, r6, lr
 4005 25c4 07FB0EF7 		mul r7, r7, lr
 4006 25c8 08FB01F8 		mul r8, r8, r1
 4007 25cc 09FB01F9 		mul r9, r9, r1
 4008 25d0 5213     		asrs r2, r2, # 13
 4009 25d2 5B13     		asrs r3, r3, # 13
 4010 25d4 6413     		asrs r4, r4, # 13
 4011 25d6 6D13     		asrs r5, r5, # 13
 4012 25d8 7613     		asrs r6, r6, # 13
 4013 25da 7F13     		asrs r7, r7, # 13
 4014 25dc 5FEA6838 		asrs r8, r8, # 13
 4015 25e0 5FEA6939 		asrs r9, r9, # 13
 4016 25e4 9244     		add r10, r10, r2
 4017 25e6 A244     		add r10, r10, r4
 4018 25e8 B244     		add r10, r10, r6
 4019 25ea C244     		add r10, r10, r8
 4020 25ec 9B44     		add r11, r11, r3
 4021 25ee AB44     		add r11, r11, r5
 4022 25f0 BB44     		add r11, r11, r7
 4023 25f2 CB44     		add r11, r11, r9
ARM GAS  1.s 			page 72


 4024              		@6
 4025 25f4 BDE8FC03 		pop {r2-r9}
 4026 25f8 BCE80300 		ldmia r12!, {r0-r1}
 4027 25fc 8646     		mov lr, r0
 4028 25fe 5FEA1E4E 		lsrs lr, lr, # 16
 4029 2602 0004     		lsls r0, r0, # 16
 4030 2604 000C     		lsrs r0, r0, # 16
 4031 2606 02FB0EF2 		mul r2, r2, lr
 4032 260a 03FB0EF3 		mul r3, r3, lr
 4033 260e 04FB00F4 		mul r4, r4, r0
 4034 2612 05FB00F5 		mul r5, r5, r0
 4035 2616 8E46     		mov lr, r1
 4036 2618 5FEA1E4E 		lsrs lr, lr, # 16
 4037 261c 0904     		lsls r1, r1, # 16
 4038 261e 090C     		lsrs r1, r1, # 16
 4039 2620 06FB0EF6 		mul r6, r6, lr
 4040 2624 07FB0EF7 		mul r7, r7, lr
 4041 2628 08FB01F8 		mul r8, r8, r1
 4042 262c 09FB01F9 		mul r9, r9, r1
 4043 2630 5213     		asrs r2, r2, # 13
 4044 2632 5B13     		asrs r3, r3, # 13
 4045 2634 6413     		asrs r4, r4, # 13
 4046 2636 6D13     		asrs r5, r5, # 13
 4047 2638 7613     		asrs r6, r6, # 13
 4048 263a 7F13     		asrs r7, r7, # 13
 4049 263c 5FEA6838 		asrs r8, r8, # 13
 4050 2640 5FEA6939 		asrs r9, r9, # 13
 4051 2644 9244     		add r10, r10, r2
 4052 2646 A244     		add r10, r10, r4
 4053 2648 B244     		add r10, r10, r6
 4054 264a C244     		add r10, r10, r8
 4055 264c 9B44     		add r11, r11, r3
 4056 264e AB44     		add r11, r11, r5
 4057 2650 BB44     		add r11, r11, r7
 4058 2652 CB44     		add r11, r11, r9
 4059              		@7
 4060 2654 BDE8FC03 		pop {r2-r9}
 4061 2658 BCE80300 		ldmia r12!, {r0-r1}
 4062 265c 8646     		mov lr, r0
 4063 265e 5FEA1E4E 		lsrs lr, lr, # 16
 4064 2662 0004     		lsls r0, r0, # 16
 4065 2664 000C     		lsrs r0, r0, # 16
 4066 2666 02FB0EF2 		mul r2, r2, lr
 4067 266a 03FB0EF3 		mul r3, r3, lr
 4068 266e 04FB00F4 		mul r4, r4, r0
 4069 2672 05FB00F5 		mul r5, r5, r0
 4070 2676 8E46     		mov lr, r1
 4071 2678 5FEA1E4E 		lsrs lr, lr, # 16
 4072 267c 0904     		lsls r1, r1, # 16
 4073 267e 090C     		lsrs r1, r1, # 16
 4074 2680 06FB0EF6 		mul r6, r6, lr
 4075 2684 07FB0EF7 		mul r7, r7, lr
 4076 2688 08FB01F8 		mul r8, r8, r1
 4077 268c 09FB01F9 		mul r9, r9, r1
 4078 2690 5213     		asrs r2, r2, # 13
 4079 2692 5B13     		asrs r3, r3, # 13
 4080 2694 6413     		asrs r4, r4, # 13
ARM GAS  1.s 			page 73


 4081 2696 6D13     		asrs r5, r5, # 13
 4082 2698 7613     		asrs r6, r6, # 13
 4083 269a 7F13     		asrs r7, r7, # 13
 4084 269c 5FEA6838 		asrs r8, r8, # 13
 4085 26a0 5FEA6939 		asrs r9, r9, # 13
 4086 26a4 9244     		add r10, r10, r2
 4087 26a6 A244     		add r10, r10, r4
 4088 26a8 B244     		add r10, r10, r6
 4089 26aa C244     		add r10, r10, r8
 4090 26ac 9B44     		add r11, r11, r3
 4091 26ae AB44     		add r11, r11, r5
 4092 26b0 BB44     		add r11, r11, r7
 4093 26b2 CB44     		add r11, r11, r9
 4094              		@8
 4095 26b4 BDE8FC03 		pop {r2-r9}
 4096 26b8 BCE80300 		ldmia r12!, {r0-r1}
 4097 26bc 8646     		mov lr, r0
 4098 26be 5FEA1E4E 		lsrs lr, lr, # 16
 4099 26c2 0004     		lsls r0, r0, # 16
 4100 26c4 000C     		lsrs r0, r0, # 16
 4101 26c6 02FB0EF2 		mul r2, r2, lr
 4102 26ca 03FB0EF3 		mul r3, r3, lr
 4103 26ce 04FB00F4 		mul r4, r4, r0
 4104 26d2 05FB00F5 		mul r5, r5, r0
 4105 26d6 8E46     		mov lr, r1
 4106 26d8 5FEA1E4E 		lsrs lr, lr, # 16
 4107 26dc 0904     		lsls r1, r1, # 16
 4108 26de 090C     		lsrs r1, r1, # 16
 4109 26e0 06FB0EF6 		mul r6, r6, lr
 4110 26e4 07FB0EF7 		mul r7, r7, lr
 4111 26e8 08FB01F8 		mul r8, r8, r1
 4112 26ec 09FB01F9 		mul r9, r9, r1
 4113 26f0 5213     		asrs r2, r2, # 13
 4114 26f2 5B13     		asrs r3, r3, # 13
 4115 26f4 6413     		asrs r4, r4, # 13
 4116 26f6 6D13     		asrs r5, r5, # 13
 4117 26f8 7613     		asrs r6, r6, # 13
 4118 26fa 7F13     		asrs r7, r7, # 13
 4119 26fc 5FEA6838 		asrs r8, r8, # 13
 4120 2700 5FEA6939 		asrs r9, r9, # 13
 4121 2704 9244     		add r10, r10, r2
 4122 2706 A244     		add r10, r10, r4
 4123 2708 B244     		add r10, r10, r6
 4124 270a C244     		add r10, r10, r8
 4125 270c 9B44     		add r11, r11, r3
 4126 270e AB44     		add r11, r11, r5
 4127 2710 BB44     		add r11, r11, r7
 4128 2712 CB44     		add r11, r11, r9
 4129              		@9
 4130 2714 BDE8FC03 		pop {r2-r9}
 4131 2718 BCE80300 		ldmia r12!, {r0-r1}
 4132 271c 8646     		mov lr, r0
 4133 271e 5FEA1E4E 		lsrs lr, lr, # 16
 4134 2722 0004     		lsls r0, r0, # 16
 4135 2724 000C     		lsrs r0, r0, # 16
 4136 2726 02FB0EF2 		mul r2, r2, lr
 4137 272a 03FB0EF3 		mul r3, r3, lr
ARM GAS  1.s 			page 74


 4138 272e 04FB00F4 		mul r4, r4, r0
 4139 2732 05FB00F5 		mul r5, r5, r0
 4140 2736 8E46     		mov lr, r1
 4141 2738 5FEA1E4E 		lsrs lr, lr, # 16
 4142 273c 0904     		lsls r1, r1, # 16
 4143 273e 090C     		lsrs r1, r1, # 16
 4144 2740 06FB0EF6 		mul r6, r6, lr
 4145 2744 07FB0EF7 		mul r7, r7, lr
 4146 2748 08FB01F8 		mul r8, r8, r1
 4147 274c 09FB01F9 		mul r9, r9, r1
 4148 2750 5213     		asrs r2, r2, # 13
 4149 2752 5B13     		asrs r3, r3, # 13
 4150 2754 6413     		asrs r4, r4, # 13
 4151 2756 6D13     		asrs r5, r5, # 13
 4152 2758 7613     		asrs r6, r6, # 13
 4153 275a 7F13     		asrs r7, r7, # 13
 4154 275c 5FEA6838 		asrs r8, r8, # 13
 4155 2760 5FEA6939 		asrs r9, r9, # 13
 4156 2764 9244     		add r10, r10, r2
 4157 2766 A244     		add r10, r10, r4
 4158 2768 B244     		add r10, r10, r6
 4159 276a C244     		add r10, r10, r8
 4160 276c 9B44     		add r11, r11, r3
 4161 276e AB44     		add r11, r11, r5
 4162 2770 BB44     		add r11, r11, r7
 4163 2772 CB44     		add r11, r11, r9
 4164              	
 4165              	
 4166 2774 0D48     		ldr r0, = cos_sin_jishu
 4167 2776 0168     		ldr r1, [r0]
 4168 2778 0139     		subs r1, r1, # 1
 4169 277a 0160     		str r1, [r0]
 4170 277c 0029     		cmp r1, # 0
 4171 277e 06D1     		bne __dft_shuliang_jishu
 4172 2780 0B49     		ldr r1, = cos_sin_shuliang
 4173 2782 0968     		ldr r1, [r1]
 4174 2784 0160     		str r1, [r0]
 4175 2786 DFF82CD0 		ldr sp, = cos_sin
 4176 278a DDF800D0 		ldr sp, [sp]
 4177              	__dft_shuliang_jishu:	
 4178 278e 0A48     		ldr r0, = dft_chongfu_jishu
 4179 2790 0168     		ldr r1, [r0]
 4180 2792 0139     		subs r1, r1, # 1
 4181 2794 0160     		str r1, [r0]
 4182 2796 0029     		cmp r1, # 0
 4183 2798 7EF48CAE 		bne __dft_xunhuan
 4184              	
 4185              		
 4186              	
 4187 279c 5046     		mov r0, r10
 4188 279e 5946     		mov r1, r11
 4189 27a0 064A     		ldr r2, = sp_zhizhen
 4190 27a2 D2F800D0 		ldr sp, [r2]
 4191 27a6 BDE8FC9F 		pop {r2-r12,pc}
 4192              		
 4193 27aa 00007001 		.ltorg
 4193      00206C01 
ARM GAS  1.s 			page 75


 4193      0020F401 
 4193      00206801 
 4193      0020FC01 
 4194              		
 4195              	__xie_spi1:
 4196 27c0 30B5     		push {r4-r5,lr}
 4197 27c2 E84C     		ldr r4, = 0x40013000
 4198 27c4 00F006F8 		bl __spi_mang
 4199 27c8 2073     		strb r0, [r4,0x0c]
 4200 27ca 40F29F04 		movw r4, # 0x9f
 4201              	__xie_spi1_yanshi:
 4202 27ce 013C     		subs r4, r4, # 1
 4203 27d0 FDD1     		bne __xie_spi1_yanshi
 4204 27d2 30BD     		pop {r4-r5,pc}
 4205              		
 4206              	__spi_mang:
 4207 27d4 A568     		ldr r5, [r4,0x08]
 4208 27d6 2D06     		lsls r5, r5, # 24
 4209 27d8 FCD4     		bmi __spi_mang
 4210 27da 7047     		bx lr
 4211              	
 4212              	__xie_lcd_ye:
 4213              		@入口R0=数据首地址
 4214 27dc 1EB5     		push {r1-r4,lr}
 4215 27de B023     		movs r3, # 0xb0
 4216 27e0 013B     		subs r3, r3, # 1
 4217 27e2 0446     		mov r4, r0
 4218              	__ye_jia:
 4219 27e4 E048     		ldr r0, = 0x40023818
 4220 27e6 1021     		movs r1, # 0x10
 4221 27e8 0904     		lsls r1, r1, # 16
 4222 27ea 0160     		str r1, [r0]            @RS=0
 4223 27ec 4FF0FF02 		ldr r2, = 0xff
 4224 27f0 00F01CF8 		bl __lcd_yanshi
 4225 27f4 0133     		adds r3, r3, # 1
 4226 27f6 B92B     		cmp r3, # 0xb9
 4227 27f8 00D1     		bne __xie_ye_dizhi
 4228 27fa 1EBD     		pop {r1-r4,pc}
 4229              		@       movs r3, # 0xb0
 4230              		@       mvns r4, r4
 4231              		@       lsls r4, r4, # 24
 4232              		@       lsrs r4, r4, # 24
 4233              	__xie_ye_dizhi:
 4234 27fc 1020     		movs r0, # 0x10
 4235 27fe FFF7DFFF 		bl __xie_spi1
 4236 2802 0020     		movs r0, # 0
 4237 2804 FFF7DCFF 		bl __xie_spi1
 4238 2808 1846     		mov r0, r3
 4239 280a FFF7D9FF 		bl __xie_spi1
 4240              	
 4241 280e D648     		ldr r0, = 0x40023818
 4242 2810 1021     		movs r1, # 0x10
 4243 2812 0160     		str r1, [r0]            @RS=1
 4244 2814 4FF0FF02 		ldr r2, = 0xff
 4245 2818 00F008F8 		bl __lcd_yanshi
 4246              	
 4247 281c 8421     		movs r1, # 132
ARM GAS  1.s 			page 76


 4248              	__heng_sao:
 4249 281e 2078     		ldrb r0, [r4]
 4250              		@       mov r0, r4
 4251 2820 FFF7CEFF 		bl __xie_spi1
 4252 2824 0134     		adds r4, r4, # 1
 4253 2826 0139     		subs r1, r1, # 1
 4254 2828 F9D1     		bne __heng_sao
 4255 282a DBE7     		b __ye_jia
 4256              	__lcd_yanshi:
 4257 282c 013A     		subs r2, r2, # 1
 4258 282e FDD1     		bne __lcd_yanshi
 4259 2830 7047     		bx lr
 4260              		
 4261              	__lcd_qingping:
 4262 2832 1FB5     		push {r0-r4,lr}
 4263 2834 B023     		movs r3, # 0xb0
 4264 2836 013B     		subs r3, r3, # 1
 4265 2838 4FF00004 		mov r4, # 0
 4266              	__ye_jia1:
 4267 283c CA48     		ldr r0, = 0x40023818
 4268 283e 1021     		movs r1, # 0x10
 4269 2840 0904     		lsls r1, r1, # 16
 4270 2842 0160     		str r1, [r0]            @RS=0
 4271 2844 4FF0FF02 		ldr r2, = 0xff
 4272 2848 FFF7F0FF 		bl __lcd_yanshi
 4273 284c 0133     		adds r3, r3, # 1
 4274 284e B92B     		cmp r3, # 0xb9
 4275 2850 00D1     		bne __xie_ye_dizhi1
 4276 2852 1FBD     		pop {r0-r4,pc}
 4277              	__xie_ye_dizhi1:
 4278 2854 1020     		movs r0, # 0x10
 4279 2856 FFF7B3FF 		bl __xie_spi1
 4280 285a 0020     		movs r0, # 0
 4281 285c FFF7B0FF 		bl __xie_spi1
 4282 2860 1846     		mov r0, r3
 4283 2862 FFF7ADFF 		bl __xie_spi1
 4284              	
 4285 2866 C048     		ldr r0, = 0x40023818
 4286 2868 1021     		movs r1, # 0x10
 4287 286a 0160     		str r1, [r0]            @RS=1
 4288 286c 4FF0FF02 		ldr r2, = 0xff
 4289 2870 FFF7DCFF 		bl __lcd_yanshi
 4290 2874 8421     		movs r1, # 132
 4291              	__heng_sao1:
 4292 2876 2046     		mov r0, r4
 4293 2878 FFF7A2FF 		bl __xie_spi1
 4294 287c 0139     		subs r1, r1, # 1
 4295 287e FAD1     		bne __heng_sao1
 4296 2880 DCE7     		b __ye_jia1
 4297              	
 4298              		
 4299              	__xie_lcd_weizhi:
 4300              		@入口R0=要写的地址(低8=X，高8=Y=（0-131(r5=高4,R4=低4))
 4301 2882 3EB5     		push {r1-r5,lr}
 4302 2884 0546     		mov r5, r0
 4303 2886 0446     		mov r4, r0
 4304 2888 0006     		lsls r0, r0, # 24
ARM GAS  1.s 			page 77


 4305 288a 000E     		lsrs r0, r0, # 24
 4306 288c 2D0B     		lsrs r5, r5, # 12	@高4
 4307 288e 2405     		lsls r4, r4, # 20
 4308 2890 240F     		lsrs r4, r4, # 28
 4309 2892 B549     	        ldr r1, = 0x40023818
 4310 2894 1023     		movs r3, # 0x10
 4311 2896 1B04     		lsls r3, r3, # 16
 4312 2898 0B60     		str r3, [r1]            @RS=0
 4313 289a 4FF0FF02 		ldr r2, = 0xff
 4314 289e FFF7C5FF 		bl __lcd_yanshi
 4315 28a2 B030     		adds r0, r0, # 0xb0     @写页命令0XB0
 4316 28a4 FFF78CFF 		bl __xie_spi1		@写页地址0-8页
 4317              		
 4318 28a8 1020     		movs r0, # 0x10
 4319 28aa 2843     		orrs r0, r0, r5
 4320 28ac FFF788FF 		bl __xie_spi1
 4321              		
 4322 28b0 2046     		mov r0, r4
 4323 28b2 FFF785FF 		bl __xie_spi1
 4324 28b6 1023     		movs r3, # 0x10
 4325 28b8 0B60     		str r3, [r1]            @RS=1
 4326 28ba 4FF0FF02 		ldr r2, = 0xff
 4327 28be FFF7B5FF 		bl __lcd_yanshi
 4328 28c2 3EBD     		pop {r1-r5,pc}
 4329              	
 4330              	
 4331              	__xie_ascii:
 4332 28c4 2DE9E047 		push {r5-r10,lr}
 4333              		@入口r0=ascii地址
 4334              		@r1=写几个字
 4335              		@r2=要写的地址
 4336 28c8 9146     		mov r9, r2
 4337 28ca 0F46     		mov r7, r1
 4338 28cc 4FF00601 		mov r1, # 6
 4339 28d0 0122     		movs r2, # 1
 4340 28d2 0546     		mov r5, r0
 4341 28d4 0026     		movs r6, # 0
 4342 28d6 9046     		mov r8, r2
 4343 28d8 08FB01F8 		mul r8, r8, r1
 4344              	__xie_lcd_dizhi2:
 4345 28dc 4846     		mov r0, r9
 4346 28de FFF7D0FF 		bl __xie_lcd_weizhi
 4347              	__du_ascii2:
 4348 28e2 A85D     		ldrb r0, [r5, r6]
 4349 28e4 2038     		subs r0, r0, # 32
 4350 28e6 4843     		muls r0, r0, r1
 4351 28e8 A04B     		ldr r3, = ascii_biao
 4352 28ea 0344     		add r3, r3, r0
 4353              	__du_ziku_chushihua2:
 4354 28ec 0024     		movs r4, # 0
 4355              	__du_ziku1:
 4356 28ee 185D     		ldrb r0, [r3, r4]
 4357 28f0 1444     		add r4, r4, r2
 4358 28f2 8C42     		cmp r4, r1
 4359 28f4 02D8     		bhi __duwan_ziku1
 4360 28f6 FFF763FF 		bl __xie_spi1
 4361 28fa F8E7     		b __du_ziku1
ARM GAS  1.s 			page 78


 4362              	__duwan_ziku1:
 4363 28fc 0136     		adds r6, r6, # 1
 4364 28fe BE42     		cmp r6, r7
 4365 2900 EFD1     		bne __du_ascii2
 4366 2902 BDE8E087 		pop {r5-r10,pc}
 4367              	
 4368              	
 4369              		
 4370              	__xie_alabo:
 4371 2906 2DE9E04F 		push {r5-r11,lr}
 4372              		@入口r0=写几个字
 4373              		@r1=字库单字长度
 4374              		@r2=y宽（几行）
 4375              		@r3=要写的地址
 4376 290a 994D     		ldr r5, = asciibiao
 4377 290c A446     		mov r12, r4
 4378 290e 9946     		mov r9, r3
 4379 2910 0026     		movs r6, # 0
 4380 2912 3746     		mov r7, r6
 4381 2914 8246     		mov r10, r0
 4382 2916 9346     		mov r11, r2
 4383 2918 9046     		mov r8, r2
 4384 291a 08FB01F8 		mul r8, r8, r1
 4385              	__xie_lcd_dizhi1:
 4386 291e 4846     		mov r0, r9
 4387 2920 FFF7AFFF 		bl __xie_lcd_weizhi
 4388              	__du_ascii1:
 4389 2924 A85D     		ldrb r0, [r5, r6]
 4390 2926 4843     		muls r0, r0, r1
 4391 2928 6346     		mov r3, r12
 4392 292a 0344     		add r3, r3, r0
 4393 292c DB19     		adds r3, r3, r7
 4394              	__du_ziku_chushihua1:
 4395 292e 0024     		movs r4, # 0
 4396              	__du_ziku:
 4397 2930 185D     		ldrb r0, [r3, r4]
 4398 2932 1444     		add r4, r4, r2
 4399 2934 8C42     		cmp r4, r1
 4400 2936 02D8     		bhi __duwan_ziku
 4401 2938 FFF742FF 		bl __xie_spi1
 4402 293c F8E7     		b __du_ziku
 4403              	__duwan_ziku:
 4404 293e 0136     		adds r6, r6, # 1
 4405 2940 5645     		cmp r6, r10
 4406 2942 EFD1     		bne __du_ascii1
 4407 2944 0026     		movs r6, # 0
 4408 2946 0137     		adds r7, r7, # 1        @字库地址偏移
 4409 2948 19F10109 		adds r9, r9, # 1        @Y偏移
 4410 294c 5F45     		cmp r7, r11
 4411 294e E6D1     		bne __xie_lcd_dizhi1
 4412 2950 BDE8E08F 		pop {r5-r11,pc}
 4413              		
 4414              	
 4415              	
 4416              		
 4417              	__xie_lcd_ascii:
 4418 2954 2DE9F05F 		push {r4-r12,lr}
ARM GAS  1.s 			page 79


 4419              		@入口r0=写几个字
 4420              		@r1=字库单字长度
 4421              		@r2=y宽（几行）
 4422              		@r3=要写的地址
 4423 2958 854D     		ldr r5, = asciibiao
 4424 295a 9946     		mov r9, r3
 4425 295c 0026     		movs r6, # 0
 4426 295e 3746     		mov r7, r6
 4427 2960 B446     		mov r12, r6
 4428 2962 8246     		mov r10, r0
 4429 2964 9346     		mov r11, r2
 4430 2966 9046     		mov r8, r2
 4431 2968 08FB01F8 		mul r8, r8, r1
 4432              	__xie_lcd_dizhi:
 4433 296c 4846     		mov r0, r9
 4434 296e FFF788FF 		bl __xie_lcd_weizhi
 4435              	__du_ascii:
 4436 2972 A85D     		ldrb r0, [r5, r6]
 4437 2974 2E28     		cmp r0, # 0x2e
 4438 2976 16D0     		beq __xie_ascii_xiaoshudian
 4439 2978 4843     		muls r0, r0, r1
 4440              		
 4441 297a 7E4B     		ldr r3, = da_a_labo_hack  @da_a_labo_shuzi
 4442 297c 0344     		add r3, r3, r0
 4443 297e DB19     		adds r3, r3, r7
 4444              	__du_ziku_16_chushihua:
 4445 2980 0024     		movs r4, # 0
 4446              	__du_ziku_16:
 4447 2982 185D     		ldrb r0, [r3, r4]
 4448 2984 1444     		add r4, r4, r2
 4449 2986 8C42     		cmp r4, r1
 4450 2988 02D8     		bhi __duwan_16
 4451 298a FFF719FF 		bl __xie_spi1
 4452 298e F8E7     		b __du_ziku_16
 4453              	__duwan_16:
 4454 2990 0136     		adds r6, r6, # 1
 4455 2992 5645     		cmp r6, r10
 4456 2994 EDD1     		bne __du_ascii
 4457 2996 0026     		movs r6, # 0
 4458 2998 0137     		adds r7, r7, # 1	@字库地址偏移
 4459 299a 19F10109 		adds r9, r9, # 1	@Y偏移
 4460 299e 5F45     		cmp r7, r11	
 4461 29a0 E4D1     		bne __xie_lcd_dizhi
 4462 29a2 BDE8F09F 		pop {r4-r12,pc}
 4463              	__xie_ascii_xiaoshudian:
 4464 29a6 0CF1010C 		add r12, r12, # 1
 4465 29aa 9445     		cmp r12, r2
 4466 29ac 0CD0     		beq __xie_ru_xiaoshudian
 4467 29ae 0020     		movs r0, # 0
 4468 29b0 FFF706FF 		bl __xie_spi1
 4469 29b4 0020     		movs r0, # 0
 4470 29b6 FFF703FF 		bl __xie_spi1
 4471 29ba 0020     	        movs r0, # 0
 4472 29bc FFF700FF 		bl __xie_spi1
 4473 29c0 0020     		movs r0, # 0
 4474 29c2 FFF7FDFE 		bl __xie_spi1
 4475              		
ARM GAS  1.s 			page 80


 4476 29c6 E3E7     		b __duwan_16
 4477              	__xie_ru_xiaoshudian:	
 4478 29c8 0020     		movs r0, # 0
 4479 29ca FFF7F9FE 		bl __xie_spi1
 4480 29ce 7020     		movs r0, # 0x70
 4481 29d0 FFF7F6FE 		bl __xie_spi1
 4482 29d4 7020     		movs r0, # 0x70
 4483 29d6 FFF7F3FE 		bl __xie_spi1
 4484 29da 7020     		movs r0, # 0x70
 4485 29dc FFF7F0FE 	        bl __xie_spi1
 4486 29e0 D6E7     		b __duwan_16
 4487              		
 4488              	_zhuanascii:							@ 16进制转ASCII
 4489              		@ R0要转的数据， R1长度，R2结果表首地址, r3=小数点位置
 4490 29e2 F0B5     		push {r4-r7,lr}
 4491 29e4 1F46     		mov r7, r3
 4492 29e6 0546     		mov r5, r0
 4493 29e8 0E46     		mov r6, r1
 4494 29ea 0A21     		movs r1, # 10
 4495              	_xunhuanqiuma:
 4496 29ec B0FBF1F0 		udiv r0, r0, r1
 4497 29f0 0446     		mov r4, r0
 4498 29f2 4C43     		muls r4, r1
 4499 29f4 2B1B     		subs r3, r5, r4
 4500              	@	adds r3, r3, # 0x30	@ascii偏移
 4501 29f6 0546     		mov r5, r0
 4502 29f8 013E     		subs r6, r6, # 1
 4503 29fa 08D0     		beq _qiumafanhui
 4504 29fc BE42     		cmp r6, r7
 4505 29fe 02D1     		bne _meidaoxiaoshudian
 4506 2a00 2E24     		movs r4, # 0x2e		@小数点
 4507 2a02 9455     		strb r4, [r2,r6]	@插入小数点
 4508 2a04 013E     		subs r6, r6, # 1
 4509              	_meidaoxiaoshudian:
 4510 2a06 9355     		strb r3, [r2,r6]
 4511 2a08 3600     		movs r6, r6
 4512 2a0a EFD1     		bne _xunhuanqiuma
 4513 2a0c F0BD     		pop {r4-r7,pc}
 4514              	_qiumafanhui:
 4515 2a0e 9355     		strb r3, [r2, r6]
 4516 2a10 F0BD     		pop {r4-r7,pc}
 4517              	
 4518              	__zhuanascii:	              @ 转ASCII
 4519              		@ R0要转的数据， R1长度，R2结果表首地址, r3=小数点位置
 4520 2a12 F0B5     		push {r4-r7,lr}
 4521 2a14 1F46     		mov r7, r3
 4522 2a16 0546     		mov r5, r0
 4523 2a18 0E46     		mov r6, r1
 4524 2a1a 0A21     		movs r1, # 10
 4525              	__xunhuanqiuma:
 4526 2a1c B0FBF1F0 		udiv r0, r0, r1
 4527 2a20 0446     		mov r4, r0
 4528 2a22 4C43     		muls r4, r1
 4529 2a24 2B1B     		subs r3, r5, r4
 4530 2a26 3033     		adds r3, r3, # 0x30     @ascii偏移
 4531 2a28 0546     		mov r5, r0
 4532 2a2a 013E     		subs r6, r6, # 1
ARM GAS  1.s 			page 81


 4533 2a2c 08D0     		beq __qiumafanhui
 4534 2a2e BE42     		cmp r6, r7
 4535 2a30 02D1     		bne __meidaoxiaoshudian
 4536 2a32 2E24     		movs r4, # 0x2e         @小数点
 4537 2a34 9455     		strb r4, [r2,r6]        @插入小数点
 4538 2a36 013E     		subs r6, r6, # 1
 4539              	__meidaoxiaoshudian:
 4540 2a38 9355     		strb r3, [r2,r6]
 4541 2a3a 3600     		movs r6, r6
 4542 2a3c EED1     		bne __xunhuanqiuma
 4543 2a3e F0BD     		pop {r4-r7,pc}
 4544              	__qiumafanhui:
 4545 2a40 9355     		strb r3, [r2, r6]
 4546 2a42 F0BD     		pop {r4-r7,pc}
 4547              		
 4548              	___suan_atan2:
 4549              		@入口R0=实部，R1=虚部
 4550              		@出口R0=角度
 4551 2a44 7CB5     		push {r2-r6,lr}
 4552 2a46 4C4E     		ldr r6, = atan_biao
 4553 2a48 0022     		movs r2, # 0
 4554 2a4a 1346     		mov r3, r2
 4555 2a4c 0000     		movs r0, r0
 4556 2a4e 05D5     		bpl ___panduan_xubu
 4557 2a50 4FF4B402 		ldr r2, = 5898240
 4558 2a54 C043     		mvns r0, r0
 4559 2a56 C943     		mvns r1, r1
 4560 2a58 0130     		adds r0, r0, # 1
 4561 2a5a 0131     		adds r1, r1, # 1
 4562              	___panduan_xubu:
 4563 2a5c 0900     		movs r1, r1
 4564 2a5e 40F1E180 		bpl __suan_atan2_xunhuan
 4565 2a62 4FF43402 		ldr r2, = 11796480
 4566              	___suan_atan2_xunhuan:
 4567 2a66 0900     		movs r1, r1
 4568 2a68 0AD5     		bpl ___atan2_zhengzhuan
 4569 2a6a 0446     		mov r4, r0	@x
 4570 2a6c 0D46     		mov r5, r1	@y
 4571 2a6e 1D41     		asrs r5, r5, r3
 4572 2a70 1C41     		asrs r4, r4, r3
 4573 2a72 401B     		subs r0, r0, r5
 4574 2a74 0919     		adds r1, r1, r4
 4575 2a76 1C46     		mov r4, r3
 4576 2a78 A400     		lsls r4, r4, # 2
 4577 2a7a 3459     		ldr r4, [r6, r4]
 4578 2a7c 121B     		subs r2, r2, r4
 4579 2a7e 09E0     		b ___atan2_xuanzhuan
 4580              	___atan2_zhengzhuan:
 4581 2a80 0446     		mov r4, r0	@x
 4582 2a82 0D46     		mov r5, r1	@y
 4583 2a84 1D41     		asrs r5, r5, r3
 4584 2a86 1C41     		asrs r4, r4, r3
 4585 2a88 4019     		adds r0, r0, r5
 4586 2a8a 091B     		subs r1, r1, r4
 4587 2a8c 1C46     		mov r4, r3
 4588 2a8e A400     		lsls r4, r4, # 2
 4589 2a90 3459     		ldr r4, [r6, r4]
ARM GAS  1.s 			page 82


 4590 2a92 1219     		adds r2, r2, r4
 4591              	___atan2_xuanzhuan:
 4592 2a94 0133     		adds r3, r3, # 1
 4593 2a96 152B     		cmp r3, # 21
 4594 2a98 E5D1     		bne ___suan_atan2_xunhuan
 4595 2a9a 0146     		mov r1, r0
 4596 2a9c 1046     		mov r0,r2
 4597 2a9e 7CBD     		pop {r2-r6,pc}
 4598              	
 4599              	__chengfa:
 4600              		@入R0 乘以 R1
 4601              		@出 R0高32 ， R1低32
 4602              		@0xffffffff*0xffffffff
 4603              		@4        F F F E 0 0 0 1                       @4
 4604              		@3                F F F E 0 0 0 1               @3
 4605              		@2                F F F E 0 0 0 1               @2
 4606              		@1                        F F F E 0 0 0 1       @1
 4607              		@         F F F F F F F E 0 0 0 0 0 0 0 1
 4608 2aa0 FCB5     		push {r2-r7,lr}
 4609 2aa2 0028     		cmp r0, # 0
 4610 2aa4 1ED0     		beq __cheng_fa_fan_hui
 4611 2aa6 0029     		cmp r1, # 0
 4612 2aa8 1CD0     		beq __cheng_fa_fan_hui
 4613              	__ji_suan_cheng_fa:
 4614 2aaa 0246     		mov r2, r0
 4615 2aac 0B46     		mov r3, r1
 4616 2aae 000C     		lsrs r0, r0, # 16       @高16
 4617 2ab0 1204     		lsls r2, r2, # 16       @ 低16
 4618 2ab2 120C     		lsrs r2, r2, # 16
 4619 2ab4 090C     		lsrs r1, r1, # 16       @高16
 4620 2ab6 1B04     		lsls r3, r3, # 16       @低16
 4621 2ab8 1B0C     		lsrs r3, r3, # 16
 4622 2aba 1446     		mov r4, r2
 4623 2abc 0546     		mov r5, r0
 4624 2abe 5A43     		muls r2, r2, r3         @1
 4625 2ac0 5843     		muls r0, r0, r3         @2
 4626 2ac2 4C43     		muls r4, r4, r1         @3
 4627 2ac4 4D43     		muls r5, r5, r1         @4
 4628 2ac6 0646     		mov r6, r0
 4629 2ac8 2746     		mov r7, r4
 4630 2aca 0004     		lsls r0, r0, # 16       @2低32
 4631 2acc 2404     		lsls r4, r4, # 16       @3低32
 4632 2ace 360C     		lsrs r6, r6, # 16       @2高32
 4633 2ad0 3F0C     		lsrs r7, r7, # 16       @3高32
 4634 2ad2 0021     		movs r1, # 0
 4635 2ad4 1218     		adds r2, r2, r0         @低32
 4636 2ad6 4E41     		adcs r6, r6, r1         @高32
 4637 2ad8 1219     		adds r2, r2, r4
 4638 2ada 7E41     		adcs r6, r6, r7
 4639 2adc 7619     		adds r6, r6, r5
 4640 2ade 3046     		mov r0, r6
 4641 2ae0 1146     		mov r1, r2
 4642 2ae2 FCBD     		pop {r2-r7,pc}
 4643              	__cheng_fa_fan_hui:
 4644 2ae4 0020     		movs r0, # 0
 4645 2ae6 0021     		movs r1, # 0
 4646 2ae8 FCBD     		pop {r2-r7,pc}
ARM GAS  1.s 			page 83


 4647              	
 4648              	__ji_suan_fu_du:		    @ 计算幅度
 4649              		@ 入r0= 实部，r1= 虚部
 4650              		@ 出r0 = 幅度
 4651              		@ Mag ~=Alpha * max(|I|, |Q|) + Beta * min(|I|, |Q|)
 4652              		@ Alpha * Max + Beta * Min
 4653 2aea 1EB5     		push {r1-r4,lr}
 4654 2aec 0000     		movs r0, r0
 4655 2aee 01D5     		bpl _shibubushifushu
 4656 2af0 C043     		mvns r0, r0                             @ 是负数转成正数
 4657 2af2 0130     		adds r0, r0, # 1
 4658              	_shibubushifushu:		                               @ 实部不是负数
 4659 2af4 0900     		movs r1, r1
 4660 2af6 01D5     		bpl _xububushifushu
 4661 2af8 C943     		mvns r1, r1                             @ 是负数转成正数
 4662 2afa 0131     		adds r1, r1, # 1
 4663              	_xububushifushu:		                                @ 虚部不是负数
 4664 2afc 0028     		cmp r0, # 0
 4665 2afe 01D1     		bne _panduanxubushibushi0
 4666 2b00 0846     		mov r0, r1
 4667 2b02 1EBD     		pop {r1-r4,pc}
 4668              	_panduanxubushibushi0:
 4669 2b04 0029     		cmp r1, # 0
 4670 2b06 00D1     		bne _jisuanfudu1
 4671 2b08 1EBD     		pop {r1-r4,pc}
 4672              	_jisuanfudu1:
 4673 2b0a 47F65A12 		ldr r2, = 31066		@ Alpha q15 0.948059448969 @
 4674 2b0e 43F24423 		ldr r3, = 12868		@ Beta q15 0.392699081699
 4675 2b12 8142     		cmp r1, r0
 4676 2b14 12D8     		bhi _alpha_min_beta_max
 4677              	_alpha_max_beta_min:
 4678 2b16 0C46     		mov r4, r1
 4679 2b18 1146     		mov r1, r2
 4680 2b1a FFF7C1FF 		bl __chengfa
 4681 2b1e 4004     		lsls r0, r0, # 17
 4682 2b20 C90B     		lsrs r1, r1, # 15
 4683 2b22 0843     		orrs r0, r0, r1
 4684 2b24 0246     		mov r2, r0
 4685              	
 4686 2b26 1846     		mov r0, r3
 4687 2b28 2146     		mov r1, r4
 4688 2b2a FFF7B9FF 		bl __chengfa
 4689 2b2e 4004     		lsls r0, r0, # 17
 4690 2b30 C90B     		lsrs r1, r1, # 15
 4691 2b32 0143     		orrs r1, r1, r0
 4692 2b34 1046     		mov r0, r2
 4693              	
 4694              		@	muls r0, r0, r2
 4695              		@	muls r1, r1, r3
 4696              		@	asrs r0, r0, # 15
 4697              		@	asrs r1, r1, # 15
 4698 2b36 4018     		adds r0, r0, r1
 4699 2b38 0121     		movs r1, # 1
 4700 2b3a 1EBD     		pop {r1-r4,pc}
 4701              	_alpha_min_beta_max:
 4702 2b3c 0C46     		mov r4, r1
 4703 2b3e 1946     		mov r1, r3
ARM GAS  1.s 			page 84


 4704 2b40 FFF7AEFF 		bl __chengfa
 4705 2b44 4004     		lsls r0, r0, # 17
 4706 2b46 C90B     		lsrs r1, r1, # 15
 4707 2b48 0843     		orrs r0, r0, r1
 4708 2b4a 0346     		mov r3, r0
 4709              	
 4710 2b4c 1046     		mov r0, r2
 4711 2b4e 2146     		mov r1, r4
 4712 2b50 FFF7A6FF 		bl __chengfa
 4713 2b54 4004     		lsls r0, r0, # 17
 4714 2b56 C90B     		lsrs r1, r1, # 15
 4715 2b58 0143     		orrs r1, r1, r0
 4716 2b5a 1846     		mov r0, r3
 4717              	
 4718              		@	muls r0, r0, r3
 4719              		@	muls r1, r1, r2
 4720              		@	asrs r0, r0, # 15
 4721              		@	asrs r1, r1, # 15
 4722 2b5c 4018     		adds r0, r0, r1
 4723 2b5e 0021     		movs r1, # 0
 4724 2b60 1EBD     		pop {r1-r4,pc}
 4725              	
 4726 2b62 00000030 		.ltorg
 4726      01401838 
 4726      024050A3 
 4726      00000000 
 4726      002064A1 
 4727              	__suan_cos_sin:
 4728              		@入口R0=0*32768到360*32768
 4729              		@出口R0=COS，R1=SIN
 4730              		@增益 32768*0.6072529350088812561694
 4731 2b7c FCB5     		push {r2-r7,lr}
 4732 2b7e 44F6BA51 		ldr r1, = 0x4dba
 4733 2b82 4FF43412 		ldr r2, = 2949120	@90
 4734 2b86 4FF40703 		ldr r3, = 8847360	@270
 4735 2b8a 1D4F     		ldr r7, = atan_biao
 4736 2b8c 0025     		movs r5, # 0
 4737 2b8e 2E46     		mov r6, r5
 4738 2b90 9042     		cmp r0, r2
 4739 2b92 01D8     		bhi __dayu_90
 4740 2b94 0024     		movs r4, # 0
 4741 2b96 06E0     		b __suan_cos_sin_xunhuan
 4742              	__dayu_90:
 4743 2b98 9842     		cmp r0, r3
 4744 2b9a 02D8     		bhi __dayu_270
 4745 2b9c 4FF4B404 		ldr r4, = 5898240	@180
 4746 2ba0 01E0     		b __suan_cos_sin_xunhuan
 4747              	__dayu_270:
 4748 2ba2 4FF43404 		ldr r4, = 11796480 	@360
 4749              	__suan_cos_sin_xunhuan:
 4750 2ba6 2346     		mov r3, r4
 4751 2ba8 0246     		mov r2, r0
 4752 2baa D21A     		subs r2, r2, r3
 4753 2bac 0AD4     		bmi __zhengzhuan
 4754              	__fanzhuan:
 4755 2bae 3346     		mov r3, r6
 4756 2bb0 0A46     		mov r2, r1
ARM GAS  1.s 			page 85


 4757 2bb2 2E41     		asrs r6, r6, r5
 4758 2bb4 921B     		subs r2, r2, r6	@x
 4759 2bb6 2941     		asrs r1, r1, r5
 4760 2bb8 2E46     		mov r6, r5
 4761 2bba B600     		lsls r6, r6, # 2
 4762 2bbc BE59     		ldr r6, [r7, r6]
 4763 2bbe 5B18     		adds r3, r3, r1	@y
 4764 2bc0 A419     		adds r4, r4, r6	@jiaodu
 4765 2bc2 09E0     		b __cordic_xuanzhuan
 4766              	__zhengzhuan:
 4767 2bc4 3346     		mov r3, r6
 4768 2bc6 0A46     		mov r2, r1
 4769 2bc8 2E41     		asrs r6, r6, r5
 4770 2bca 9219     		adds r2, r2, r6	@x
 4771 2bcc 2941     		asrs r1, r1, r5
 4772 2bce 2E46     		mov r6, r5
 4773 2bd0 B600     		lsls r6, r6, # 2
 4774 2bd2 BE59     		ldr r6, [r7, r6]
 4775 2bd4 5B1A     		subs r3, r3, r1	@y
 4776 2bd6 A41B     		subs r4, r4, r6	@jiaodu
 4777              	__cordic_xuanzhuan:
 4778 2bd8 1146     		mov r1, r2
 4779 2bda 1E46     		mov r6, r3
 4780 2bdc 0135     		adds r5, r5, # 1
 4781 2bde 152D     		cmp r5, # 21
 4782 2be0 E1D1     		bne __suan_cos_sin_xunhuan
 4783 2be2 4FF43416 		ldr r6, = 2949120	@90
 4784 2be6 4FF40707 		ldr r7, = 8847360      @270
 4785 2bea B042     		cmp r0, r6
 4786 2bec 05D9     		bls __suan_cos_sin_fanhui
 4787 2bee B842     		cmp r0, r7
 4788 2bf0 03D2     		bcs __suan_cos_sin_fanhui
 4789 2bf2 D243     		mvns r2, r2
 4790 2bf4 DB43     		mvns r3, r3
 4791 2bf6 0132     		adds r2, r2, # 1
 4792 2bf8 0133     		adds r3, r3, # 1
 4793              	__suan_cos_sin_fanhui:
 4794 2bfa 1946     		mov r1, r3
 4795 2bfc 1046     		mov r0, r2
 4796 2bfe FCBD     		pop {r2-r7,pc}
 4797 2c00 10A10000 		.ltorg
 4798              	
 4799              	
 4800              		
 4801              	__suan_atan2:
 4802              		@入口R0=实部，R1=虚部
 4803              		@出口R0=角度
 4804 2c04 7CB5     		push {r2-r6,lr}
 4805 2c06 164E     		ldr r6, = atan_biao
 4806 2c08 0022     		movs r2, # 0
 4807 2c0a 1346     		mov r3, r2
 4808 2c0c 0000     		movs r0, r0
 4809 2c0e 05D5     		bpl __panduan_xubu
 4810 2c10 4FF4B402 		ldr r2, = 5898240
 4811 2c14 C043     		mvns r0, r0
 4812 2c16 C943     		mvns r1, r1
 4813 2c18 0130     		adds r0, r0, # 1
ARM GAS  1.s 			page 86


 4814 2c1a 0131     		adds r1, r1, # 1
 4815              	__panduan_xubu:
 4816 2c1c 0900     		movs r1, r1
 4817 2c1e 01D5     		bpl __suan_atan2_xunhuan
 4818 2c20 4FF43402 		ldr r2, = 11796480
 4819              	__suan_atan2_xunhuan:
 4820 2c24 0900     		movs r1, r1
 4821 2c26 0AD5     		bpl __atan2_zhengzhuan
 4822 2c28 0446     		mov r4, r0	@x
 4823 2c2a 0D46     		mov r5, r1	@y
 4824 2c2c 1D41     		asrs r5, r5, r3
 4825 2c2e 1C41     		asrs r4, r4, r3
 4826 2c30 401B     		subs r0, r0, r5
 4827 2c32 0919     		adds r1, r1, r4
 4828 2c34 1C46     		mov r4, r3
 4829 2c36 A400     		lsls r4, r4, # 2
 4830 2c38 3459     		ldr r4, [r6, r4]
 4831 2c3a 121B     		subs r2, r2, r4
 4832 2c3c 09E0     		b __atan2_xuanzhuan
 4833              	__atan2_zhengzhuan:
 4834 2c3e 0446     		mov r4, r0	@x
 4835 2c40 0D46     		mov r5, r1	@y
 4836 2c42 1D41     		asrs r5, r5, r3
 4837 2c44 1C41     		asrs r4, r4, r3
 4838 2c46 4019     		adds r0, r0, r5
 4839 2c48 091B     		subs r1, r1, r4
 4840 2c4a 1C46     		mov r4, r3
 4841 2c4c A400     		lsls r4, r4, # 2
 4842 2c4e 3459     		ldr r4, [r6, r4]
 4843 2c50 1219     		adds r2, r2, r4
 4844              	__atan2_xuanzhuan:
 4845 2c52 0133     		adds r3, r3, # 1
 4846 2c54 152B     		cmp r3, # 21
 4847 2c56 E5D1     		bne __suan_atan2_xunhuan
 4848 2c58 0146     		mov r1, r0
 4849 2c5a 1046     		mov r0,r2
 4850 2c5c 7CBD     		pop {r2-r6,pc}
 4851 2c5e 000010A1 		.ltorg
 4851      0000
 4852              	
 4853              	
 4854              	
 4855              	__fushu_chengfa:
 4856              		@入口R0=Z1_R, R1=Z1_I,R2=Z2_R,R3=Z2_I
 4857              		@出口R0=Z_R,R1=Z_I
 4858 2c64 F0B5     		push {r4-r7,lr}
 4859 2c66 0646     		mov r6, r0
 4860 2c68 0F46     		mov r7, r1
 4861              		@	lsls r0, r0, # 15
 4862              		@	lsls r1, r1, # 15
 4863 2c6a FFF7CBFF 		bl __suan_atan2
 4864 2c6e 0546     		mov r5, r0
 4865 2c70 1046     		mov r0, r2
 4866 2c72 1946     		mov r1, r3
 4867              		@	lsls r0, r0, # 15
 4868              		@	lsls r1, r1, # 15
 4869 2c74 FFF7C6FF 		bl __suan_atan2
ARM GAS  1.s 			page 87


 4870              		@	bkpt # 0
 4871 2c78 2946     		mov r1, r5
 4872 2c7a 0818     		adds r0, r1, r0 @算角度差
 4873 2c7c 4FF43401 		ldr r1, = 11796480      @360*32768
 4874 2c80 8842     		cmp r0, r1
 4875 2c82 00D3     		bcc __suan_chengfa_shangxiabi_fudu
 4876 2c84 401A     		subs r0, r0, r1
 4877              	__suan_chengfa_shangxiabi_fudu:
 4878 2c86 0546     		mov r5, r0      @保存角度和
 4879              		@      bkpt # 1
 4880 2c88 1046     		mov r0, r2
 4881 2c8a 1946     		mov r1, r3
 4882 2c8c FFF72DFF 		bl __ji_suan_fu_du
 4883              		@       bkpt # 2
 4884 2c90 0246     		mov r2, r0
 4885 2c92 3046     		mov r0, r6      @上臂R
 4886 2c94 3946     		mov r1, r7      @上臂I
 4887 2c96 FFF728FF 		bl __ji_suan_fu_du
 4888              		@	bkpt # 3
 4889 2c9a 1146     		mov r1, r2
 4890 2c9c FFF700FF 		bl __chengfa
 4891 2ca0 4004     		lsls r0, r0, # 17
 4892 2ca2 C90B     		lsrs r1, r1, # 15
 4893 2ca4 0843     		orrs r0, r0, r1
 4894 2ca6 0346     		mov r3, r0      @Z幅度
 4895              		@	bkpt # 4
 4896 2ca8 2846     		mov r0, r5
 4897 2caa FFF767FF 		bl __suan_cos_sin
 4898              		@      bkpt # 4
 4899 2cae 0C46     		mov r4, r1
 4900 2cb0 1946     		mov r1, r3
 4901 2cb2 0022     		movs r2, # 0
 4902 2cb4 0000     		movs r0, r0
 4903 2cb6 02D5     		bpl cf1
 4904 2cb8 0132     		adds r2, r2, # 1
 4905 2cba C043     		mvns r0, r0
 4906 2cbc 0130     		adds r0, r0, # 1
 4907              	cf1:
 4908 2cbe 0900     		movs r1, r1
 4909 2cc0 02D5     		bpl cf2
 4910 2cc2 0132     		adds r2, r2, # 1
 4911 2cc4 C943     		mvns r1, r1
 4912 2cc6 0131     		adds r1, r1, # 1
 4913              	cf2:
 4914 2cc8 FFF7EAFE 		bl __chengfa
 4915              		@       bkpt # 5
 4916 2ccc 4004     		lsls r0, r0, # 17
 4917 2cce C90B     		lsrs r1, r1, # 15
 4918 2cd0 0143     		orrs r1, r1, r0
 4919 2cd2 012A     		cmp r2, # 1
 4920 2cd4 01D1     		bne __suan_chengfa_xubu
 4921 2cd6 C943     		mvns r1, r1
 4922 2cd8 0131     		adds r1, r1, # 1
 4923              	__suan_chengfa_xubu:
 4924 2cda 2046     		mov r0, r4
 4925 2cdc 0C46     		mov r4, r1      @实部
 4926 2cde 1946     		mov r1, r3
ARM GAS  1.s 			page 88


 4927 2ce0 0022     		movs r2, # 0
 4928 2ce2 0000     		movs r0, r0
 4929 2ce4 02D5     		bpl cf3
 4930 2ce6 0132     		adds r2, r2, # 1
 4931 2ce8 C043     		mvns r0, r0
 4932 2cea 0130     		adds r0, r0, # 1
 4933              	cf3:
 4934 2cec 0900     		movs r1, r1
 4935 2cee 02D5     		bpl cf4
 4936 2cf0 0132     		adds r2, r2, # 1
 4937 2cf2 C943     		mvns r1, r1
 4938 2cf4 0131     		adds r1, r1, # 1
 4939              	cf4:
 4940 2cf6 FFF7D3FE 		bl __chengfa
 4941              		@       bkpt #6
 4942 2cfa 4004     		lsls r0, r0, # 17
 4943 2cfc C90B     		lsrs r1, r1, # 15
 4944 2cfe 0143     		orrs r1, r1, r0
 4945 2d00 012A     		cmp r2, # 1
 4946 2d02 01D1     		bne cf5
 4947 2d04 C943     		mvns r1, r1
 4948 2d06 0131     		adds r1, r1, # 1
 4949              	cf5:
 4950 2d08 2046     		mov r0, r4
 4951 2d0a F0BD     		pop {r4-r7,pc}
 4952              		.ltorg
 4953              	
 4954              	
 4955              	
 4956              		
 4957              	__fushu_chufa:
 4958              		@入口R0=Z1_R, R1=Z1_I,R2=Z2_R,R3=Z2_I
 4959              		@出口R0=Z_R,R1=Z_I
 4960 2d0c F0B5     		push {r4-r7,lr}
 4961 2d0e 0646     		mov r6, r0
 4962 2d10 0F46     		mov r7, r1
 4963              		@	lsls r0, r0, # 15
 4964              		@	lsls r1, r1, # 15
 4965 2d12 FFF777FF 		bl __suan_atan2
 4966 2d16 0546     		mov r5, r0
 4967 2d18 1046     		mov r0, r2
 4968 2d1a 1946     		mov r1, r3
 4969              		@	lsls r0, r0, # 15
 4970              		@	lsls r1, r1, # 15
 4971 2d1c FFF772FF 		bl __suan_atan2
 4972              		@	bkpt # 0
 4973 2d20 2946     		mov r1, r5
 4974 2d22 081A     		subs r0, r1, r0 @算角度差
 4975 2d24 02D5     		bpl __suan_shangxiabi_fudu
 4976 2d26 4FF43401 		ldr r1, = 11796480      @360*32768
 4977 2d2a 4018     		adds r0, r0, r1
 4978              	__suan_shangxiabi_fudu:
 4979 2d2c 0546     		mov r5, r0      @保存角度差
 4980              		@	bkpt # 1
 4981 2d2e 1046     		mov r0, r2
 4982 2d30 1946     		mov r1, r3
 4983 2d32 FFF7DAFE 		bl __ji_suan_fu_du
ARM GAS  1.s 			page 89


 4984              		@	bkpt # 2
 4985 2d36 0246     		mov r2, r0
 4986 2d38 3046     		mov r0, r6      @上臂R
 4987 2d3a 3946     		mov r1, r7      @上臂I
 4988 2d3c FFF7D5FE 		bl __ji_suan_fu_du
 4989              		@	bkpt # 3
 4990 2d40 0146     		mov r1, r0
 4991 2d42 400C     		lsrs r0, r0, # 17
 4992 2d44 C903     		lsls r1, r1, # 15
 4993 2d46 00F033F8 		bl __chufa64
 4994 2d4a 0B46     		mov r3, r1      @Z幅度
 4995              		@	bkpt # 4
 4996 2d4c 2846     		mov r0, r5
 4997 2d4e FFF715FF 		bl __suan_cos_sin
 4998              		@	bkpt # 4
 4999 2d52 0C46     		mov r4, r1
 5000 2d54 1946     		mov r1, r3
 5001 2d56 0022     		movs r2, # 0
 5002 2d58 0000     		movs r0, r0
 5003 2d5a 02D5     		bpl cl1
 5004 2d5c 0132     		adds r2, r2, # 1
 5005 2d5e C043     		mvns r0, r0
 5006 2d60 0130     		adds r0, r0, # 1
 5007              	cl1:
 5008 2d62 0900     		movs r1, r1
 5009 2d64 02D5     		bpl cl2
 5010 2d66 0132     		adds r2, r2, # 1
 5011 2d68 C943     		mvns r1, r1
 5012 2d6a 0131     		adds r1, r1, # 1
 5013              	cl2:
 5014 2d6c FFF798FE 		bl __chengfa
 5015              		@	bkpt # 5
 5016 2d70 4004     		lsls r0, r0, # 17
 5017 2d72 C90B     		lsrs r1, r1, # 15
 5018 2d74 0143     		orrs r1, r1, r0
 5019 2d76 012A     		cmp r2, # 1
 5020 2d78 01D1     		bne __suan_xubu
 5021 2d7a C943     		mvns r1, r1
 5022 2d7c 0131     		adds r1, r1, # 1
 5023              	__suan_xubu:
 5024 2d7e 2046     		mov r0, r4
 5025 2d80 0C46     		mov r4, r1      @实部
 5026 2d82 1946     		mov r1, r3
 5027 2d84 0022     		movs r2, # 0
 5028 2d86 0000     		movs r0, r0
 5029 2d88 02D5     		bpl cl3
 5030 2d8a 0132     		adds r2, r2, # 1
 5031 2d8c C043     		mvns r0, r0
 5032 2d8e 0130     		adds r0, r0, # 1
 5033              	cl3:
 5034 2d90 0900     		movs r1, r1
 5035 2d92 02D5     		bpl cl4
 5036 2d94 0132     		adds r2, r2, # 1
 5037 2d96 C943     		mvns r1, r1
 5038 2d98 0131     		adds r1, r1, # 1
 5039              	cl4:
 5040 2d9a FFF781FE 		bl __chengfa
ARM GAS  1.s 			page 90


 5041              		@	bkpt #6
 5042 2d9e 4004     		lsls r0, r0, # 17
 5043 2da0 C90B     		lsrs r1, r1, # 15
 5044 2da2 0143     		orrs r1, r1, r0
 5045 2da4 012A     		cmp r2, # 1
 5046 2da6 01D1     		bne cl5
 5047 2da8 C943     		mvns r1, r1
 5048 2daa 0131     		adds r1, r1, # 1
 5049              	cl5:
 5050 2dac 2046     		mov r0, r4
 5051              		@有问题，ZR是负数输出ZI符号也会有问题
 5052              	@	movs r0, r0
 5053              	@	bpl __zr_bushifu
 5054              	@	mvns r0, r0
 5055              	@	mvns r1, r1
 5056              	@	adds r0, r0, # 1
 5057              	@	adds r1, r1, # 1
 5058              	@__zr_bushifu:
 5059 2dae F0BD     		pop {r4-r7,pc}
 5060              	
 5061              		
 5062              	__chufa64:
 5063              		@64位除32位
 5064              		@ （R0=高32位R1=低32位）除（R2)= （R0高32）（R1低32）
 5065 2db0 F8B5     		push {r3-r7,lr}
 5066 2db2 002A     		cmp r2, # 0
 5067 2db4 1DD0     		beq __chu_fa64_fan_hui0
 5068 2db6 0029     		cmp r1, # 0
 5069 2db8 01D1     		bne __chu_fa64_ji_suan
 5070 2dba 0028     		cmp r0, # 0
 5071 2dbc 19D0     		beq __chu_fa64_fan_hui0
 5072              	__chu_fa64_ji_suan:
 5073 2dbe 0024     		movs r4, # 0
 5074 2dc0 2746     		mov r7, r4
 5075 2dc2 2346     		mov r3, r4
 5076 2dc4 2546     		mov r5, r4
 5077 2dc6 0126     		movs r6, # 1
 5078 2dc8 F607     		lsls r6, r6, # 31
 5079              	__chu_fa64_xun_huan:
 5080 2dca 4900     		lsls r1, r1, # 1
 5081 2dcc 4041     		adcs r0, r0, r0
 5082 2dce 6441     		adcs r4, r4, r4
 5083 2dd0 9442     		cmp r4, r2
 5084 2dd2 02D3     		bcc __chu_fa_yi_wei
 5085 2dd4 9B19     		adds r3, r3, r6
 5086 2dd6 7D41     		adcs r5, r5, r7
 5087 2dd8 A41A     		subs r4, r4, r2
 5088              	__chu_fa_yi_wei:
 5089 2dda 3600     		movs r6, r6
 5090 2ddc 04D0     		beq __di_yi_wei
 5091 2dde 7608     		lsrs r6, r6, # 1        @高32位移位
 5092 2de0 F3D1     		bne __chu_fa64_xun_huan
 5093 2de2 0127     		movs r7, # 1
 5094 2de4 FF07     		lsls r7, r7, # 31
 5095 2de6 F0E7     		b __chu_fa64_xun_huan
 5096              	__di_yi_wei:		            @低32位移位
 5097 2de8 7F08     		lsrs r7, r7, # 1
ARM GAS  1.s 			page 91


 5098 2dea EED1     		bne __chu_fa64_xun_huan
 5099 2dec 1846     		mov r0, r3
 5100 2dee 2946     		mov r1, r5
 5101 2df0 F8BD     		pop {r3-r7,pc}
 5102              	__chu_fa64_fan_hui0:
 5103 2df2 0020     		movs r0, # 0
 5104 2df4 0021     		movs r1, # 0
 5105 2df6 F8BD     		pop {r3-r7,pc}
 5106              	_nmi_handler:	
 5107              	_hard_fault:	
 5108              	_memory_fault:	
 5109              	_bus_fault:	
 5110              	_usage_fault:
 5111              	aaa:
 5112 2df8 7047     		bx lr
 5113              	__systick_zhongduan:					@syzd
 5114 2dfa 2DE9FF5F 		push {r0-r12,lr}
 5115              	__suan_dft:
 5116              	__deng_dma_wan:
 5117 2dfe 5E48     		ldr r0, = shangxiabi_qiehuan
 5118 2e00 0168     		ldr r1, [r0]
 5119 2e02 0131     		adds r1, r1, # 1
 5120 2e04 0160     		str r1, [r0]
 5121 2e06 0229     		cmp r1, # 2
 5122 2e08 24D0     		beq __qiehuan_xiabi
 5123              		@	cmp r1, # 2
 5124              		@	beq __jisuan_shangbi
 5125              		@	cmp r1, # 3
 5126              		@	beq __qiehuan_xiabi
 5127              		@	cmp r1, # 4
 5128              		@	beq __jisuan_xiabi
 5129              	__qiehuan_shangbi:
 5130 2e0a 5C4B     		ldr r3, = liangcheng
 5131 2e0c 5C4C     		ldr r4, = shangbi_liangcheng
 5132 2e0e 1B68     		ldr r3, [r3]
 5133 2e10 5C4A     		ldr r2, = 0x40023400
 5134 2e12 5569     		ldr r5, [r2, 0x14]
 5135 2e14 E35C     		ldrb r3, [r4, r3]
 5136 2e16 2D0A     		lsrs r5, r5, # 8
 5137 2e18 2D02     		lsls r5, r5, # 8
 5138 2e1a 2B43     		orrs r3, r3, r5
 5139 2e1c 5361     		str r3, [r2, # 0x14]
 5140              	__jisuan_shangbi:
 5141 2e1e FEF723FB 		bl __dft_jisuan
 5142 2e22 8010     		asrs r0, r0, # 2
 5143 2e24 8910     		asrs r1, r1, # 2
 5144 2e26 C043     		mvns r0, r0
 5145 2e28 0130     		adds r0, r0, # 1
 5146 2e2a C943     		mvns r1, r1
 5147 2e2c 0131     		adds r1, r1, # 1
 5148 2e2e 564A     		ldr r2, = xiabi_rr
 5149 2e30 564C     		ldr r4, = xiabi_ii
 5150 2e32 1060     		str r0, [r2]
 5151 2e34 2160     		str r1, [r4]
 5152 2e36 0446     		mov r4, r0
 5153 2e38 554A     		ldr r2, = lvboqizhizhen2
 5154 2e3a 5648     		ldr r0, =lvboqihuanchong2
ARM GAS  1.s 			page 92


 5155 2e3c FEF7A5F9 		bl __lv_bo_qi
 5156 2e40 554A     		ldr r2, = xiabi_i
 5157 2e42 1060     		str r0, [r2]
 5158              	
 5159 2e44 2146     		mov r1, r4
 5160 2e46 554A     		ldr r2, = lvboqizhizhen3
 5161 2e48 5548     		ldr r0, =lvboqihuanchong3
 5162 2e4a FEF79EF9 		bl __lv_bo_qi
 5163 2e4e 554A     		ldr r2, = xiabi_r
 5164 2e50 1060     		str r0, [r2]
 5165 2e52 8BE0     		b __systick_fanhui
 5166              	__qiehuan_xiabi:
 5167 2e54 0021     		movs r1, # 0
 5168 2e56 0160     		str r1, [r0]
 5169              	
 5170 2e58 484B     		ldr r3, = liangcheng
 5171 2e5a 534C     		ldr r4, = xiabi_liangcheng
 5172 2e5c 1B68     		ldr r3, [r3]
 5173 2e5e 494A     		ldr r2, = 0x40023400
 5174 2e60 5569     		ldr r5, [r2, 0x14]
 5175 2e62 E35C     		ldrb r3, [r4, r3]
 5176 2e64 2D0A     		lsrs r5, r5, # 8
 5177 2e66 2D02     		lsls r5, r5, # 8
 5178 2e68 2B43     		orrs r3, r3, r5
 5179 2e6a 0425     		movs r5, # 0x04
 5180 2e6c 2B43     		orrs r3, r3, r5
 5181 2e6e 5361     		str r3, [r2, # 0x14]
 5182              	__jisuan_xiabi:
 5183 2e70 FEF7FAFA 		bl __dft_jisuan
 5184 2e74 8010     		asrs r0, r0, # 2
 5185 2e76 8910     		asrs r1, r1, # 2
 5186 2e78 4C4A     		ldr r2, = shangbi_rr
 5187 2e7a 4D4C     		ldr r4, = shangbi_ii
 5188 2e7c 1060     		str r0, [r2]
 5189 2e7e 2160     		str r1, [r4]
 5190 2e80 0446     		mov r4, r0
 5191 2e82 4C4A     		ldr r2, = lvboqizhizhen
 5192 2e84 4C48     		ldr r0, =lvboqihuanchong
 5193 2e86 FEF780F9 		bl __lv_bo_qi
 5194 2e8a 4C4A     		ldr r2, = shangbi_i
 5195 2e8c 1060     		str r0, [r2]
 5196              	
 5197 2e8e 2146     		mov r1, r4
 5198 2e90 4B4A     		ldr r2, = lvboqizhizhen1
 5199 2e92 4C48     		ldr r0, =lvboqihuanchong1
 5200 2e94 FEF779F9 		bl __lv_bo_qi
 5201 2e98 4B4A     		ldr r2, = shangbi_r
 5202 2e9a 1060     		str r0, [r2]
 5203              	
 5204              		@	b __kuaisu_dangwei
 5205              	
 5206              	
 5207              	
 5208              	
 5209 2e9c 4B48     		ldr r0, = mansu_kaiguan
 5210 2e9e 0168     		ldr r1, [r0]
 5211 2ea0 0129     		cmp r1, # 1
ARM GAS  1.s 			page 93


 5212 2ea2 2ED1     		bne __kuaisu_dangwei
 5213              	__mansu_dangwei:
 5214 2ea4 4A48     		ldr r0, = kuaisu_dangwei_fazhi
 5215 2ea6 0021     		movs r1, # 0
 5216 2ea8 0160     		str r1, [r0]
 5217 2eaa 4A48     		ldr r0, = mansu_dangwei_yanshi
 5218 2eac 0168     		ldr r1, [r0]
 5219 2eae 0131     		adds r1, r1, # 1
 5220 2eb0 0160     		str r1, [r0]
 5221 2eb2 B1F5DC7F 		cmp  r1, # 440
 5222 2eb6 59D1     		bne __systick_fanhui
 5223 2eb8 0021     		movs r1, # 0
 5224 2eba 0160     		str r1, [r0]
 5225 2ebc 424C     		ldr r4, = shangbi_r
 5226 2ebe 3F4D     		ldr r5, = shangbi_i
 5227 2ec0 384E     		ldr r6, = xiabi_r
 5228 2ec2 354F     		ldr r7, = xiabi_i
 5229 2ec4 2068     		ldr r0, [r4]
 5230 2ec6 2968     		ldr r1, [r5]
 5231 2ec8 3268     		ldr r2, [r6]
 5232 2eca 3B68     		ldr r3, [r7]
 5233 2ecc FEF712F9 		bl __jisuan_z_fudu
 5234 2ed0 4149     		ldr r1, = z_fudu
 5235 2ed2 0860     		str r0, [r1]
 5236 2ed4 FEF751F8 		bl __zidong_dangwei
 5237 2ed8 2848     		ldr r0, = liangcheng
 5238 2eda 4049     		ldr r1, = shangci_dangwei
 5239 2edc 0368     		ldr r3, [r0]
 5240 2ede 0A68     		ldr r2, [r1]
 5241 2ee0 D21A     		subs r2, r2, r3
 5242 2ee2 01D5     		bpl __jiance_mansu_huandang
 5243 2ee4 D243     		mvns r2, r2
 5244 2ee6 0132     		adds r2, r2, # 1
 5245              	__jiance_mansu_huandang:
 5246 2ee8 002A     		cmp r2,  # 0
 5247 2eea 00D8     		bhi __qiehuan_kuaisu
 5248 2eec 04E0     		b __jixu_mansu
 5249              	__qiehuan_kuaisu:
 5250 2eee 0B60     		str r3, [r1]
 5251 2ef0 3648     		ldr r0, = mansu_kaiguan
 5252 2ef2 0021     		movs r1, # 0
 5253 2ef4 0160     		str r1, [r0]
 5254 2ef6 39E0     		b __systick_fanhui
 5255              	__jixu_mansu:
 5256 2ef8 0B60     		str r3, [r1]
 5257 2efa 3448     		ldr r0, = mansu_kaiguan
 5258 2efc 0121     		movs r1, # 1
 5259 2efe 0160     		str r1, [r0]
 5260 2f00 34E0     		b __systick_fanhui
 5261              	
 5262              	
 5263              	__kuaisu_dangwei:
 5264 2f02 3748     		ldr r0, = kuaisu_dangwei_yanshi
 5265 2f04 0168     		ldr r1, [r0]
 5266 2f06 0131     		adds r1, r1, # 1
 5267 2f08 0160     		str r1, [r0]
 5268 2f0a 0829     		cmp r1, # 8
ARM GAS  1.s 			page 94


 5269 2f0c 2ED1     		bne __systick_fanhui
 5270 2f0e 0021     		movs r1, # 0
 5271 2f10 0160     		str r1, [r0]
 5272 2f12 264C     		ldr r4, = shangbi_rr
 5273 2f14 264D     		ldr r5, = shangbi_ii
 5274 2f16 1C4E     		ldr r6, = xiabi_rr
 5275 2f18 1C4F     		ldr r7, = xiabi_ii
 5276 2f1a 2068     		ldr r0, [r4]
 5277 2f1c 2968     		ldr r1, [r5]
 5278 2f1e 3268     		ldr r2, [r6]
 5279 2f20 3B68     		ldr r3, [r7]
 5280 2f22 8010     		asrs r0, r0, # 2
 5281 2f24 8910     		asrs r1, r1, # 2
 5282 2f26 9210     		asrs r2, r2, # 2
 5283 2f28 9B10     		asrs r3, r3, # 2
 5284 2f2a FEF7E3F8 		bl __jisuan_z_fudu
 5285 2f2e 2A49     		ldr r1, = z_fudu
 5286 2f30 0860     		str r0, [r1]
 5287 2f32 FEF722F8 		bl __zidong_dangwei
 5288 2f36 1148     		ldr r0, = liangcheng
 5289 2f38 2849     		ldr r1, = shangci_dangwei
 5290 2f3a 0368     		ldr r3, [r0]
 5291 2f3c 0A68     		ldr r2, [r1]
 5292 2f3e D21A     		subs r2, r2, r3
 5293 2f40 01D5     		bpl __jiance_huandang
 5294 2f42 D243     		mvns r2, r2
 5295 2f44 0132     		adds r2, r2, # 1
 5296              	__jiance_huandang:
 5297 2f46 002A     		cmp r2,  # 0
 5298 2f48 0CD0     		beq __mansu_kai
 5299              	__kuaisu_kai:
 5300 2f4a 0B60     		str r3, [r1]
 5301 2f4c 1F48     		ldr r0, = mansu_kaiguan
 5302 2f4e 0021     		movs r1, # 0
 5303 2f50 0160     		str r1, [r0]
 5304 2f52 1F48     		ldr r0, = kuaisu_dangwei_fazhi
 5305 2f54 0168     		ldr r1, [r0]
 5306 2f56 0131     		adds r1, r1, # 1
 5307 2f58 0160     		str r1, [r0]
 5308 2f5a 1429     		cmp r1, # 20
 5309 2f5c 00D8     		bhi __kuaisu_fazhi_dao
 5310 2f5e 05E0     		b __systick_fanhui
 5311              	__kuaisu_fazhi_dao:
 5312 2f60 0021     		movs r1, # 0
 5313 2f62 0160     		str r1, [r0]
 5314              	__mansu_kai:
 5315 2f64 0B60     		str r3, [r1]
 5316 2f66 1948     		ldr r0, = mansu_kaiguan
 5317 2f68 0121     		movs r1, # 1
 5318 2f6a 0160     		str r1, [r0]
 5319              	__systick_fanhui:
 5320 2f6c 1D48     		ldr r0, = 0xe0000d04
 5321 2f6e 4FF00071 		ldr r1, = 0x02000000
 5322 2f72 0160     		str r1, [r0]                 @ 清除SYSTICK中断
 5323 2f74 BDE8FF9F 		pop {r0-r12,pc}
 5324              		
 5325              	
ARM GAS  1.s 			page 95


 5326              		
 5327 2f78 C4010020 		.ltorg
 5327      A0010020 
 5327      E0040000 
 5327      00340240 
 5327      A8010020 
 5328              		.section .data
 5329              	
 5330              	        .equ _khz1_3.33mr_duanlu_r,      0x800f100
 5331              		.equ _khz1_33.3mr_duanlu_r,      0x800f104
 5332              		.equ _khz1_333mr_duanlu_r,       0x800f108
 5333              		.equ _khz1_3.33r_duanlu_r,       0x800f10c
 5334              		.equ _khz1_33.3r_duanlu_r,       0x800f110
 5335              		.equ _khz1_333r_duanlu_r,        0x800f114
 5336              		.equ _khz1_3333r_duanlu_r,       0x800f118
 5337              		.equ _khz1_3.33mr_duanlu_i,      0x800f11c
 5338              		.equ _khz1_33.3mr_duanlu_i,      0x800f120
 5339              		.equ _khz1_333mr_duanlu_i,       0x800f124
 5340              		.equ _khz1_3.33r_duanlu_i,       0x800f128
 5341              		.equ _khz1_33.3r_duanlu_i,       0x800f12c
 5342              		.equ _khz1_333r_duanlu_i,        0x800f130
 5343              		.equ _khz1_3333r_duanlu_i,       0x800f134
 5344              		
 5345              	
 5346              		
 5347              		.equ jiaozhun_3.33mr_r,          0x800f000
 5348              		.equ jiaozhun_3.33mr_i,          0x800f004
 5349              		.equ jiaozhun_33.3mr_r,          0x800f008
 5350              		.equ jiaozhun_33.3mr_i,          0x800f00c
 5351              		.equ jiaozhun_333mr_r,           0x800f010
 5352              		.equ jiaozhun_333mr_i,           0x800f014
 5353              		.equ jiaozhun_3.33r_r,           0x800f018
 5354              		.equ jiaozhun_3.33r_i,           0x800f01c
 5355              		.equ jiaozhun_33.3r_r,           0x800f020
 5356              		.equ jiaozhun_33.3r_i,           0x800f024
 5357              		.equ jiaozhun_333r_r,            0x800f028
 5358              		.equ jiaozhun_333r_i,            0x800f02c
 5359              		.equ jiaozhun_3333r_r,           0x800f030
 5360              		.equ jiaozhun_3333r_i,           0x800f034
 5361              		
 5362              	
 5363              		
 5364              		.equ STACHINIT,         	0x20004000      @堆栈顶
 5365              		.equ asciibiao,			0x20000000	@ASCII表
 5366              		.equ xianshi_moshi,		0x20000044
 5367              		.equ shezhi_pinlv,		0x20000048
 5368              		.equ pinlv,			0x2000004c
 5369              		.equ zidong_dangwei_kaiguan,	0x20000050
 5370              		.equ khz1_3.33mr_duanlu_r,	0x20000054
 5371              		.equ khz1_33.3mr_duanlu_r,	0x20000058
 5372              		.equ khz1_333mr_duanlu_r,	0x2000005c
 5373              		.equ khz1_3.33r_duanlu_r,	0x20000060
 5374              		.equ khz1_33.3r_duanlu_r,	0x20000064
 5375              		.equ khz1_333r_duanlu_r,	0x20000068
 5376              		.equ khz1_3333r_duanlu_r,	0x2000006c
 5377              		.equ khz1_3.33mr_duanlu_i,      0x20000070
 5378              		.equ khz1_33.3mr_duanlu_i,      0x20000074
ARM GAS  1.s 			page 96


 5379              		.equ khz1_333mr_duanlu_i,       0x20000078
 5380              		.equ khz1_3.33r_duanlu_i,       0x2000007c
 5381              		.equ khz1_33.3r_duanlu_i,       0x20000080
 5382              		.equ khz1_333r_duanlu_i,        0x20000084
 5383              		.equ khz1_3333r_duanlu_i,       0x20000088
 5384              	
 5385              		
 5386              		@@不保存
 5387              		.equ jiaozhun_moshi,		0x20000108
 5388              		.equ jiaozhun3.33mr_r,		0x2000010c
 5389              		.equ jiaozhun3.33mr_i,		0x20000110
 5390              		.equ jiaozhun33.3mr_r,		0x20000114
 5391              		.equ jiaozhun33.3mr_i,		0x20000118
 5392              		.equ jiaozhun333mr_r,		0x2000011c
 5393              		.equ jiaozhun333mr_i,		0x20000120
 5394              		.equ jiaozhun3.33r_r,		0x20000124
 5395              		.equ jiaozhun3.33r_i,		0x20000128
 5396              		.equ jiaozhun33.3r_r,		0x2000012c
 5397              		.equ jiaozhun33.3r_i,		0x20000130
 5398              		.equ jiaozhun333r_r,		0x20000134
 5399              		.equ jiaozhun333r_i,		0x20000138
 5400              		.equ jiaozhun3333r_r,		0x2000013c
 5401              		.equ jiaozhun3333r_i,		0x20000140		
 5402              		
 5403              		.equ jiaozhun_r,		0x20000144
 5404              		.equ jiaozhun_i,		0x20000148
 5405              		.equ dangwei_jia_yanshi,	0x2000014c
 5406              		.equ adc_jiance,		0x20000150
 5407              		.equ kuaisu_dangwei_fazhi,	0x20000154
 5408              		.equ kuaisu_dangwei_yanshi,	0x20000158
 5409              		.equ mansu_dangwei_yanshi,	0x2000015c
 5410              		.equ qingling_z_r,		0x20000160
 5411              		.equ qingling_z_i,		0x20000164
 5412              		.equ dft_chongfu_jishu,		0x20000168
 5413              		.equ cos_sin_shuliang,		0x2000016c
 5414              		.equ cos_sin_jishu,		0x20000170
 5415              		.equ guanji_yanshi,		0x20000174	@关机延时
 5416              		.equ mansu_xianshi,		0x20000178
 5417              		.equ z_fudu_man,		0x2000017c
 5418              		.equ mansu_kaiguan,		0x20000180
 5419              		.equ mansu_yanshi,		0x20000184
 5420              		.equ shangci_dangwei,		0x20000188
 5421              		.equ ls,			0x2000018c
 5422              		.equ cs,			0x20000190
 5423              		.equ xs_cs_ls,			0x20000194
 5424              		.equ anjian_hao,		0x20000198
 5425              		.equ man_z_fudu,		0x2000019c
 5426              		.equ liangcheng,		0x200001a0
 5427              		.equ z_fudu,			0x200001a4
 5428              		.equ xiabi_rr,			0x200001a8
 5429              		.equ xiabi_ii,			0x200001ac
 5430              		.equ shangbi_rr,		0x200001b0
 5431              		.equ shangbi_ii,		0x200001b4
 5432              		.equ z_jiao_du,			0x200001b8
 5433              		.equ z_r,			0x200001bc
 5434              		.equ z_i,			0x200001c0
 5435              		.equ shangxiabi_qiehuan,	0x200001c4
ARM GAS  1.s 			page 97


 5436              		.equ lvbo_youyi,		0x200001d8
 5437              		.equ lvbo_changdu,		0x200001dc
 5438              		.equ dft_jisuan_yanshi,		0x200001e0
 5439              		.equ xiabi_r,			0x200001e4
 5440              		.equ xiabi_i,			0x200001e8
 5441              		.equ shangbi_r,			0x200001ec
 5442              		.equ shangbi_i,			0x200001f0
 5443              		.equ cos_sin,			0x200001f4	@cos_sin_表
 5444              		.equ dft_shuliang,		0x200001f8	@dft数量
 5445              		.equ sp_zhizhen,		0x200001fc	@堆栈指针
 5446              		.equ dianyabiao,		0x20000200	@电压表
 5447              		.equ lvboqizhizhen,		0x20002150
 5448              		.equ lvboqihuanchong,		0x20002158
 5449              		.equ lvboqizhizhen1,		0x20002850
 5450              		.equ lvboqihuanchong1,		0x20002858
 5451              		.equ lvboqizhizhen2,		0x20002f50
 5452              		.equ lvboqihuanchong2,		0x20002f58
 5453              		.equ lvboqizhizhen3,		0x20003650
 5454              		.equ lvboqihuanchong3,		0x20003658
 5455              		.equ lvboqizhizhen4,		0x20003ca0
 5456              		.equ lvboqihuanchong4,		0x20003ca8
 5457              		@biao dwb
 5458              	flash_dianzu_biao:
 5459 0000 00F00008 		.word jiaozhun_3.33mr_r
 5460 0004 08F00008 		.word jiaozhun_33.3mr_r
 5461 0008 10F00008 		.word jiaozhun_333mr_r
 5462 000c 18F00008 		.word jiaozhun_3.33r_r
 5463 0010 20F00008 		.word jiaozhun_33.3r_r
 5464 0014 28F00008 		.word jiaozhun_333r_r
 5465 0018 30F00008 		.word jiaozhun_3333r_r	
 5466              	flash_diankang_biao:
 5467 001c 04F00008 		.word jiaozhun_3.33mr_i
 5468 0020 0CF00008 		.word jiaozhun_33.3mr_i
 5469 0024 14F00008 		.word jiaozhun_333mr_i
 5470 0028 1CF00008 		.word jiaozhun_3.33r_i
 5471 002c 24F00008 		.word jiaozhun_33.3r_i
 5472 0030 2CF00008 		.word jiaozhun_333r_i
 5473 0034 34F00008 		.word jiaozhun_3333r_i
 5474              	ram_dianzu_biao:
 5475 0038 0C010020 		.word jiaozhun3.33mr_r
 5476 003c 14010020 		.word jiaozhun33.3mr_r
 5477 0040 1C010020 		.word jiaozhun333mr_r
 5478 0044 24010020 		.word jiaozhun3.33r_r
 5479 0048 2C010020 		.word jiaozhun33.3r_r
 5480 004c 34010020 		.word jiaozhun333r_r
 5481 0050 3C010020 		.word jiaozhun3333r_r
 5482              	
 5483              	
 5484              	ram_diankang_biao:
 5485 0054 10010020 		.word jiaozhun3.33mr_i
 5486 0058 18010020 		.word jiaozhun33.3mr_i
 5487 005c 20010020 		.word jiaozhun333mr_i
 5488 0060 28010020 		.word jiaozhun3.33r_i
 5489 0064 30010020 		.word jiaozhun33.3r_i
 5490 0068 38010020 		.word jiaozhun333r_i
 5491 006c 40010020 		.word jiaozhun3333r_i
 5492              		
ARM GAS  1.s 			page 98


 5493              		
 5494              	an_jian_biao:
 5495 0070 BB020000 		.word an_jian		+1
 5496 0074 C5020000 		.word an_jian1		+1
 5497 0078 13030000 		.word an_jian2	 	+1
 5498 007c 19030000 		.word an_jian3		+1
 5499 0080 21030000 		.word an_jian4		+1
 5500 0084 29030000 	        .word an_jian5          +1
 5501 0088 63040000 		.word an_jian6          +1
 5502 008c AD060000 		.word an_jian7          +1
 5503 0090 B5060000 		.word an_jian8          +1
 5504 0094 F1060000 		.word an_jian9          +1
 5505 0098 F9060000 		.word an_jian10         +1
 5506 009c 01070000 		.word an_jian11          +1
 5507 00a0 09070000 		.word an_jian12          +1
 5508 00a4 2B070000 		.word an_jian13          +1
 5509 00a8 33070000 		.word an_jian14          +1
 5510 00ac 3B070000 		.word an_jian15          +1
 5511              	jiaozhun_liangcheng_biao:
 5512 00b0 00000101 		.byte 0,0,1,1,2,2,3,3,4,4,5,5,6,6
 5512      02020303 
 5512      04040505 
 5512      0606
 5513              	khz1_duanlu_qingling_r:
 5514 00be 54000020 		.word khz1_3.33mr_duanlu_r
 5515 00c2 58000020 		.word khz1_33.3mr_duanlu_r
 5516 00c6 5C000020 		.word khz1_333mr_duanlu_r
 5517 00ca 60000020 		.word khz1_3.33r_duanlu_r
 5518 00ce 64000020 		.word khz1_33.3r_duanlu_r
 5519 00d2 68000020 		.word khz1_333r_duanlu_r
 5520 00d6 6C000020 		.word khz1_3333r_duanlu_r
 5521              	khz1_duanlu_qingling_i:
 5522 00da 70000020 		.word khz1_3.33mr_duanlu_i
 5523 00de 74000020 		.word khz1_33.3mr_duanlu_i
 5524 00e2 78000020 		.word khz1_333mr_duanlu_i
 5525 00e6 7C000020 		.word khz1_3.33r_duanlu_i
 5526 00ea 80000020 		.word khz1_33.3r_duanlu_i
 5527 00ee 84000020 		.word khz1_333r_duanlu_i
 5528 00f2 88000020 		.word khz1_3333r_duanlu_i
 5529 00f6 00000000 		.align 4
 5529      00000000 
 5529      0000
 5530              	pinlv_biao:
 5531 0100 D50A0000 		.word __pinlv_1khz			+1
 5532 0104 810C0000 		.word __pinlv_10khz			+1
 5533 0108 550D0000 		.word __pinlv_100khz			+1
 5534 010c AD0B0000 		.word __pinlv_1khz_man			+1			
 5535              	pinlv_xianshi_biao:
 5536 0110 88040000 		.word pinlv_1khz
 5537 0114 8E040000 		.word pinlv_10khz
 5538 0118 94040000 		.word pinlv_100khz
 5539 011c 9A040000 		.word pinlv_1khz_man
 5540              	zukang_dianzu_biao:
 5541 0120 E8800000 		.int 33000,33000,33000,33000,33000,33000,33000
 5541      E8800000 
 5541      E8800000 
 5541      E8800000 
ARM GAS  1.s 			page 99


 5541      E8800000 
 5542              	zukang_diankang_biao:
 5543 013c 00000000 		.int 0,0,0,0,0,0,0
 5543      00000000 
 5543      00000000 
 5543      00000000 
 5543      00000000 
 5544 0158 00000000 		.align 4
 5544      00000000 
 5545              	rs_danwei_biao:		@31=毫欧，91=欧，81=千欧，41=兆欧
 5546 0160 1F1F1F5B 		.byte 31,31,31,91,91,91,91
 5546      5B5B5B
 5547              	zhucanshu_i_danwei_biao:
 5548 0167 73010000 		.word xs_danwei
 5549 016b AD010000 		.word cs_danwei
 5550 016f 31020000 		.word ls_danwei
 5551              	xs_danwei:
 5552 0173 83010000 		.word xs_danwei_1khz
 5553 0177 83010000 		.word xs_danwei_10khz
 5554 017b 83010000 		.word xs_danwei_100khz
 5555 017f 83010000 		.word xs_danwei_1khz
 5556              	xs_danwei_1khz:
 5557              	xs_danwei_10khz:
 5558              	xs_danwei_100khz:
 5559 0183 1F1F1F5B 		.byte 31,31,31,91,91,91,91
 5559      5B5B5B
 5560              	zhucanshu_i_xiaoshudian:
 5561 018a 96010000 		.word xs_xiaoshudian
 5562 018e D2010000 		.word cs_xiaoshudian
 5563 0192 56020000 		.word ls_xiaoshudian
 5564              	
 5565              	xs_xiaoshudian:
 5566 0196 A6010000 		.word xs_xiaoshudian_1khz
 5567 019a A6010000 		.word xs_xiaoshudian_10khz
 5568 019e A6010000 		.word xs_xiaoshudian_100khz
 5569 01a2 A6010000 		.word xs_xiaoshudian_1khz
 5570              		@rsd
 5571              	xs_xiaoshudian_1khz:
 5572              	xs_xiaoshudian_10khz:
 5573              	xs_xiaoshudian_100khz:
 5574 01a6 01020301 		.byte 1,2,3,1,2,3,4
 5574      020304
 5575              	
 5576              	
 5577              	cs_danwei:
 5578              		@92=F,42=MF,02=UF,52=nf,62=pf
 5579 01ad BD010000 		.word cs_danwei_1khz
 5580 01b1 C4010000 		.word cs_danwei_10khz
 5581 01b5 CB010000 		.word cs_danwei_100khz
 5582 01b9 BD010000 		.word cs_danwei_1khz
 5583              	cs_danwei_1khz:
 5584 01bd 2A020202 		.byte 42, 02, 02, 02, 02, 02, 02
 5584      020202
 5585              	cs_danwei_10khz:
 5586 01c4 2A020202 		.byte 42, 02, 02, 02, 02, 52, 52
 5586      023434
 5587              	cs_danwei_100khz:				@csdw
ARM GAS  1.s 			page 100


 5588 01cb 02023434 		.byte 02,02,52,52,52,52,52
 5588      343434
 5589              	cs_xiaoshudian:
 5590 01d2 E2010000 		.word cs_xiaoshudian_1khz
 5591 01d6 E9010000 		.word cs_xiaoshudian_10khz
 5592 01da F0010000 		.word cs_xiaoshudian_100khz
 5593 01de E2010000 		.word cs_xiaoshudian_1khz
 5594              	cs_xiaoshudian_1khz:
 5595 01e2 03030202 		.byte 3, 3, 2, 2, 2, 1, 1
 5595      020101
 5596              	cs_xiaoshudian_10khz:
 5597 01e9 02020101 		.byte 2, 2, 1, 1, 1, 3, 3
 5597      010303
 5598              	cs_xiaoshudian_100khz:		                  @csxsd
 5599 01f0 02010303 		.byte 2,1,3,3,2,2,2
 5599      020202
 5600              	
 5601              	cs_weishu:
 5602 01f7 07020000 		.word cs_weishu_1khz
 5603 01fb 15020000 		.word cs_weishu_10khz
 5604 01ff 23020000 		.word cs_weishu_100khz
 5605 0203 07020000 		.word cs_weishu_1khz
 5606              	cs_weishu_1khz:
 5607 0207 E8030A00 		.short 1000, 10,  1, 1, 10, 1,  1
 5607      01000100 
 5607      0A000100 
 5607      0100
 5608              	cs_weishu_10khz:
 5609 0215 E8030A00 		.short 1000, 10, 1, 1, 10, 1, 1
 5609      01000100 
 5609      0A000100 
 5609      0100
 5610              	cs_weishu_100khz:		                               @csws
 5611 0223 0A000A00 		.short 10,10,1,1,10,1,1
 5611      01000100 
 5611      0A000100 
 5611      0100
 5612              	
 5613              	ls_danwei:
 5614              		@57=nH,07=uH,37=mH,97=H,87=KH
 5615 0231 41020000 		.word ls_danwei_1khz
 5616 0235 48020000 		.word ls_danwei_10khz
 5617 0239 4F020000 		.word ls_danwei_100khz
 5618 023d 41020000 		.word ls_danwei_1khz
 5619              	ls_danwei_1khz:
 5620 0241 07070725 		.byte 07,07,07,37,37,37,37
 5620      252525
 5621              	ls_danwei_10khz:
 5622 0248 07070707 		.byte 07,07,07,07,07,07,37
 5622      070725
 5623              	ls_danwei_100khz:					@lsdw
 5624 024f 39070707 		.byte 57,07,07,07,07,07,07
 5624      070707
 5625              	
 5626              	ls_xiaoshudian:
 5627 0256 66020000 		.word ls_xiaoshudian_1khz
 5628 025a 6D020000 		.word ls_xiaoshudian_10khz
ARM GAS  1.s 			page 101


 5629 025e 74020000 		.word ls_xiaoshudian_100khz
 5630 0262 66020000 		.word ls_xiaoshudian_1khz
 5631              	ls_xiaoshudian_1khz:
 5632 0266 02030301 		.byte 2,3,3,1,1,1,2
 5632      010102
 5633              	ls_xiaoshudian_10khz:
 5634 026d 01020203 		.byte 1,2,2,3,3,3,1
 5634      030301
 5635              	ls_xiaoshudian_100khz:		                  @lsxsd
 5636 0274 03010102 		.byte 3,1,1,2,2,2,3
 5636      020203
 5637              	
 5638              	ls_weishu:
 5639 027b 8B020000 		.word ls_weishu_1khz
 5640 027f A7020000 		.word ls_weishu_10khz
 5641 0283 C3020000 		.word ls_weishu_100khz
 5642 0287 8B020000 		.word ls_weishu_1khz
 5643              	ls_weishu_1khz:
 5644 028b 10270000 		.int 10000,10000,10000,10000,10000,10000,100000
 5644      10270000 
 5644      10270000 
 5644      10270000 
 5644      10270000 
 5645              	ls_weishu_10khz:
 5646 02a7 10270000 		.int 10000,10000,10000,10000,10000,10000,100000
 5646      10270000 
 5646      10270000 
 5646      10270000 
 5646      10270000 
 5647              	ls_weishu_100khz:				@lsws
 5648 02c3 10270000 		.int 10000,10000,10000,10000,10000,10000,100000
 5648      10270000 
 5648      10270000 
 5648      10270000 
 5648      10270000 
 5649              	
 5650              	
 5651              	
 5652              	zukang_xiaoshudian:
 5653 02df EF020000 		.word zukang_xiaoshudian_1khz
 5654 02e3 EF020000 		.word zukang_xiaoshudian_10khz
 5655 02e7 EF020000 		.word zukang_xiaoshudian_100khz
 5656 02eb EF020000 		.word zukang_xiaoshudian_1khz
 5657              	zukang_xiaoshudian_1khz:
 5658              	zukang_xiaoshudian_10khz:
 5659              	zukang_xiaoshudian_100khz:			@zkd
 5660 02ef 01020301 		.byte 1,2,3,1,2,3,4
 5660      020304
 5661              	
 5662              	
 5663              	
 5664              	
 5665              		
 5666 02f6 00000000 		.align 4
 5666      00000000 
 5666      0000
 5667              	dangwei_ascii:
ARM GAS  1.s 			page 102


 5668 0300 1C030000 		.word haoou3.33
 5669 0304 23030000 		.word haoou33.3
 5670 0308 29030000 		.word haoou333
 5671 030c 2F030000 		.word ou3.33
 5672 0310 35030000 		.word ou33.3
 5673 0314 3B030000 		.word ou333
 5674 0318 41030000 		.word ou3333
 5675              	
 5676              	haoou3.33:
 5677 031c 332E3333 		.ascii "3.33mR "
 5677      6D5220
 5678              	haoou33.3:
 5679 0323 33332E33 		.ascii "33.3mR"
 5679      6D52
 5680              	haoou333:
 5681 0329 33333320 		.ascii "333 mR"
 5681      6D52
 5682              	ou3.33:
 5683 032f 332E3333 		.ascii "3.33 R"
 5683      2052
 5684              	ou33.3:
 5685 0335 33332E33 		.ascii "33.3 R"
 5685      2052
 5686              	ou333:
 5687 033b 20333333 		.ascii " 333 R"
 5687      2052
 5688              	ou3333:
 5689 0341 33333333 		.ascii "3333 R"
 5689      2052
 5690              	zidong:	
 5691 0347 7A69646F 		.ascii "zidong"
 5691      6E67
 5692              	duan_lu:
 5693 034d 6475616E 		.ascii "duan_lu"
 5693      5F6C75
 5694 0354 00000000 		.align 4
 5694      00000000 
 5694      00000000 
 5695              	jiaozhun_biao:
 5696 0360 98030000 		.word __jiaozhun3.33mr_r
 5697 0364 A8030000 		.word __jiaozhun3.33mr_i
 5698 0368 B8030000 		.word __jiaozhun33.3mr_r
 5699 036c C8030000 		.word __jiaozhun33.3mr_i
 5700 0370 D8030000 		.word __jiaozhun333mr_r
 5701 0374 E8030000 		.word __jiaozhun333mr_i
 5702 0378 F8030000 		.word __jiaozhun3.33r_r
 5703 037c 08040000 		.word __jiaozhun3.33r_i
 5704 0380 18040000 		.word __jiaozhun33.3r_r
 5705 0384 28040000 		.word __jiaozhun33.3r_i
 5706 0388 38040000 		.word __jiaozhun333r_r
 5707 038c 48040000 		.word __jiaozhun333r_i
 5708 0390 58040000 		.word __jiaozhun3333r_r
 5709 0394 68040000 		.word __jiaozhun3333r_i
 5710              		
 5711              	__jiaozhun3.33mr_r:
 5712 0398 6A69616F 		.ascii "jiaozhun3.33mr_r"
 5712      7A68756E 
ARM GAS  1.s 			page 103


 5712      332E3333 
 5712      6D725F72 
 5713              	__jiaozhun3.33mr_i:
 5714 03a8 6A69616F 		.ascii "jiaozhun3.33mr_i"
 5714      7A68756E 
 5714      332E3333 
 5714      6D725F69 
 5715              	__jiaozhun33.3mr_r:
 5716 03b8 6A69616F 		.ascii "jiaozhun33.3mr_r"
 5716      7A68756E 
 5716      33332E33 
 5716      6D725F72 
 5717              	__jiaozhun33.3mr_i:
 5718 03c8 6A69616F 		.ascii "jiaozhun33.3mr_i"
 5718      7A68756E 
 5718      33332E33 
 5718      6D725F69 
 5719              	__jiaozhun333mr_r:
 5720 03d8 6A69616F 		.ascii "jiaozhun 333mr_r"
 5720      7A68756E 
 5720      20333333 
 5720      6D725F72 
 5721              	__jiaozhun333mr_i:
 5722 03e8 6A69616F 		.ascii "jiaozhun 333mr_i"
 5722      7A68756E 
 5722      20333333 
 5722      6D725F69 
 5723              	__jiaozhun3.33r_r:
 5724 03f8 6A69616F 		.ascii "jiaozhun 3.33r_r"
 5724      7A68756E 
 5724      20332E33 
 5724      33725F72 
 5725              	__jiaozhun3.33r_i:
 5726 0408 6A69616F 		.ascii "jiaozhun 3.33r_i"
 5726      7A68756E 
 5726      20332E33 
 5726      33725F69 
 5727              	__jiaozhun33.3r_r:
 5728 0418 6A69616F 		.ascii "jiaozhun 33.3r_r"
 5728      7A68756E 
 5728      2033332E 
 5728      33725F72 
 5729              	__jiaozhun33.3r_i:
 5730 0428 6A69616F 		.ascii "jiaozhun 33.3r_i"
 5730      7A68756E 
 5730      2033332E 
 5730      33725F69 
 5731              	__jiaozhun333r_r:
 5732 0438 6A69616F 		.ascii "jiaozhun  333r_r"
 5732      7A68756E 
 5732      20203333 
 5732      33725F72 
 5733              	__jiaozhun333r_i:
 5734 0448 6A69616F 		.ascii "jiaozhun  333r_i"
 5734      7A68756E 
 5734      20203333 
 5734      33725F69 
ARM GAS  1.s 			page 104


 5735              	__jiaozhun3333r_r:
 5736 0458 6A69616F 		.ascii "jiaozhun 3333r_r"
 5736      7A68756E 
 5736      20333333 
 5736      33725F72 
 5737              	__jiaozhun3333r_i:
 5738 0468 6A69616F 		.ascii "jiaozhun 3333r_i"
 5738      7A68756E 
 5738      20333333 
 5738      33725F69 
 5739 0478 00000000 		.align 4
 5739      00000000 
 5740              	xs_:
 5741 0480 5873     		.ascii "Xs"
 5742              	rs_:
 5743 0482 5273     	.ascii "Rs"
 5744              	cs_:
 5745 0484 4373     		.ascii "Cs"
 5746              	ls_:
 5747 0486 4C73     		.ascii "Ls"
 5748              	pinlv_1khz:
 5749 0488 2020316B 		.ascii "  1khz"
 5749      687A
 5750              	pinlv_10khz:
 5751 048e 2031306B 		.ascii " 10khz"
 5751      687A
 5752              	pinlv_100khz:
 5753 0494 3130306B 		.ascii "100khz"
 5753      687A
 5754              	pinlv_1khz_man:
 5755 049a 316B687A 		.ascii "1khz_m"
 5755      5F6D
 5756              	jiaozhun_wan_cheng:
 5757 04a0 6A69616F 		.ascii "jiaozhun_wan_cheng"
 5757      7A68756E 
 5757      5F77616E 
 5757      5F636865 
 5757      6E67
 5758              	yjmwxwx:
 5759 04b2 796A6D77 		.ascii "yjmwxwx-20230214"
 5759      7877782D 
 5759      32303233 
 5759      30323134 
 5760              	jia:
 5761 04c2 2B       		.ascii	"+"
 5762              	kong:
 5763 04c3 20202020 		.ascii "                      "
 5763      20202020 
 5763      20202020 
 5763      20202020 
 5763      20202020 
 5764              	fu:
 5765 04d9 2D       		.ascii "-"
 5766 04da 00000000 		.align 4
 5766      0000
 5767              	shangbi_liangcheng:					@lcb
 5768 04e0 70B09080 		.byte 0x70,0xb0,0x90,0x80,0x00,0x00,0x00
ARM GAS  1.s 			page 105


 5768      000000
 5769 04e7 00000000 		.align 4
 5769      00000000 
 5769      00
 5770              	xiabi_liangcheng:
 5771 04f0 00808080 		.byte 0x00,0x80,0x80,0x80,0x10,0x30,0x70
 5771      103070
 5772 04f7 00000000 		.align 4
 5772      00000000 
 5772      00
 5773              	zhengxian_100hz:
 5774 0500 80028402 		.short 640,644,648,652,656,660,664,668,672,676,680,684,688,692,696,700,704,708,712,716,720,724,728
 5774      88028C02 
 5774      90029402 
 5774      98029C02 
 5774      A002A402 
 5775              		.align 4
 5776              	zhengxian_1khz:
 5777 0cd0 A000A200 		.short 160,162,165,167,170,172,175,177,179,182,184,187,189,192,194,197,199,202,204,206,209,211,214
 5777      A500A700 
 5777      AA00AC00 
 5777      AF00B100 
 5777      B300B600 
 5778              		.align 4
 5779              	zhengxian_10khz:
 5780 0ff0 4043474B 		.byte 64,67,71,75,79,83,87,91,94,98,101,104,107,110,112,115,117,119,121,123,124,125,126,126,127,12
 5780      4F53575B 
 5780      5E626568 
 5780      6B6E7073 
 5780      7577797B 
 5781              	
 5782 1054 20202122 		.byte 32,32,33,34,35,36,37,38,39,40,41,42,43,44,45,46,47,48,48,49,50,51,52,52,53,54,54,55,56,56,57
 5782      23242526 
 5782      2728292A 
 5782      2B2C2D2E 
 5782      2F303031 
 5783 111c 00000000 		.align 4
 5784              	zhengxian_100khz:
 5785 1120 10121417 		.byte 16,18,20,23,25,26,28,29,30,31,31,31,30,29,28,26,25,23,20,18,16,13,11,8,6,5,3,2,1,0,0,0,1,2,3
 5785      191A1C1D 
 5785      1E1F1F1F 
 5785      1E1D1C1A 
 5785      19171412 
 5786              	
 5787              	
 5788              	cos_sin_100khz:
 5789 1148 00800000 		.int 0x8000,0x0000,0x7E6C,0xFFFFEBFA,0x79BC,0xFFFFD873,0x720C,0xFFFFC5E4,0x678D,0xFFFFB4C4,0x5A82,
 5789      00000000 
 5789      6C7E0000 
 5789      FAEBFFFF 
 5789      BC790000 
 5790 1288 00800000 		.int 0x8000,0x0000,0x7E6C,0xFFFFEBFA,0x79BC,0xFFFFD873,0x720C,0xFFFFC5E4,0x678D,0xFFFFB4C4,0x5A82,
 5790      00000000 
 5790      6C7E0000 
 5790      FAEBFFFF 
 5790      BC790000 
 5791 13c8 00800000 		.int 0x8000,0x0000,0x7E6C,0xFFFFEBFA,0x79BC,0xFFFFD873,0x720C,0xFFFFC5E4,0x678D,0xFFFFB4C4,0x5A82,
ARM GAS  1.s 			page 106


 5791      00000000 
 5791      6C7E0000 
 5791      FAEBFFFF 
 5791      BC790000 
 5792 1508 00800000 		.int 0x8000,0x0000,0x7E6C,0xFFFFEBFA,0x79BC,0xFFFFD873,0x720C,0xFFFFC5E4,0x678D,0xFFFFB4C4,0x5A82,
 5792      00000000 
 5792      6C7E0000 
 5792      FAEBFFFF 
 5792      BC790000 
 5793 1648 00800000 		.int 0x8000,0x0000,0x7E6C,0xFFFFEBFA,0x79BC,0xFFFFD873,0x720C,0xFFFFC5E4,0x678D,0xFFFFB4C4,0x5A82,
 5793      00000000 
 5793      6C7E0000 
 5793      FAEBFFFF 
 5793      BC790000 
 5794              		
 5795              	cos_sin_10khz:
 5796 1788 00800000 		.int 0x8000,0x0000,0x7FFB,0xFFFFFDFE,0x7FEF,0xFFFFFBFB,0x7FDB,0xFFFFF9F9,0x7FBF,0xFFFFF7F7,0x7F9A,
 5796      00000000 
 5796      FB7F0000 
 5796      FEFDFFFF 
 5796      EF7F0000 
 5797 2408 00000000 		.align 4
 5797      00000000 
 5798              	cos_sin_100hz:
 5799 2410 00800000 		.int 0x8000,0x0000,0x7FFF,0xFFFFFFCD,0x7FFF,0xFFFFFF9A,0x7FFF,0xFFFFFF66,0x7FFF,0xFFFFFF33,0x7FFE,
 5799      00000000 
 5799      FF7F0000 
 5799      CDFFFFFF 
 5799      FF7F0000 
 5800              		
 5801              		.align 4
 5802              	atan_biao:		@角度
 5803 a110 00801600 		.int 0x00168000,0x000D4853,0x000704A3,0x00039000,0x0001C9C5,0x0000E51B,0x00007295,0x0000394B,0x000
 5803      53480D00 
 5803      A3040700 
 5803      00900300 
 5803      C5C90100 
 5804              	da_a_labo_hack: @16*24
 5805 a164 00000080 		.byte 0x00, 0x00, 0x00, 0x80, 0xFF, 0x01, 0xF0, 0xFF, 0x0F, 0xF8, 0xFF, 0x1F, 0x7C, 0x00, 0x3E, 0x
 5805      FF01F0FF 
 5805      0FF8FF1F 
 5805      7C003E1E 
 5805      00780E00 
 5806 a194 00000000 		.byte 0x00, 0x00, 0x00, 0x00, 0x00, 0x00, 0x00, 0x00, 0x00, 0x70, 0x00, 0x70, 0x70, 0x00, 0x70, 0x
 5806      00000000 
 5806      00700070 
 5806      70007070 
 5806      00707800 
 5807 a1c4 00000000 		.byte 0x00, 0x00, 0x00, 0x00, 0x00, 0x78, 0x1C, 0x00, 0x7C, 0x1C, 0x00, 0x7E, 0x0E, 0x00, 0x77, 0x
 5807      00781C00 
 5807      7C1C007E 
 5807      0E00770E 
 5807      00770E80 
 5808 a1f4 00000000 		.byte 0x00, 0x00, 0x00, 0x00, 0x00, 0x38, 0x1C, 0x00, 0x38, 0x1C, 0x00, 0x70, 0x0E, 0x00, 0x70, 0x
 5808      00381C00 
 5808      381C0070 
 5808      0E00700E 
ARM GAS  1.s 			page 107


 5808      00700E1C 
 5809 a224 00E00100 		.byte 0x00, 0xE0, 0x01, 0x00, 0xF0, 0x01, 0x00, 0xFC, 0x01, 0x00, 0xFE, 0x01, 0x00, 0xDF, 0x01, 0x
 5809      F00100FC 
 5809      0100FE01 
 5809      00DF0180 
 5809      CF01E0C3 
 5810 a254 00000000 		.byte 0x00, 0x00, 0x00, 0x00, 0x00, 0x00, 0x00, 0x00, 0x38, 0xFE, 0x1F, 0x38, 0xFE, 0x0F, 0x70, 0x
 5810      00000000 
 5810      38FE1F38 
 5810      FE0F70FE 
 5810      0F700E0E 
 5811 a284 00000000 		.byte 0x00, 0x00, 0x00, 0x00, 0xFE, 0x03, 0xC0, 0xFF, 0x0F, 0xF0, 0xFF, 0x1F, 0xF8, 0x1C, 0x3E, 0x
 5811      FE03C0FF 
 5811      0FF0FF1F 
 5811      F81C3E3C 
 5811      0C781C0E 
 5812 a2b4 0000000E 		.byte 0x00, 0x00, 0x00, 0x0E, 0x00, 0x00, 0x0E, 0x00, 0x00, 0x0E, 0x00, 0x40, 0x0E, 0x00, 0x70, 0x
 5812      00000E00 
 5812      000E0040 
 5812      0E00700E 
 5812      007C0E00 
 5813 a2e4 00000000 		.byte 0x00, 0x00, 0x00, 0x00, 0xC0, 0x07, 0xF0, 0xE1, 0x1F, 0xF8, 0xF3, 0x3F, 0xFC, 0x3F, 0x3C, 0x
 5813      C007F0E1 
 5813      1FF8F33F 
 5813      FC3F3C1E 
 5813      1F780E0E 
 5814 a314 000000E0 		.byte 0x00, 0x00, 0x00, 0xE0, 0x07, 0x00, 0xF0, 0x1F, 0x00, 0xF8, 0x3F, 0x78, 0x3C, 0x3C, 0x70, 0x
 5814      0700F01F 
 5814      00F83F78 
 5814      3C3C701E 
 5814      78700E70 
 5815 a344 00000000 		.align 4
 5815      00000000 
 5815      00000000 
 5816              	ascii_biao:	@6*8
 5817 a350 00000000 		.byte 0x00, 0x00, 0x00, 0x00, 0x00, 0x00 @
 5817      0000
 5818 a356 0000004F 		.byte 0x00, 0x00, 0x00, 0x4F, 0x00, 0x00 @ !
 5818      0000
 5819 a35c 00000700 		.byte 0x00, 0x00, 0x07, 0x00, 0x07, 0x00 @ "
 5819      0700
 5820 a362 00147F14 		.byte 0x00, 0x14, 0x7F, 0x14, 0x7F, 0x14 @ #
 5820      7F14
 5821 a368 00242A7F 		.byte 0x00, 0x24, 0x2A, 0x7F, 0x2A, 0x12 @ $
 5821      2A12
 5822 a36e 00231308 		.byte 0x00, 0x23, 0x13, 0x08, 0x64, 0x62 @ %
 5822      6462
 5823 a374 00364955 		.byte 0x00, 0x36, 0x49, 0x55, 0x22, 0x50 @ &
 5823      2250
 5824 a37a 00000503 		.byte 0x00, 0x00, 0x05, 0x03, 0x00, 0x00 @ '
 5824      0000
 5825 a380 00001C22 		.byte 0x00, 0x00, 0x1C, 0x22, 0x41, 0x00 @ (
 5825      4100
 5826 a386 00004122 		.byte 0x00, 0x00, 0x41, 0x22, 0x1C, 0x00 @ )
 5826      1C00
 5827 a38c 0014083E 		.byte 0x00, 0x14, 0x08, 0x3E, 0x08, 0x14 @ *
 5827      0814
ARM GAS  1.s 			page 108


 5828 a392 0008083E 		.byte 0x00, 0x08, 0x08, 0x3E, 0x08, 0x08 @ +
 5828      0808
 5829 a398 00005030 		.byte 0x00, 0x00, 0x50, 0x30, 0x00, 0x00 @ ,
 5829      0000
 5830 a39e 00080808 		.byte 0x00, 0x08, 0x08, 0x08, 0x08, 0x08 @ -
 5830      0808
 5831 a3a4 00006060 		.byte 0x00, 0x00, 0x60, 0x60, 0x00, 0x00 @ .
 5831      0000
 5832 a3aa 00201008 		.byte 0x00, 0x20, 0x10, 0x08, 0x04, 0x02 @ /
 5832      0402
 5833 a3b0 003E5149 		.byte 0x00, 0x3E, 0x51, 0x49, 0x45, 0x3E @ 0
 5833      453E
 5834 a3b6 0000427F 		.byte 0x00, 0x00, 0x42, 0x7F, 0x40, 0x00 @ 1
 5834      4000
 5835 a3bc 00426151 		.byte 0x00, 0x42, 0x61, 0x51, 0x49, 0x46 @ 2
 5835      4946
 5836 a3c2 00214145 		.byte 0x00, 0x21, 0x41, 0x45, 0x4B, 0x31 @ 3
 5836      4B31
 5837 a3c8 00181412 		.byte 0x00, 0x18, 0x14, 0x12, 0x7F, 0x10 @ 4
 5837      7F10
 5838 a3ce 00274545 		.byte 0x00, 0x27, 0x45, 0x45, 0x45, 0x39 @ 5
 5838      4539
 5839 a3d4 003C4A49 		.byte 0x00, 0x3C, 0x4A, 0x49, 0x49, 0x30 @ 6
 5839      4930
 5840 a3da 00010179 		.byte 0x00, 0x01, 0x01, 0x79, 0x05, 0x03 @ 7
 5840      0503
 5841 a3e0 00364949 		.byte 0x00, 0x36, 0x49, 0x49, 0x49, 0x36 @ 8
 5841      4936
 5842 a3e6 00064949 		.byte 0x00, 0x06, 0x49, 0x49, 0x29, 0x1E @ 9
 5842      291E
 5843 a3ec 00003636 		.byte 0x00, 0x00, 0x36, 0x36, 0x00, 0x00 @ :
 5843      0000
 5844 a3f2 00005636 		.byte 0x00, 0x00, 0x56, 0x36, 0x00, 0x00 @ ;
 5844      0000
 5845 a3f8 00081422 		.byte 0x00, 0x08, 0x14, 0x22, 0x41, 0x00 @ <
 5845      4100
 5846 a3fe 00141414 		.byte 0x00, 0x14, 0x14, 0x14, 0x14, 0x14 @ =
 5846      1414
 5847 a404 00004122 		.byte 0x00, 0x00, 0x41, 0x22, 0x14, 0x08 @ >
 5847      1408
 5848 a40a 02015109 		.byte 0x02, 0x01, 0x51, 0x09, 0x06, 0x00 @ ?
 5848      0600
 5849 a410 00324979 		.byte 0x00, 0x32, 0x49, 0x79, 0x41, 0x3E @ @
 5849      413E
 5850 a416 007E1111 		.byte 0x00, 0x7E, 0x11, 0x11, 0x11, 0x7E @ A
 5850      117E
 5851 a41c 00417F49 		.byte 0x00, 0x41, 0x7F, 0x49, 0x49, 0x36 @ B
 5851      4936
 5852 a422 003E4141 		.byte 0x00, 0x3E, 0x41, 0x41, 0x41, 0x22 @ C
 5852      4122
 5853 a428 00417F41 		.byte 0x00, 0x41, 0x7F, 0x41, 0x41, 0x3E @ D
 5853      413E
 5854 a42e 007F4949 		.byte 0x00, 0x7F, 0x49, 0x49, 0x49, 0x49 @ E
 5854      4949
 5855 a434 007F0909 		.byte 0x00, 0x7F, 0x09, 0x09, 0x09, 0x09 @ F
 5855      0909
 5856 a43a 003E4141 		.byte 0x00, 0x3E, 0x41, 0x41, 0x51, 0x72 @ G
ARM GAS  1.s 			page 109


 5856      5172
 5857 a440 007F0808 		.byte 0x00, 0x7F, 0x08, 0x08, 0x08, 0x7F @ H
 5857      087F
 5858 a446 0000417F 		.byte 0x00, 0x00, 0x41, 0x7F, 0x41, 0x00 @ I
 5858      4100
 5859 a44c 00204041 		.byte 0x00, 0x20, 0x40, 0x41, 0x3F, 0x01 @ J
 5859      3F01
 5860 a452 007F0814 		.byte 0x00, 0x7F, 0x08, 0x14, 0x22, 0x41 @ K
 5860      2241
 5861 a458 007F4040 		.byte 0x00, 0x7F, 0x40, 0x40, 0x40, 0x40 @ L
 5861      4040
 5862 a45e 007F020C 		.byte 0x00, 0x7F, 0x02, 0x0C, 0x02, 0x7F @ M
 5862      027F
 5863 a464 817F0608 		.byte 0x81, 0x7F, 0x06, 0x08, 0x30, 0x7F @ N
 5863      307F
 5864 a46a 003E4141 		.byte 0x00, 0x3E, 0x41, 0x41, 0x41, 0x3E @ O
 5864      413E
 5865 a470 007F0909 		.byte 0x00, 0x7F, 0x09, 0x09, 0x09, 0x06 @ P
 5865      0906
 5866 a476 003E4151 		.byte 0x00, 0x3E, 0x41, 0x51, 0x21, 0x5E @ Q
 5866      215E
 5867 a47c 007F0919 		.byte 0x00, 0x7F, 0x09, 0x19, 0x29, 0x46 @ R
 5867      2946
 5868 a482 00264949 		.byte 0x00, 0x26, 0x49, 0x49, 0x49, 0x32 @ S
 5868      4932
 5869 a488 0001017F 		.byte 0x00, 0x01, 0x01, 0x7F, 0x01, 0x01 @ T
 5869      0101
 5870 a48e 003F4040 		.byte 0x00, 0x3F, 0x40, 0x40, 0x40, 0x3F @ U
 5870      403F
 5871 a494 001F2040 		.byte 0x00, 0x1F, 0x20, 0x40, 0x20, 0x1F @ V
 5871      201F
 5872 a49a 007F2018 		.byte 0x00, 0x7F, 0x20, 0x18, 0x20, 0x7F @ W
 5872      207F
 5873 a4a0 00631408 		.byte 0x00, 0x63, 0x14, 0x08, 0x14, 0x63 @ X
 5873      1463
 5874 a4a6 00070870 		.byte 0x00, 0x07, 0x08, 0x70, 0x08, 0x07 @ Y
 5874      0807
 5875 a4ac 00615149 		.byte 0x00, 0x61, 0x51, 0x49, 0x45, 0x43 @ Z
 5875      4543
 5876 a4b2 00007F41 		.byte 0x00, 0x00, 0x7F, 0x41, 0x41, 0x00 @ [
 5876      4100
 5877 a4b8 00020408 		.byte 0x00, 0x02, 0x04, 0x08, 0x10, 0x20 @ BackSlash
 5877      1020
 5878 a4be 00004141 		.byte 0x00, 0x00, 0x41, 0x41, 0x7F, 0x00 @ ]
 5878      7F00
 5879 a4c4 00040201 		.byte 0x00, 0x04, 0x02, 0x01, 0x02, 0x04 @ ^
 5879      0204
 5880 a4ca 00404040 		.byte 0x00, 0x40, 0x40, 0x40, 0x40, 0x40 @ _
 5880      4040
 5881 a4d0 00010204 		.byte 0x00, 0x01, 0x02, 0x04, 0x00, 0x00 @ `
 5881      0000
 5882 a4d6 00205454 		.byte 0x00, 0x20, 0x54, 0x54, 0x54, 0x78 @ a
 5882      5478
 5883 a4dc 007F4844 		.byte 0x00, 0x7F, 0x48, 0x44, 0x44, 0x38 @ b
 5883      4438
 5884 a4e2 00384444 		.byte 0x00, 0x38, 0x44, 0x44, 0x44, 0x28 @ c
 5884      4428
ARM GAS  1.s 			page 110


 5885 a4e8 00384444 		.byte 0x00, 0x38, 0x44, 0x44, 0x48, 0x7F @ d
 5885      487F
 5886 a4ee 00385454 		.byte 0x00, 0x38, 0x54, 0x54, 0x54, 0x18 @ e
 5886      5418
 5887 a4f4 0000087E 		.byte 0x00, 0x00, 0x08, 0x7E, 0x09, 0x02 @ f
 5887      0902
 5888 a4fa 000C5252 		.byte 0x00, 0x0C, 0x52, 0x52, 0x4C, 0x3E @ g
 5888      4C3E
 5889 a500 007F0804 		.byte 0x00, 0x7F, 0x08, 0x04, 0x04, 0x78 @ h
 5889      0478
 5890 a506 0000447D 		.byte 0x00, 0x00, 0x44, 0x7D, 0x40, 0x00 @ i
 5890      4000
 5891 a50c 00204044 		.byte 0x00, 0x20, 0x40, 0x44, 0x3D, 0x00 @ j
 5891      3D00
 5892 a512 00007F10 		.byte 0x00, 0x00, 0x7F, 0x10, 0x28, 0x44 @ k
 5892      2844
 5893 a518 0000417F 		.byte 0x00, 0x00, 0x41, 0x7F, 0x40, 0x00 @ l
 5893      4000
 5894 a51e 00780478 		.byte 0x00, 0x78, 0x04, 0x78, 0x04, 0x78 @ m
 5894      0478
 5895 a524 007C0804 		.byte 0x00, 0x7C, 0x08, 0x04, 0x04, 0x78 @ n
 5895      0478
 5896 a52a 00387C7C 		.byte 0x00, 0x38, 0x7C, 0x7C, 0x7C, 0x38 @ o
 5896      7C38
 5897 a530 007E0C12 		.byte 0x00, 0x7E, 0x0C, 0x12, 0x12, 0x0C @ p
 5897      120C
 5898 a536 000C1212 		.byte 0x00, 0x0C, 0x12, 0x12, 0x0C, 0x7E @ q
 5898      0C7E
 5899 a53c 007C0804 		.byte 0x00, 0x7C, 0x08, 0x04, 0x04, 0x08 @ r
 5899      0408
 5900 a542 00585454 		.byte 0x00, 0x58, 0x54, 0x54, 0x54, 0x64 @ s
 5900      5464
 5901 a548 00043F44 		.byte 0x00, 0x04, 0x3F, 0x44, 0x40, 0x20 @ t
 5901      4020
 5902 a54e 003C4040 		.byte 0x00, 0x3C, 0x40, 0x40, 0x3C, 0x40 @ u
 5902      3C40
 5903 a554 001C2040 		.byte 0x00, 0x1C, 0x20, 0x40, 0x20, 0x1C @ v
 5903      201C
 5904 a55a 003C4030 		.byte 0x00, 0x3C, 0x40, 0x30, 0x40, 0x3C @ w
 5904      403C
 5905 a560 00442810 		.byte 0x00, 0x44, 0x28, 0x10, 0x28, 0x44 @ x
 5905      2844
 5906 a566 001CA0A0 		.byte 0x00, 0x1C, 0xA0, 0xA0, 0x90, 0x7C @ y
 5906      907C
 5907 a56c 00446454 		.byte 0x00, 0x44, 0x64, 0x54, 0x4C, 0x44 @ z
 5907      4C44
 5908 a572 00000836 		.byte 0x00, 0x00, 0x08, 0x36, 0x41, 0x00 @ {
 5908      4100
 5909 a578 00000077 		.byte 0x00, 0x00, 0x00, 0x77, 0x00, 0x00 @ |
 5909      0000
 5910 a57e 00004136 		.byte 0x00, 0x00, 0x41, 0x36, 0x08, 0x00 @ }
 5910      0800
 5911 a584 00020102 		.byte 0x00, 0x02, 0x01, 0x02, 0x04, 0x02 @ ~
 5911      0402
 5912 a58a 00000000 		.byte 0x00, 0x00, 0x00, 0x00, 0x00, 0x00 @
 5912      0000
 5913              		
ARM GAS  1.s 			page 111


 5914              		.align 4
 5915              	
 5916              	danweibiao: @15*24
 5917 a590 000000FE 		.byte 0x00, 0x00, 0x00, 0xFE, 0xFF, 0x7F, 0xFE, 0xFF, 0x7F, 0xFE, 0xFF, 0x7F, 0x00, 0xC0, 0x00, 0x
 5917      FF7FFEFF 
 5917      7FFEFF7F 
 5917      00C00000 
 5917      80010080 
 5918 a5bd 007F70E0 		.byte 0x00, 0x7F, 0x70, 0xE0, 0xFF, 0x73, 0xF0, 0xFF, 0x77, 0xF8, 0x00, 0x7F, 0x38, 0x00, 0x7C, 0x
 5918      FF73F0FF 
 5918      77F8007F 
 5918      38007C3C 
 5918      00701C00 
 5919 a5ea 000000FE 		.byte 0x00, 0x00, 0x00, 0xFE, 0xFF, 0x7F, 0xFE, 0xFF, 0x7F, 0xFE, 0xFF, 0x7F, 0x0E, 0x1C, 0x00, 0x
 5919      FF7FFEFF 
 5919      7FFEFF7F 
 5919      0E1C000E 
 5919      1C000E1C 
 5920 a617 00F87F00 		.byte 0x00, 0xF8, 0x7F, 0x00, 0xFC, 0x7F, 0x00, 0x1E, 0x00, 0x00, 0x0E, 0x00, 0x00, 0x0C, 0x00, 0x
 5920      FC7F001E 
 5920      00000E00 
 5920      000C0000 
 5920      1C0000F8 
 5921 a644 000000FC 		.byte 0x00, 0x00, 0x00, 0xFC, 0xFF, 0x0F, 0xFC, 0xFF, 0x0F, 0x3C, 0x00, 0x00, 0xF0, 0x01, 0x00, 0x
 5921      FF0FFCFF 
 5921      0F3C0000 
 5921      F0010080 
 5921      0F00003C 
 5922 a671 00000080 		.byte 0x00, 0x00, 0x00, 0x80, 0xFF, 0x7F, 0x80, 0xFF, 0x7F, 0x80, 0xFF, 0x7F, 0x00, 0x07, 0x00, 0x
 5922      FF7F80FF 
 5922      7F80FF7F 
 5922      00070080 
 5922      0300C001 
 5923 a69e 000000FE 		.byte 0x00, 0x00, 0x00, 0xFE, 0xFF, 0x7F, 0xFE, 0xFF, 0x7F, 0xFE, 0xFF, 0x7F, 0x1C, 0xE0, 0x00, 0x
 5923      FF7FFEFF 
 5923      7FFEFF7F 
 5923      1CE0000E 
 5923      C0000680 
 5924 a6cb 000000FE 		.byte 0x00, 0x00, 0x00, 0xFE, 0xFF, 0x7F, 0xFE, 0xFF, 0x7F, 0xFE, 0xFF, 0x7F, 0x00, 0x1C, 0x00, 0x
 5924      FF7FFEFF 
 5924      7FFEFF7F 
 5924      001C0000 
 5924      1C00001C 
 5925 a6f8 000000FC 		.byte 0x00, 0x00, 0x00, 0xFC, 0xFF, 0x7F, 0xFC, 0xFF, 0x7F, 0xFC, 0xFF, 0x7F, 0x00, 0x7C, 0x00, 0x
 5925      FF7FFCFF 
 5925      7FFCFF7F 
 5925      007C0000 
 5925      FE0000EF 
 5926 a725 00000000 		.byte 0x00, 0x00, 0x00, 0x00, 0x00, 0x00, 0x00, 0x00, 0x00, 0x00, 0x00, 0x00, 0x00, 0x00, 0x00, 0x
 5926      00000000 
 5926      00000000 
 5926      00000000 
 5926      00000000 
 5927              	
ARM GAS  1.s 			page 112


DEFINED SYMBOLS
                 1.s:9      .text:0000000000000000 vectors
                            *ABS*:0000000020004000 STACHINIT
                 1.s:80     .text:0000000000000114 _start
                 1.s:5106   .text:0000000000002df8 _nmi_handler
                 1.s:5107   .text:0000000000002df8 _hard_fault
                 1.s:5108   .text:0000000000002df8 _memory_fault
                 1.s:5109   .text:0000000000002df8 _bus_fault
                 1.s:5110   .text:0000000000002df8 _usage_fault
                 1.s:5111   .text:0000000000002df8 aaa
                 1.s:5113   .text:0000000000002dfa __systick_zhongduan
                 1.s:84     .text:0000000000000114 __shizhong
                            .text:0000000000000000 $d
                 1.s:85     .text:0000000000000114 $t
                 1.s:91     .text:0000000000000126 __denghse
                 1.s:95     .text:000000000000012c __dengpllguan
                 1.s:107    .text:0000000000000144 __dengpll
                 1.s:111    .text:000000000000014a __waishe_shizhong
                            *ABS*:0000000020000048 shezhi_pinlv
                 1.s:150    .text:0000000000000184 _neicunqingling
                 1.s:138    .text:0000000000000170 _neicunqingling1
                 1.s:142    .text:000000000000017a _neicunqinglingxunhuan1
                 1.s:160    .text:0000000000000196 _waishezhongduan
                 1.s:154    .text:000000000000018e _neicunqinglingxunhuan
                 1.s:170    .text:0000000000000196 __io_shezhi
                 1.s:240    .text:00000000000001f4 __spi_chushihua
                 1.s:245    .text:00000000000001fe __lcd_chushihua
                 1.s:4256   .text:000000000000282c __lcd_yanshi
                 1.s:4195   .text:00000000000027c0 __xie_spi1
                 1.s:4261   .text:0000000000002832 __lcd_qingping
                 1.s:292    .text:0000000000000270 __pinlv_dangwei_chushihua
                 1.s:1227   .text:0000000000000ac0 __pinlv_shezhi
                            *ABS*:00000000200001a0 liangcheng
                 1.s:302    .text:000000000000027a __pinlv_xianshi
                            *ABS*:000000002000004c pinlv
                 1.s:5535   .data:0000000000000110 pinlv_xianshi_biao
                 1.s:4331   .text:00000000000028c4 __xie_ascii
                            *ABS*:0000000020000050 zidong_dangwei_kaiguan
                 1.s:332    .text:00000000000002ba an_jian
                 1.s:5690   .data:0000000000000347 zidong
                 1.s:1109   .text:000000000000094c __du_duanlu_biao
                 1.s:1090   .text:000000000000092c __huifu_chuchang_shezhi
                 1.s:1126   .text:0000000000000964 __xie_flash
                            *ABS*:000000002000014c dangwei_jia_yanshi
                 1.s:861    .text:0000000000000776 ting
                 1.s:843    .text:000000000000075c __ren_wu_diao_du
                 1.s:343    .text:00000000000002c4 an_jian1
                            *ABS*:0000000020000174 guanji_yanshi
                 1.s:5758   .data:00000000000004b2 yjmwxwx
                 1.s:358    .text:00000000000002e8 __guan_ji_yan_shi
                            *ABS*:0000000020000000 asciibiao
                 1.s:4518   .text:0000000000002a12 __zhuanascii
                 1.s:377    .text:0000000000000312 an_jian2
                 1.s:1196   .text:00000000000009da __pin_lv_jia
                 1.s:382    .text:0000000000000318 an_jian3
                 1.s:830    .text:0000000000000742 __an_jian_xianshi
                 1.s:386    .text:0000000000000320 an_jian4
ARM GAS  1.s 			page 113


                 1.s:392    .text:0000000000000328 an_jian5
                 1.s:5692   .data:000000000000034d duan_lu
                 1.s:5742   .data:0000000000000482 rs_
                 1.s:5740   .data:0000000000000480 xs_
                 1.s:423    .text:0000000000000378 __qingling_yanshi
                 1.s:426    .text:000000000000037c __qingling_deng_songshou
                 1.s:1082   .text:0000000000000920 __an_jian
                 1.s:430    .text:0000000000000384 __duan_lu_qing_ling
                 1.s:1879   .text:0000000000000fc2 __xianshi_adc_jiance
                 1.s:1771   .text:0000000000000ef8 __xianshi_zhu_danwei
                 1.s:1895   .text:0000000000000fe0 __xianshi_z_fudu
                 1.s:1908   .text:0000000000000ffe __xianshi_dangwei
                 1.s:2063   .text:000000000000112c __jisuan_zukang
                            *ABS*:00000000200001bc z_r
                            *ABS*:00000000200001c0 z_i
                 1.s:1950   .text:0000000000001052 __xianshi_zukang
                 1.s:495    .text:0000000000000414 __tiaoguo_dangwei_jia
                 1.s:448    .text:00000000000003b8 __qingling_anjian_xiaodou
                 1.s:451    .text:00000000000003bc __qingling_anjian_deng_songshou
                 1.s:5513   .data:00000000000000be khz1_duanlu_qingling_r
                 1.s:5521   .data:00000000000000da khz1_duanlu_qingling_i
                 1.s:499    .text:000000000000041c __duanlu_qingling_wancheng
                 1.s:520    .text:0000000000000446 __du_jiaozhunbiao_dao_neicun1
                            *ABS*:000000002000010c jiaozhun3.33mr_r
                 1.s:524    .text:000000000000044c __du_jiaozhun_biao_xunhuan1
                 1.s:538    .text:0000000000000462 an_jian6
                            *ABS*:0000000020000108 jiaozhun_moshi
                 1.s:543    .text:0000000000000468 __du_jiaozhunbiao_dao_neicun
                 1.s:547    .text:000000000000046e __du_jiaozhun_biao_xunhuan
                 1.s:575    .text:00000000000004a6 __jiaozhun
                 1.s:5511   .data:00000000000000b0 jiaozhun_liangcheng_biao
                 1.s:721    .text:00000000000005ba __xianshi_jiaozhun_shuzhi
                 1.s:589    .text:00000000000004c0 __jiaozhun1
                 1.s:5695   .data:0000000000000360 jiaozhun_biao
                 1.s:639    .text:0000000000000522 __jiaozhun_jia
                 1.s:657    .text:0000000000000544 __jiaozhun_jian
                 1.s:677    .text:0000000000000568 __jiaozhun_zhizhen_jia
                 1.s:691    .text:0000000000000582 __jiaozhun_zhizhen_jian
                 1.s:704    .text:000000000000059a __jiaozhun_wan_fanhui
                 1.s:5756   .data:00000000000004a0 jiaozhun_wan_cheng
                 1.s:711    .text:00000000000005ae f
                 1.s:731    .text:00000000000005ce __jiaozhun_shuzhi_shi_fu
                 1.s:725    .text:00000000000005c0 __jiaozhun_shuzhi_bushi_fu
                 1.s:5762   .data:00000000000004c3 kong
                 1.s:738    .text:00000000000005de __xianshi_jiaozhun_shuzhi1
                 1.s:5764   .data:00000000000004d9 fu
                 1.s:749    .text:00000000000005f8 $d
                 1.s:753    .text:00000000000006ac an_jian7
                 1.s:754    .text:00000000000006ac $t
                 1.s:757    .text:00000000000006b4 an_jian8
                 1.s:765    .text:00000000000006c6 __dangwei_jia_deng_songshou
                 1.s:771    .text:00000000000006d4 __dangwei_jia_le
                 1.s:781    .text:00000000000006e4 __anjian8_fanhui
                 1.s:786    .text:00000000000006f0 an_jian9
                 1.s:790    .text:00000000000006f8 an_jian10
                 1.s:794    .text:0000000000000700 an_jian11
                 1.s:798    .text:0000000000000708 an_jian12
ARM GAS  1.s 			page 114


                 1.s:810    .text:0000000000000724 __qiehuan_zidong_yanshi
                 1.s:816    .text:000000000000072a an_jian13
                 1.s:820    .text:0000000000000732 an_jian14
                 1.s:825    .text:000000000000073a an_jian15
                            *ABS*:0000000020000198 anjian_hao
                 1.s:5494   .data:0000000000000070 an_jian_biao
                 1.s:1814   .text:0000000000000f50 __adc_jiance
                 1.s:867    .text:000000000000077a __mansu
                 1.s:899    .text:00000000000007bc __zr_bushi_fu
                 1.s:1033   .text:00000000000008be __xs_xianshi
                            *ABS*:0000000020000044 xianshi_moshi
                            *ABS*:0000000020000194 xs_cs_ls
                 1.s:1741   .text:0000000000000ec4 __cs_jisuan
                 1.s:5744   .data:0000000000000484 cs_
                            *ABS*:0000000020000190 cs
                 1.s:956    .text:0000000000000822 __ls
                 1.s:1720   .text:0000000000000e20 __ls_jisuan
                 1.s:5746   .data:0000000000000486 ls_
                            *ABS*:000000002000018c ls
                 1.s:972    .text:0000000000000846 __kuaisu
                            *ABS*:00000000200001b0 shangbi_rr
                            *ABS*:00000000200001b4 shangbi_ii
                            *ABS*:00000000200001a8 xiabi_rr
                            *ABS*:00000000200001ac xiabi_ii
                            *ABS*:00000000200001ec shangbi_r
                            *ABS*:00000000200001f0 shangbi_i
                            *ABS*:00000000200001e4 xiabi_r
                            *ABS*:00000000200001e8 xiabi_i
                 1.s:1023   .text:00000000000008aa __ls1
                 1.s:1050   .text:00000000000008de __xianshi_jiaodu
                            *ABS*:00000000200001b8 z_jiao_du
                 1.s:1062   .text:00000000000008f6 __z_jiaodu_shi_fu
                 1.s:1056   .text:00000000000008e8 __z_jiaodu_bushi_fu
                 1.s:1069   .text:0000000000000906 __xianshi_z_jiaodu
                 1.s:5540   .data:0000000000000120 zukang_dianzu_biao
                 1.s:5542   .data:000000000000013c zukang_diankang_biao
                 1.s:1096   .text:0000000000000936 __chuchang_shezhi_xunhuan
                            *ABS*:0000000020000054 khz1_3.33mr_duanlu_r
                 1.s:1114   .text:0000000000000954 __du_duanlu_xunhuan
                 1.s:1139   .text:0000000000000978 _flashmang
                 1.s:1158   .text:000000000000099a _flashmang1
                 1.s:1167   .text:00000000000009aa _flashmang2
                 1.s:1173   .text:00000000000009b4 _flashmang4
                 1.s:1185   .text:00000000000009ce __xie_flash_fan_hui
                 1.s:1191   .text:00000000000009d8 deng_fuwei
                 1.s:1207   .text:00000000000009ee __pin_lv_fan_hui
                 1.s:1217   .text:0000000000000a06 __pinlv_qiehuan_yanshi
                 1.s:1225   .text:0000000000000a12 $d
                 1.s:1225   .text:0000000000000a14 $d
                 1.s:1230   .text:0000000000000ac0 $t
                 1.s:5530   .data:0000000000000100 pinlv_biao
                 1.s:1245   .text:0000000000000ad4 __pinlv_1khz
                            *ABS*:00000000200001f4 cos_sin
                 1.s:5798   .data:0000000000002410 cos_sin_100hz
                            *ABS*:00000000200001f8 dft_shuliang
                            *ABS*:000000002000016c cos_sin_shuliang
                            *ABS*:0000000020000200 dianyabiao
ARM GAS  1.s 			page 115


                 1.s:5776   .data:0000000000000cd0 zhengxian_1khz
                 1.s:1304   .text:0000000000000b3a __deng_adc_jiaozhun11
                 1.s:1308   .text:0000000000000b40 __deng_adc_zhunbeihao22
                            *ABS*:00000000200001dc lvbo_changdu
                            *ABS*:00000000200001d8 lvbo_youyi
                 1.s:1369   .text:0000000000000bac __pinlv_1khz_man
                 1.s:5795   .data:0000000000001788 cos_sin_10khz
                 1.s:1422   .text:0000000000000c0e __deng_adc_jiaozhun2
                 1.s:1426   .text:0000000000000c14 __deng_adc_zhunbeihao2
                 1.s:1486   .text:0000000000000c80 __pinlv_10khz
                 1.s:5779   .data:0000000000000ff0 zhengxian_10khz
                 1.s:1540   .text:0000000000000ce2 __deng_adc_jiaozhun1
                 1.s:1544   .text:0000000000000ce8 __deng_adc_zhunbeihao1
                 1.s:1604   .text:0000000000000d54 __pinlv_100khz
                 1.s:5788   .data:0000000000001148 cos_sin_100khz
                 1.s:5784   .data:0000000000001120 zhengxian_100khz
                 1.s:1653   .text:0000000000000dae __deng_adc_jiaozhun
                 1.s:1657   .text:0000000000000db4 __deng_adc_zhunbeihao
                 1.s:1721   *ABS*:00000000200001c0 入口R0
                 1.s:5638   .data:000000000000027b ls_weishu
                 1.s:1740   .text:0000000000000e48 $d
                 1.s:1742   .text:0000000000000ec4 $t
                 1.s:5601   .data:00000000000001f7 cs_weishu
                 1.s:1762   .text:0000000000000eea __pinlv_xiaoyu_200k
                 1.s:5545   .data:0000000000000160 rs_danwei_biao
                 1.s:4488   .text:00000000000029e2 _zhuanascii
                 1.s:5916   .data:000000000000a590 danweibiao
                 1.s:4370   .text:0000000000002906 __xie_alabo
                 1.s:5547   .data:0000000000000167 zhucanshu_i_danwei_biao
                 1.s:1821   .text:0000000000000f60 __adc_jiance_xunhuan
                 1.s:1826   .text:0000000000000f68 __adc_yiwei
                            *ABS*:0000000020000150 adc_jiance
                 1.s:1836   .text:0000000000000f76 __adc_jiance_fanhui
                 1.s:1841   .text:0000000000000f7a __zidong_dangwei
                 1.s:1891   .text:0000000000000fde __zidong_dangwei_fanhui
                 1.s:1847   .text:0000000000000f84 __huan_dang
                            *ABS*:00000000200001a4 z_fudu
                 1.s:1868   .text:0000000000000fb0 __dang_wei_jian
                 1.s:1877   .text:0000000000000fc0 __zi_dong_dang_wei_fan_hui
                 1.s:5667   .data:0000000000000300 dangwei_ascii
                 1.s:1921   .text:0000000000001016 __xianshi_dangwei1
                 1.s:1935   .text:0000000000001034 __xianshi_mansu_kaiguan
                            *ABS*:0000000020000180 mansu_kaiguan
                 1.s:1966   .text:0000000000001068 __z_r_shi_fu
                 1.s:1960   .text:000000000000105a __z_r_bushi_fu
                 1.s:1973   .text:0000000000001078 __xianshi_z_r
                 1.s:5652   .data:00000000000002df zukang_xiaoshudian
                 1.s:4417   .text:0000000000002954 __xie_lcd_ascii
                 1.s:2002   .text:00000000000010b2 __z_i_shi_fu
                 1.s:1996   .text:00000000000010a4 __z_i_bushi_fu
                 1.s:2009   .text:00000000000010c2 __xianshi_z_i
                 1.s:5560   .data:000000000000018a zhucanshu_i_xiaoshudian
                 1.s:2036   .text:00000000000010f4 __jisuan_z_fudu
                 1.s:4648   .text:0000000000002aea __ji_suan_fu_du
                 1.s:2049   .text:0000000000001110 __jisuan_z_fudu1
                 1.s:2079   .text:000000000000114a __jiaozhun_moshi_zukang
                 1.s:5458   .data:0000000000000000 flash_dianzu_biao
ARM GAS  1.s 			page 116


                 1.s:5466   .data:000000000000001c flash_diankang_biao
                 1.s:2089   .text:000000000000115c __suan_zu_kang
                 1.s:5474   .data:0000000000000038 ram_dianzu_biao
                 1.s:5484   .data:0000000000000054 ram_diankang_biao
                 1.s:4957   .text:0000000000002d0c __fushu_chufa
                 1.s:4855   .text:0000000000002c64 __fushu_chengfa
                 1.s:2115   .text:000000000000118a __lv_bo_qi
                 1.s:2135   .text:00000000000011aa __huanchong_leijia
                 1.s:2144   .text:00000000000011ba $d
                 1.s:2144   .text:00000000000011bc $d
                 1.s:2146   .text:0000000000001240 __lv_bo_qi1
                 1.s:2150   .text:0000000000001240 $t
                 1.s:2168   .text:000000000000125c __huanchong_leijia1
                 1.s:2181   .text:000000000000126c __xianshi_shangxia_bi
                 1.s:2195   .text:000000000000128a __shangbi_r_shi_fu
                 1.s:2189   .text:000000000000127c __shangbi_r_bushi_fu
                 1.s:2202   .text:000000000000129a __xianshi_shangbi_r
                 1.s:2221   .text:00000000000012c4 __shangbi_i_shi_fu
                 1.s:2215   .text:00000000000012b6 __shangbi_i_bushi_fu
                 1.s:2228   .text:00000000000012d4 __xianshi_shangbi_i
                 1.s:2251   .text:0000000000001306 __xiabi_r_shi_fu
                 1.s:2245   .text:00000000000012f8 __xiabi_r_bushi_fu
                 1.s:2258   .text:0000000000001316 __xianshi_xiabi_r
                 1.s:2277   .text:0000000000001340 __xiabi_i_shi_fu
                 1.s:2271   .text:0000000000001332 __xiabi_i_bushi_fu
                 1.s:2284   .text:0000000000001350 __xianshi_xiabi_i
                 1.s:2299   .text:000000000000136c __ceshi_dft_shijian
                 1.s:2387   .text:0000000000001468 __dft_jisuan
                 1.s:2320   .text:0000000000001392 __lcd_xianshi_shuju_shiyan
                 1.s:2384   .text:000000000000142c $d
                 1.s:2389   .text:0000000000001468 $t
                            *ABS*:0000000020000168 dft_chongfu_jishu
                            *ABS*:0000000020000170 cos_sin_jishu
                            *ABS*:00000000200001fc sp_zhizhen
                 1.s:2407   .text:00000000000014b4 __dft_xunhuan
                 1.s:2406   .text:0000000000001498 $d
                 1.s:2409   .text:00000000000014b4 $t
                 1.s:4177   .text:000000000000278e __dft_shuliang_jishu
                 1.s:4193   .text:00000000000027aa $d
                 1.s:4193   .text:00000000000027ac $d
                 1.s:4196   .text:00000000000027c0 $t
                 1.s:4206   .text:00000000000027d4 __spi_mang
                 1.s:4201   .text:00000000000027ce __xie_spi1_yanshi
                 1.s:4212   .text:00000000000027dc __xie_lcd_ye
                 1.s:4218   .text:00000000000027e4 __ye_jia
                 1.s:4233   .text:00000000000027fc __xie_ye_dizhi
                 1.s:4248   .text:000000000000281e __heng_sao
                 1.s:4266   .text:000000000000283c __ye_jia1
                 1.s:4277   .text:0000000000002854 __xie_ye_dizhi1
                 1.s:4291   .text:0000000000002876 __heng_sao1
                 1.s:4299   .text:0000000000002882 __xie_lcd_weizhi
                 1.s:4344   .text:00000000000028dc __xie_lcd_dizhi2
                 1.s:4347   .text:00000000000028e2 __du_ascii2
                 1.s:5816   .data:000000000000a350 ascii_biao
                 1.s:4353   .text:00000000000028ec __du_ziku_chushihua2
                 1.s:4355   .text:00000000000028ee __du_ziku1
                 1.s:4362   .text:00000000000028fc __duwan_ziku1
ARM GAS  1.s 			page 117


                 1.s:4385   .text:000000000000291e __xie_lcd_dizhi1
                 1.s:4388   .text:0000000000002924 __du_ascii1
                 1.s:4394   .text:000000000000292e __du_ziku_chushihua1
                 1.s:4396   .text:0000000000002930 __du_ziku
                 1.s:4403   .text:000000000000293e __duwan_ziku
                 1.s:4432   .text:000000000000296c __xie_lcd_dizhi
                 1.s:4435   .text:0000000000002972 __du_ascii
                 1.s:4463   .text:00000000000029a6 __xie_ascii_xiaoshudian
                 1.s:5804   .data:000000000000a164 da_a_labo_hack
                 1.s:4444   .text:0000000000002980 __du_ziku_16_chushihua
                 1.s:4446   .text:0000000000002982 __du_ziku_16
                 1.s:4453   .text:0000000000002990 __duwan_16
                 1.s:4477   .text:00000000000029c8 __xie_ru_xiaoshudian
                 1.s:4495   .text:00000000000029ec _xunhuanqiuma
                 1.s:4514   .text:0000000000002a0e _qiumafanhui
                 1.s:4509   .text:0000000000002a06 _meidaoxiaoshudian
                 1.s:4525   .text:0000000000002a1c __xunhuanqiuma
                 1.s:4544   .text:0000000000002a40 __qiumafanhui
                 1.s:4539   .text:0000000000002a38 __meidaoxiaoshudian
                 1.s:4548   .text:0000000000002a44 ___suan_atan2
                 1.s:5802   .data:000000000000a110 atan_biao
                 1.s:4562   .text:0000000000002a5c ___panduan_xubu
                 1.s:4819   .text:0000000000002c24 __suan_atan2_xunhuan
                 1.s:4566   .text:0000000000002a66 ___suan_atan2_xunhuan
                 1.s:4580   .text:0000000000002a80 ___atan2_zhengzhuan
                 1.s:4591   .text:0000000000002a94 ___atan2_xuanzhuan
                 1.s:4599   .text:0000000000002aa0 __chengfa
                 1.s:4643   .text:0000000000002ae4 __cheng_fa_fan_hui
                 1.s:4613   .text:0000000000002aaa __ji_suan_cheng_fa
                 1.s:4658   .text:0000000000002af4 _shibubushifushu
                 1.s:4663   .text:0000000000002afc _xububushifushu
                 1.s:4668   .text:0000000000002b04 _panduanxubushibushi0
                 1.s:4672   .text:0000000000002b0a _jisuanfudu1
                 1.s:4701   .text:0000000000002b3c _alpha_min_beta_max
                 1.s:4677   .text:0000000000002b16 _alpha_max_beta_min
                 1.s:4726   .text:0000000000002b62 $d
                 1.s:4726   .text:0000000000002b64 $d
                 1.s:4727   .text:0000000000002b7c __suan_cos_sin
                 1.s:4731   .text:0000000000002b7c $t
                 1.s:4742   .text:0000000000002b98 __dayu_90
                 1.s:4749   .text:0000000000002ba6 __suan_cos_sin_xunhuan
                 1.s:4747   .text:0000000000002ba2 __dayu_270
                 1.s:4766   .text:0000000000002bc4 __zhengzhuan
                 1.s:4754   .text:0000000000002bae __fanzhuan
                 1.s:4777   .text:0000000000002bd8 __cordic_xuanzhuan
                 1.s:4793   .text:0000000000002bfa __suan_cos_sin_fanhui
                 1.s:4797   .text:0000000000002c00 $d
                 1.s:4801   .text:0000000000002c04 __suan_atan2
                 1.s:4804   .text:0000000000002c04 $t
                 1.s:4815   .text:0000000000002c1c __panduan_xubu
                 1.s:4833   .text:0000000000002c3e __atan2_zhengzhuan
                 1.s:4844   .text:0000000000002c52 __atan2_xuanzhuan
                 1.s:4851   .text:0000000000002c5e $d
                 1.s:4851   .text:0000000000002c60 $d
                 1.s:4858   .text:0000000000002c64 $t
                 1.s:4877   .text:0000000000002c86 __suan_chengfa_shangxiabi_fudu
                 1.s:4907   .text:0000000000002cbe cf1
ARM GAS  1.s 			page 118


                 1.s:4913   .text:0000000000002cc8 cf2
                 1.s:4923   .text:0000000000002cda __suan_chengfa_xubu
                 1.s:4933   .text:0000000000002cec cf3
                 1.s:4939   .text:0000000000002cf6 cf4
                 1.s:4949   .text:0000000000002d08 cf5
                 1.s:4978   .text:0000000000002d2c __suan_shangxiabi_fudu
                 1.s:5062   .text:0000000000002db0 __chufa64
                 1.s:5007   .text:0000000000002d62 cl1
                 1.s:5013   .text:0000000000002d6c cl2
                 1.s:5023   .text:0000000000002d7e __suan_xubu
                 1.s:5033   .text:0000000000002d90 cl3
                 1.s:5039   .text:0000000000002d9a cl4
                 1.s:5049   .text:0000000000002dac cl5
                 1.s:5102   .text:0000000000002df2 __chu_fa64_fan_hui0
                 1.s:5072   .text:0000000000002dbe __chu_fa64_ji_suan
                 1.s:5079   .text:0000000000002dca __chu_fa64_xun_huan
                 1.s:5088   .text:0000000000002dda __chu_fa_yi_wei
                 1.s:5096   .text:0000000000002de8 __di_yi_wei
                 1.s:5115   .text:0000000000002dfe __suan_dft
                 1.s:5116   .text:0000000000002dfe __deng_dma_wan
                            *ABS*:00000000200001c4 shangxiabi_qiehuan
                 1.s:5166   .text:0000000000002e54 __qiehuan_xiabi
                 1.s:5129   .text:0000000000002e0a __qiehuan_shangbi
                 1.s:5767   .data:00000000000004e0 shangbi_liangcheng
                 1.s:5140   .text:0000000000002e1e __jisuan_shangbi
                            *ABS*:0000000020002f50 lvboqizhizhen2
                            *ABS*:0000000020002f58 lvboqihuanchong2
                            *ABS*:0000000020003650 lvboqizhizhen3
                            *ABS*:0000000020003658 lvboqihuanchong3
                 1.s:5319   .text:0000000000002f6c __systick_fanhui
                 1.s:5770   .data:00000000000004f0 xiabi_liangcheng
                 1.s:5182   .text:0000000000002e70 __jisuan_xiabi
                            *ABS*:0000000020002150 lvboqizhizhen
                            *ABS*:0000000020002158 lvboqihuanchong
                            *ABS*:0000000020002850 lvboqizhizhen1
                            *ABS*:0000000020002858 lvboqihuanchong1
                 1.s:5263   .text:0000000000002f02 __kuaisu_dangwei
                 1.s:5213   .text:0000000000002ea4 __mansu_dangwei
                            *ABS*:0000000020000154 kuaisu_dangwei_fazhi
                            *ABS*:000000002000015c mansu_dangwei_yanshi
                            *ABS*:0000000020000188 shangci_dangwei
                 1.s:5245   .text:0000000000002ee8 __jiance_mansu_huandang
                 1.s:5249   .text:0000000000002eee __qiehuan_kuaisu
                 1.s:5255   .text:0000000000002ef8 __jixu_mansu
                            *ABS*:0000000020000158 kuaisu_dangwei_yanshi
                 1.s:5296   .text:0000000000002f46 __jiance_huandang
                 1.s:5314   .text:0000000000002f64 __mansu_kai
                 1.s:5299   .text:0000000000002f4a __kuaisu_kai
                 1.s:5311   .text:0000000000002f60 __kuaisu_fazhi_dao
                 1.s:5327   .text:0000000000002f78 $d
                 1.s:5330   *ABS*:000000000800f100 _khz1_3.33mr_duanlu_r
                 1.s:5331   *ABS*:000000000800f104 _khz1_33.3mr_duanlu_r
                 1.s:5332   *ABS*:000000000800f108 _khz1_333mr_duanlu_r
                 1.s:5333   *ABS*:000000000800f10c _khz1_3.33r_duanlu_r
                 1.s:5334   *ABS*:000000000800f110 _khz1_33.3r_duanlu_r
                 1.s:5335   *ABS*:000000000800f114 _khz1_333r_duanlu_r
                 1.s:5336   *ABS*:000000000800f118 _khz1_3333r_duanlu_r
ARM GAS  1.s 			page 119


                 1.s:5337   *ABS*:000000000800f11c _khz1_3.33mr_duanlu_i
                 1.s:5338   *ABS*:000000000800f120 _khz1_33.3mr_duanlu_i
                 1.s:5339   *ABS*:000000000800f124 _khz1_333mr_duanlu_i
                 1.s:5340   *ABS*:000000000800f128 _khz1_3.33r_duanlu_i
                 1.s:5341   *ABS*:000000000800f12c _khz1_33.3r_duanlu_i
                 1.s:5342   *ABS*:000000000800f130 _khz1_333r_duanlu_i
                 1.s:5343   *ABS*:000000000800f134 _khz1_3333r_duanlu_i
                 1.s:5347   *ABS*:000000000800f000 jiaozhun_3.33mr_r
                 1.s:5348   *ABS*:000000000800f004 jiaozhun_3.33mr_i
                 1.s:5349   *ABS*:000000000800f008 jiaozhun_33.3mr_r
                 1.s:5350   *ABS*:000000000800f00c jiaozhun_33.3mr_i
                 1.s:5351   *ABS*:000000000800f010 jiaozhun_333mr_r
                 1.s:5352   *ABS*:000000000800f014 jiaozhun_333mr_i
                 1.s:5353   *ABS*:000000000800f018 jiaozhun_3.33r_r
                 1.s:5354   *ABS*:000000000800f01c jiaozhun_3.33r_i
                 1.s:5355   *ABS*:000000000800f020 jiaozhun_33.3r_r
                 1.s:5356   *ABS*:000000000800f024 jiaozhun_33.3r_i
                 1.s:5357   *ABS*:000000000800f028 jiaozhun_333r_r
                 1.s:5358   *ABS*:000000000800f02c jiaozhun_333r_i
                 1.s:5359   *ABS*:000000000800f030 jiaozhun_3333r_r
                 1.s:5360   *ABS*:000000000800f034 jiaozhun_3333r_i
                 1.s:5371   *ABS*:0000000020000058 khz1_33.3mr_duanlu_r
                 1.s:5372   *ABS*:000000002000005c khz1_333mr_duanlu_r
                 1.s:5373   *ABS*:0000000020000060 khz1_3.33r_duanlu_r
                 1.s:5374   *ABS*:0000000020000064 khz1_33.3r_duanlu_r
                 1.s:5375   *ABS*:0000000020000068 khz1_333r_duanlu_r
                 1.s:5376   *ABS*:000000002000006c khz1_3333r_duanlu_r
                 1.s:5377   *ABS*:0000000020000070 khz1_3.33mr_duanlu_i
                 1.s:5378   *ABS*:0000000020000074 khz1_33.3mr_duanlu_i
                 1.s:5379   *ABS*:0000000020000078 khz1_333mr_duanlu_i
                 1.s:5380   *ABS*:000000002000007c khz1_3.33r_duanlu_i
                 1.s:5381   *ABS*:0000000020000080 khz1_33.3r_duanlu_i
                 1.s:5382   *ABS*:0000000020000084 khz1_333r_duanlu_i
                 1.s:5383   *ABS*:0000000020000088 khz1_3333r_duanlu_i
                 1.s:5389   *ABS*:0000000020000110 jiaozhun3.33mr_i
                 1.s:5390   *ABS*:0000000020000114 jiaozhun33.3mr_r
                 1.s:5391   *ABS*:0000000020000118 jiaozhun33.3mr_i
                 1.s:5392   *ABS*:000000002000011c jiaozhun333mr_r
                 1.s:5393   *ABS*:0000000020000120 jiaozhun333mr_i
                 1.s:5394   *ABS*:0000000020000124 jiaozhun3.33r_r
                 1.s:5395   *ABS*:0000000020000128 jiaozhun3.33r_i
                 1.s:5396   *ABS*:000000002000012c jiaozhun33.3r_r
                 1.s:5397   *ABS*:0000000020000130 jiaozhun33.3r_i
                 1.s:5398   *ABS*:0000000020000134 jiaozhun333r_r
                 1.s:5399   *ABS*:0000000020000138 jiaozhun333r_i
                 1.s:5400   *ABS*:000000002000013c jiaozhun3333r_r
                 1.s:5401   *ABS*:0000000020000140 jiaozhun3333r_i
                 1.s:5403   *ABS*:0000000020000144 jiaozhun_r
                 1.s:5404   *ABS*:0000000020000148 jiaozhun_i
                 1.s:5410   *ABS*:0000000020000160 qingling_z_r
                 1.s:5411   *ABS*:0000000020000164 qingling_z_i
                 1.s:5416   *ABS*:0000000020000178 mansu_xianshi
                 1.s:5417   *ABS*:000000002000017c z_fudu_man
                 1.s:5419   *ABS*:0000000020000184 mansu_yanshi
                 1.s:5425   *ABS*:000000002000019c man_z_fudu
                 1.s:5438   *ABS*:00000000200001e0 dft_jisuan_yanshi
                 1.s:5455   *ABS*:0000000020003ca0 lvboqizhizhen4
ARM GAS  1.s 			page 120


                 1.s:5456   *ABS*:0000000020003ca8 lvboqihuanchong4
                 1.s:5529   .data:00000000000000f6 $d
                 1.s:5748   .data:0000000000000488 pinlv_1khz
                 1.s:5750   .data:000000000000048e pinlv_10khz
                 1.s:5752   .data:0000000000000494 pinlv_100khz
                 1.s:5754   .data:000000000000049a pinlv_1khz_man
                 1.s:5551   .data:0000000000000173 xs_danwei
                 1.s:5577   .data:00000000000001ad cs_danwei
                 1.s:5613   .data:0000000000000231 ls_danwei
                 1.s:5556   .data:0000000000000183 xs_danwei_1khz
                 1.s:5557   .data:0000000000000183 xs_danwei_10khz
                 1.s:5558   .data:0000000000000183 xs_danwei_100khz
                 1.s:5565   .data:0000000000000196 xs_xiaoshudian
                 1.s:5589   .data:00000000000001d2 cs_xiaoshudian
                 1.s:5626   .data:0000000000000256 ls_xiaoshudian
                 1.s:5571   .data:00000000000001a6 xs_xiaoshudian_1khz
                 1.s:5572   .data:00000000000001a6 xs_xiaoshudian_10khz
                 1.s:5573   .data:00000000000001a6 xs_xiaoshudian_100khz
                 1.s:5583   .data:00000000000001bd cs_danwei_1khz
                 1.s:5585   .data:00000000000001c4 cs_danwei_10khz
                 1.s:5587   .data:00000000000001cb cs_danwei_100khz
                 1.s:5594   .data:00000000000001e2 cs_xiaoshudian_1khz
                 1.s:5596   .data:00000000000001e9 cs_xiaoshudian_10khz
                 1.s:5598   .data:00000000000001f0 cs_xiaoshudian_100khz
                 1.s:5606   .data:0000000000000207 cs_weishu_1khz
                 1.s:5608   .data:0000000000000215 cs_weishu_10khz
                 1.s:5610   .data:0000000000000223 cs_weishu_100khz
                 1.s:5619   .data:0000000000000241 ls_danwei_1khz
                 1.s:5621   .data:0000000000000248 ls_danwei_10khz
                 1.s:5623   .data:000000000000024f ls_danwei_100khz
                 1.s:5631   .data:0000000000000266 ls_xiaoshudian_1khz
                 1.s:5633   .data:000000000000026d ls_xiaoshudian_10khz
                 1.s:5635   .data:0000000000000274 ls_xiaoshudian_100khz
                 1.s:5643   .data:000000000000028b ls_weishu_1khz
                 1.s:5645   .data:00000000000002a7 ls_weishu_10khz
                 1.s:5647   .data:00000000000002c3 ls_weishu_100khz
                 1.s:5657   .data:00000000000002ef zukang_xiaoshudian_1khz
                 1.s:5658   .data:00000000000002ef zukang_xiaoshudian_10khz
                 1.s:5659   .data:00000000000002ef zukang_xiaoshudian_100khz
                 1.s:5676   .data:000000000000031c haoou3.33
                 1.s:5678   .data:0000000000000323 haoou33.3
                 1.s:5680   .data:0000000000000329 haoou333
                 1.s:5682   .data:000000000000032f ou3.33
                 1.s:5684   .data:0000000000000335 ou33.3
                 1.s:5686   .data:000000000000033b ou333
                 1.s:5688   .data:0000000000000341 ou3333
                 1.s:5711   .data:0000000000000398 __jiaozhun3.33mr_r
                 1.s:5713   .data:00000000000003a8 __jiaozhun3.33mr_i
                 1.s:5715   .data:00000000000003b8 __jiaozhun33.3mr_r
                 1.s:5717   .data:00000000000003c8 __jiaozhun33.3mr_i
                 1.s:5719   .data:00000000000003d8 __jiaozhun333mr_r
                 1.s:5721   .data:00000000000003e8 __jiaozhun333mr_i
                 1.s:5723   .data:00000000000003f8 __jiaozhun3.33r_r
                 1.s:5725   .data:0000000000000408 __jiaozhun3.33r_i
                 1.s:5727   .data:0000000000000418 __jiaozhun33.3r_r
                 1.s:5729   .data:0000000000000428 __jiaozhun33.3r_i
                 1.s:5731   .data:0000000000000438 __jiaozhun333r_r
ARM GAS  1.s 			page 121


                 1.s:5733   .data:0000000000000448 __jiaozhun333r_i
                 1.s:5735   .data:0000000000000458 __jiaozhun3333r_r
                 1.s:5737   .data:0000000000000468 __jiaozhun3333r_i
                 1.s:5760   .data:00000000000004c2 jia
                 1.s:5773   .data:0000000000000500 zhengxian_100hz

NO UNDEFINED SYMBOLS
