ARM GAS  1.s 			page 1


   1              		@单片机：N32G430C8L7
   2              		@功能：频率相位可调SPWM
   3              		@作者：yjmwxwx
   4              		@时间：20220726
   5              		@编译器：arm-none-eabi
   6              		.thumb
   7              		.syntax unified
   8              	.section .text
   9              	vectors:					@向量表
  10 0000 00400020 		.word STACHINIT	
  11 0004 11010000 		.word _start + 1			@复位向量
  12 0008 73050000 	        .word _nmi_handler + 1 
  13 000c 73050000 	        .word _hard_fault + 1 
  14 0010 73050000 	        .word _memory_fault + 1 
  15 0014 73050000 	        .word _bus_fault + 1
  16 0018 73050000 	        .word _usage_fault + 1
  17 001c 00000000 		.word 0
  18 0020 00000000 		.word 0
  19 0024 00000000 		.word 0
  20 0028 00000000 		.word 0
  21 002c 73050000 		.word aaa +1 @_svc_handler + 1
  22 0030 73050000 		.word aaa +1 @_debugmon_handler + 1
  23 0034 00000000 		.word 0
  24 0038 73050000 		.word aaa +1 @_pendsv_handler + 1
  25 003c 75050000 		.word __systick_zhongduan +1
  26              		@@@@@@@@@@@@@@@@@@@@@@@@@@@@@@@
  27 0040 73050000 		.word aaa +1 @0 _wwdg +1
  28 0044 73050000 		.word aaa +1 @1 _pvd +1
  29 0048 73050000 		.word aaa +1 @2 _rtc_tamper_stamp +1
  30 004c 73050000 		.word aaa +1 @3 _rtc_wkup +1
  31 0050 73050000 		.word aaa +1 @4 _flash +1
  32 0054 73050000 		.word aaa +1 @5 _rcc +1
  33 0058 73050000 		.word aaa +1 @6 _exti0 +1
  34 005c 73050000 		.word aaa +1 @7 _exti1 +1
  35 0060 73050000 		.word aaa +1 @8 _exti2 +1
  36 0064 73050000 		.word aaa +1 @9 _exti3 +1
  37 0068 73050000 		.word aaa +1 @10 _exti4 +1
  38 006c 73050000 		.word aaa +1 @11 _dma_channel1 +1
  39 0070 73050000 		.word aaa +1 @12 _dma_channel2 +1
  40 0074 73050000 		.word aaa +1 @13 _dma_channel3 +1
  41 0078 73050000 		.word aaa +1 @14 _dma_channel4 +1
  42 007c 73050000 		.word aaa +1 @15 _dma_channel5 +1
  43 0080 73050000 		.word aaa +1 @16 _dma_channel6 +1
  44 0084 73050000 		.word aaa +1 @17 _dma_channel7 +1
  45 0088 73050000 		.word aaa +1 @18 _dma_channel8 +1
  46 008c 73050000 		.word aaa +1 @19 _adc +1
  47 0090 73050000 		.word aaa +1 @20 _mmu +1
  48 0094 73050000 		.word aaa +1 @21 _comp_1_2_3 +1
  49 0098 73050000 		.word aaa +1 @22 _exti9_5 +1
  50 009c 73050000 		.word aaa +1 @23 _tim1_brk +1
  51 00a0 73050000 		.word aaa +1 @24 _tim1_up +1
  52 00a4 73050000 		.word aaa +1 @25 _tim1_trg_com +1
  53 00a8 73050000 		.word aaa +1 @26 _tim1_cc +1
  54 00ac 73050000 		.word aaa +1 @27 _tim2 +1
  55 00b0 87050000 		.word _tim3 +1
  56 00b4 73050000 		.word aaa +1 @30 _tim4 +1
  57 00b8 73050000 		.word aaa +1 @31 _i2c1_ev +1
ARM GAS  1.s 			page 2


  58 00bc 73050000 		.word aaa +1 @32 _i2c1_er +1
  59 00c0 73050000 		.word aaa +1 @33 _i2c2_ev +1
  60 00c4 73050000 		.word aaa +1 @34 _i2c2_er +1
  61 00c8 73050000 		.word aaa +1 @35 _spi1 +1
  62 00cc 73050000 		.word aaa +1 @36 _spi2 +1
  63 00d0 73050000 		.word aaa +1 @37 _usart1 +1
  64 00d4 73050000 		.word aaa +1 @38 _usart2 +1
  65 00d8 73050000 		.word aaa +1 @39 _uart3 +1
  66 00dc 73050000 		.word aaa +1 @40 _exti15_10 +1
  67 00e0 73050000 		.word aaa +1 @41 _rtcalarm +1
  68 00e4 73050000 		.word aaa +1 @42 _lptim_wkup +1
  69 00e8 73050000 		.word aaa +1 @43 _tim8_brk +1
  70 00ec 73050000 		.word aaa +1 @44 _tim8_up +1
  71 00f0 73050000 		.word aaa +1 @45 _tim8_cc +1
  72 00f4 73050000 		.word aaa +1 @46 _uart4 +1
  73 00f8 73050000 		.word aaa +1 @47 _tim5 +1
  74 00fc 73050000 		.word aaa +1 @48 _tim6 +1
  75 0100 73050000 		.word aaa +1 @49 _can_tx +1
  76 0104 73050000 		.word aaa +1 @50 _can_rx0 +1
  77 0108 73050000 		.word aaa +1 @51 _can_rx1 +1
  78 010c 73050000 		.word aaa +1 @52 _can_sce +1
  79              	_start:
  80              	__shizhong:
  81 0110 DFF8CC24 		ldr r2, = 0x40022000   @FLASH访问控制
  82 0114 3321     		movs r1, # 0x33
  83 0116 1160     		str r1, [r2]           @FLASH缓冲 缓冲开启
  84 0118 DFF8C804 		ldr r0, = 0x40021000 @ rcc
  85 011c 4FF00111 		ldr r1, = 0x10001
  86 0120 0160     		str r1, [r0]
  87              	__denghse:
  88 0122 0168     		ldr r1, [r0]
  89 0124 8903     		lsls r1, r1, # 14
  90 0126 FCD5     		bpl __denghse
  91              	__dengpllguan:
  92 0128 0168     		ldr r1, [r0]
  93 012a 8901     		lsls r1, r1, # 6
  94 012c FCD4     		bmi __dengpllguan
  95 012e DFF8B814 		ldr r1, = 0x390002
  96 0132 0046     		mov r0, r0
  97 0134 4160     		str r1, [r0, # 0x04]
  98 0136 0046     		mov r0, r0
  99 0138 DFF8B014 		ldr r1, = 0x1010000
 100 013c 0046     		mov r0, r0
 101 013e 0160     		str r1, [r0]
 102              	
 103              	__dengpll:
 104 0140 0168     		ldr r1, [r0]
 105 0142 8901     		lsls r1, # 6
 106 0144 FCD5     		bpl __dengpll
 107              	__waishe_shizhong:
 108              	@@@@@@@@@@@@@@@@@@@@@@@@@@@@@@@@@@@@@@@@@@@@@@@@@@@@@@@@@@@@@@@@@@@@@@@@@
 109              		@外设时钟
 110              		@rcc_ahbpclken  0x40021014
 111              		@0=dma,2=sram,4=flitf,6=crc,7=pa,8=pb,9=pc,10=pd,12=adc
 112              		@rcc_apb2pclken 0x40021018
 113              		@0=afio,1=beeper,11=tim1,12=spi1,13=tim8,14=usart1,17=uart3,19=spi2
 114              		@rcc_apb1pclken 0x4002101c
ARM GAS  1.s 			page 3


 115              		@0=tim2,1=tim3,2=tim4,3=tim5,4=tim6,6=comp,7=compfilt,11wwdg,
 116              		@17=usart2,21=i2c1,22=i2c2,25=can,28=pwr
 117              	@@@@@@@@@@@@@@@@@@@@@@@@@@@@@@@@@@@@@@@@@@@@@@@@@@@@@@@@@@@@@@@@@@@@@@@@@@
 118 0146 41F29571 		movw r1, # 0x1795
 119 014a 4161     		str r1, [r0, # 0x14]
 120 014c 41F60001 		movw r1, # 0x1800
 121 0150 8161     		str r1, [r0, # 0x18]
 122 0152 0221     		movs r1, # 0x02
 123 0154 C161     		str r1, [r0, # 0x1c]
 124 0156 43F60041 		movw r1, # 0x3c00
 125 015a C162     		str r1, [r0, # 0x2c]
 126 015c 0121     		movs r1, # 0x01
 127 015e C0F88010 		str r1, [r0, # 0x80]
 128              	
 129              	_waishezhongduan:			@外设中断
 130              		@0xE000E100    0-31  写1开，写0没效
 131              		@0XE000E180    0-31 写1关，写0没效
 132              		@0XE000E200    0-31 挂起，写0没效
 133              		@0XE000E280    0-31 清除， 写0没效
 134 0162 DFF88C04 		ldr r0, =  0xe000e100
 135 0166 4FF08051 		ldr r1, = 0x10000000
 136 016a 0160     		str r1, [r0]
 137              	
 138              	_neicunqingling:
 139 016c DFF88404 		ldr r0, = 0x20004000
 140 0170 4FF00052 		ldr r2, = 0x20000000
 141 0174 0021     		movs r1, # 0
 142              	_neicunqinglingxunhuan:
 143 0176 0438     		subs r0, r0, # 4
 144 0178 0160     		str r1, [r0]
 145 017a 9042     		cmp r0, r2
 146 017c FBD1     		bne _neicunqinglingxunhuan
 147              	
 148              		
 149              	__io_shezhi:
 150              	@@@@@@@@@@@@@@@@@@@@@@@@@@@@@@@@@@@@@@@@@@@@@@@@@@@@@@@@@@@@@@@@@@@@@@@@@@@
 151              		@   pa=0x40023400,    pb=0x40023800,  pc=0x40023c00,  pd=0x40024000
 152              	        @0x00 端口模式寄存器(GPIOx_PMODE)
 153              		@寄存器复位值
 154              		@pa=0xabffffff  pb= 0xfffffebf  pc= 0xfc000000   pd=0xff000000
 155              		@00=输入模式，01=通用输出模式，10=复用功能模式，11模拟功能模式
 156              		@0x04 端口类型定义寄存器(GPIOx_POTYPE) 复位值0
 157              		@ 0=推挽输出，1=开漏输出
 158              		@0x08 翻转率配置寄存器(GPIOx_SR)
 159              		@复位值，PA=0XFFFF，PB=0XFFFF，PC=0XE000,PD=0XF001
 160              		@0=快速，1=慢速
 161              		@0x0c 端口上下拉寄存器(GPIOx_PUPD)
 162              		@寄存器复位值
 163              		@pa=0x64000000,pb=0x100,pc=0,pd=0x02
 164              		@00=无上拉下拉，01=上拉，10=下拉
 165              		@0x10 端口输入数据寄存器(GPIOx_PID)
 166              		@0x14 端口输出数据寄存器(GPIOx_POD)
 167              		@0x18 GPIO 端口位设置/清除寄存器(GPIOx_PBSC)
 168              		@高16位 pbcy = 1 IO低,  低16位 pbsy = 1 IO高
 169              		@0x1c 端口锁定配置寄存器(GPIOx_PLOCK)
 170              		@高16 PLOCKK=1端口配置锁键位被激活
 171              		@低16 PLOCKY=1锁定端口的配置
ARM GAS  1.s 			page 4


 172              		@0x20 复用功能低配置寄存器(GPIOx_AFL)
 173              		@0x24复用功能高配置寄存器(GPIOx_AFH)
 174              		@af0=0000,af1=0001,af2=0010,af3=0011...................
 175              		@0x28 端口位清除寄存器(GPIOx_PBC)
 176              		@pbcy=1 清除对应的 PODy 位为 0
 177              		@0x2c 驱动能力配置寄存器(GPIOx_DS)
 178              		@复位值
 179              		@PA=0X55555555,PB=0X55555555,PC=0X54000000,PD=0X55000001
 180              		@00=2mA,01=8mA,10=4mA,11=12mA
 181              		@@@@@@@@@@@@@@@@@@@@@@@@@@@@@@@@@@@@@@@@@@@@@@@@@@@@@@@@@@@@@@@@@@@@@@@@@@@@@@@@@@
 182              		@PA
 183 017e DFF87804 		ldr r0, = 0x40023400
 184 0182 DFF87814 		ldr r1, = 0x6bfafffd
 185 0186 0160     		str r1, [r0]
 186 0188 4FF6FF61 		movw r1, # 0xfeff
 187 018c 8160     		str r1, [r0, # 0x08]
 188 018e 4FF01051 		ldr r1, = 0x24000000
 189 0192 C160     		str r1, [r0, # 0x0c]
 190 0194 4FF03301 		ldr r1, = 0x33
 191 0198 4162     		str r1, [r0, # 0x24]
 192              		@PB
 193 019a DFF86404 		ldr r0, = 0x40023800
 194 019e DFF86414 		ldr r1, = 0xebfff9bf
 195 01a2 0160     		str r1, [r0]
 196 01a4 0021     		movs r1, # 0
 197 01a6 C160     		str r1, [r0, # 0x0c]
 198 01a8 4FF48111 		ldr r1, = 0x102000
 199 01ac 0162     		str r1, [r0, # 0x20]
 200 01ae 4FF04C71 		ldr r1, = 0x3300000
 201 01b2 4162     		str r1, [r0, # 0x24]
 202              	
 203              	__dma_chushihua:
 204 01b4 DFF85004 		ldr r0, = 0x40020000
 205 01b8 0021     	        movs r1, # 0
 206 01ba 8160     		str r1, [r0, # 0x08]
 207 01bc DFF84C14 		ldr r1, = 0x4002084c
 208 01c0 0161     		str r1, [r0, # 0x10]
 209 01c2 DFF84C14 		ldr r1, = dianyabiao
 210 01c6 4161     		str r1, [r0, # 0x14]
 211 01c8 4FF4C871 		ldr r1, = 400			@采样数量	sl
 212 01cc C160     		str r1, [r0, # 0x0c]
 213 01ce 43F28151 		movw r1, # 0x3581 			@0x3581(单次)，0x35a1(循环) 
 214 01d2 8160     		str r1, [r0, # 0x08]
 215              			
 216              	__adc_chushihua:
 217 01d4 DFF83C04 		ldr r0, = 0x40020800
 218 01d8 4FF00501 		ldr r1, =  0x05
 219 01dc 8160     		str r1, [r0, # 0x08]		@开ADC和校准
 220              	__deng_adc_jiaozhun:	
 221 01de 8168     		ldr r1, [r0, # 0x08]
 222 01e0 4907     		lsls r1, r1, # 29
 223 01e2 FCD4     		bmi __deng_adc_jiaozhun		@等ADC校准
 224              	__deng_adc_zhunbeihao:
 225 01e4 816D     		ldr r1, [r0, # 0x58]
 226 01e6 8906     		lsls r1, r1, # 26
 227 01e8 FCD5     		bpl __deng_adc_zhunbeihao	@等ADC准备好
 228              	@	ldr r1, = 0x100000
ARM GAS  1.s 			page 5


 229              	@	str r1, [r0, # 0x2c]		@几个通道循环
 230 01ea 0421     		movs r1, # 0x04			@通道选择
 231 01ec 4163     		str r1, [r0, # 0x34]  		
 232              	@	movw r1, # 0x100
 233              	@	str r1, [r0, # 0x04]		@通道循环采
 234 01ee DFF82814 		ldr r1, = 0x180101
 235 01f2 8160     		str r1, [r0, # 0x08]
 236 01f4 8160     	        str r1, [r0, # 0x08]		@为啥还要开两次。。。
 237              	
 238              	
 239              	@       ldr r0, = 0xe000e010
 240              	@	ldr r1, = 6399
 241              	@	str r1, [r0, # 4]
 242              	@	str r1, [r0, # 8]
 243              	@	movs r1, # 0x07
 244              	@	str r1, [r0]    @systick 开
 245              	
 246              		
 247              	__tim3chushihua:
 248 01f6 DFF82434 		ldr r3, = 0x40000400 @ tim3_cr1
 249 01fa 4FF00002 		ldr r2, = 0
 250 01fe 9A62     		str r2, [r3, # 0x28] @ psc
 251 0200 41F6FF02 		ldr r2, = 6399                    @639=200KHZ
 252 0204 DA62     		str r2, [r3, # 0x2c] @ ARR
 253 0206 2022     		movs r2, # 0x20
 254 0208 5A60     		str r2, [r3, # 0x04] @ TRGO
 255 020a 0122     		movs r2, # 0x01
 256 020c DA60     		str r2, [r3, # 0x0c]
 257 020e 8122     		movs r2, # 0x81
 258              	__tim1_chushiha:
 259 0210 DFF80C04 		ldr r0, = 0x40012c00 @ tim1_cr1
 260 0214 0021     		movs r1, # 0
 261 0216 8162     		str r1, [r0, # 0x28] @ psc
 262 0218 41F6FF01 		ldr r1, = 6399
 263 021c C162     		str r1, [r0, # 0x2c] @ ARR
 264 021e 46F66801 		ldr r1, = 0x6868
 265 0222 8161     		str r1, [r0, # 0x18]   
 266 0224 4FF0DD01 		ldr r1, = 0xdd    
 267 0228 0162     		str r1, [r0, # 0x20] @ ccer
 268 022a 4FF40041 		ldr r1, = 0x8000
 269 022e 4164     		str r1, [r0, # 0x44] @ BDTR
 270 0230 4FF08101 		ldr r1, = 0x81
 271 0234 0160     		str r1, [r0]
 272 0236 1A60     		str r2, [r3]
 273              	
 274              	
 275              	__spi_chushihua:
 276 0238 FA48     		ldr r0, = 0x40013000	
 277 023a 44F26C31 		movw r1, # 0x436c
 278 023e 0160     		str r1, [r0]
 279              	
 280              	__lcd_chushihua:
 281 0240 F948     		ldr r0,  = 0x40023418
 282 0242 48F20001 		movw r1, # 0x8000
 283 0246 0160     		str r1, [r0]		@RST=1
 284 0248 F84A     		ldr r2, = 0x1ffff
 285 024a 00F0DCF8 		bl __lcd_yanshi
ARM GAS  1.s 			page 6


 286              		
 287 024e 0904     		lsls r1, r1, # 16
 288 0250 0160     		str r1, [r0]		@RST=0
 289 0252 F64A     		ldr r2, = 0x1ffff
 290 0254 00F0D7F8 		bl __lcd_yanshi
 291              		
 292 0258 090C     		lsrs r1, r1, # 16
 293 025a 0160     		str r1, [r0]		@RST=1
 294 025c F34A     		ldr r2, = 0x1ffff
 295 025e 00F0D2F8 		bl __lcd_yanshi
 296              	
 297 0262 F348     		ldr r0, = 0x40023818
 298 0264 1021     		movs r1, # 0x10
 299 0266 0904     		lsls r1, r1, # 16
 300 0268 0160     		str r1, [r0]		@RS=0
 301 026a F04A     		ldr r2, = 0x1ffff
 302 026c 00F0CBF8 		bl __lcd_yanshi
 303              	
 304 0270 A220     		movs r0, # 0xa2		@ 偏置选择
 305 0272 00F092F8 		bl __xie_spi1
 306 0276 A020     		movs r0, # 0xa0		@SEG方向（横 0=0到131，1=131到0）
 307 0278 00F08FF8 		bl __xie_spi1
 308 027c C820     		movs r0, # 0xc8		@选择COM方向（竖 0=0到63, 1=63到1）
 309 027e 00F08CF8 		bl __xie_spi1
 310 0282 2F20     		movs r0, # 0x2f		@选择调节率
 311 0284 00F089F8 		bl __xie_spi1
 312 0288 8120     		movs r0, # 0x81		@设置EV命令
 313 028a 00F086F8 		bl __xie_spi1
 314 028e 3020     		movs r0, # 0x30		@设置EV（0x00-0x3f 对比度）
 315 0290 00F083F8 		bl __xie_spi1
 316 0294 2F20     		movs r0, # 0x2f		@助推器开启
 317 0296 00F080F8 		bl __xie_spi1		@调节器开、追踪器开
 318 029a AF20     		movs r0, # 0xaf		@显示开
 319 029c 00F07DF8 		bl __xie_spi1
 320              	
 321              	
 322              	
 323              		
 324 02a0 00F0B4F8 		bl __lcd_qingping
 325              	
 326              	
 327              	
 328              	
 329              	
 330              	adc:
 331 02a4 DB48     		ldr r0, = 0x40020800
 332 02a6 B0F84C00 		ldrh r0, [r0, # 0x4c]
 333 02aa 0821     	        movs r1, # 8
 334 02ac E14A     		ldr r2, = asciibiao
 335 02ae FF23     		movs r3, # 0xff
 336 02b0 00F01AF9 		bl _zhuanascii
 337 02b4 0820     		movs r0, # 8            @写几个字
 338 02b6 3021     		movs r1, # 48           @字库单字长度
 339 02b8 0322     		movs r2, # 3            @宽度
 340 02ba DF4B     		ldr r3, =  0x100b2              @lcd位置
 341 02bc 00F0EEF8 		bl __xie_lcd_ascii
 342              		
ARM GAS  1.s 			page 7


 343              		
 344 02c0 F0E7     		b adc
 345              	
 346              	
 347              		
 348 02c2 DE48     		ldr r0, = 0x20000100
 349 02c4 0021     		movs r1, # 0
 350 02c6 0160     		str r1, [r0]
 351              	__ting:
 352 02c8 D748     		ldr r0, = 0x40023418
 353 02ca 0122     		movs r2, # 0x01
 354 02cc 1346     		mov r3, r2
 355 02ce 0260     		str r2, [r0] @开
 356 02d0 1B04     		lsls r3, r3,  # 16
 357 02d2 6FF07F41 		ldr r1, = 0xffffff
 358              	__led_kai_yanshi:
 359 02d6 0139     		subs r1, r1, # 1
 360 02d8 FDD1     		bne __led_kai_yanshi
 361 02da 6FF07F41 		ldr r1, = 0xffffff
 362 02de 0360     		str r3, [r0] @关
 363              	__led_guan_yanshi:
 364 02e0 0139     		subs r1, r1, # 1
 365 02e2 FDD1     		bne __led_guan_yanshi
 366 02e4 00F001F8 		bl __jishu_shiyan
 367 02e8 EEE7     		b __ting
 368              		
 369              	__jishu_shiyan:
 370 02ea 1FB5     		push {r0-r4,lr}
 371 02ec D44C     		ldr r4, = 12345678
 372 02ee D34B     	        ldr r3, = 0x20000100
 373 02f0 1868     		ldr r0, [r3]
 374 02f2 0130     		adds r0, r0, # 1
 375 02f4 1860     		str r0, [r3]
 376 02f6 A042     		cmp r0, r4
 377 02f8 01D1     		bne __xianshi_shuzi
 378 02fa 0020     		movs r0, # 0
 379 02fc 1860     		str r0, [r3]
 380              	__xianshi_shuzi:	
 381 02fe 0821     		movs r1, # 8
 382 0300 CC4A     		ldr r2, = asciibiao
 383 0302 FF23     		movs r3, # 0xff
 384 0304 00F0F0F8 		bl _zhuanascii
 385 0308 0820     		movs r0, # 8            @写几个字
 386 030a 3021     		movs r1, # 48           @字库单字长度
 387 030c 0322     		movs r2, # 3            @宽度
 388 030e CA4B     		ldr r3, =  0x100b2              @lcd位置
 389 0310 00F0C4F8 		bl __xie_lcd_ascii
 390 0314 1FBD     		pop {r0-r4,pc}
 391              	
 392              		
 393              	
 394              	__dft_jisuan:
 395              		@出口R0=实部，R1=虚部
 396 0316 2DE9FC5F 		push {r2-r12,lr}
 397 031a CA48     		ldr r0, = sp_zhizhen
 398 031c C0F800D0 		str sp, [r0]
 399              	@	ldr sp, = cos_sin
ARM GAS  1.s 			page 8


 400 0320 DFF8ECC2 		ldr r12, = dianyabiao          @dianyabiao
 401 0324 5FF0000A 		movs r10, # 0
 402 0328 5FF0000B 		movs r11, # 0
 403              	__dft_xunhuan:
 404              		@0 (4 ge)
 405 032c BDE8FC03 		pop {r2-r9}
 406 0330 BCE80300 		ldmia r12!, {r0-r1}
 407 0334 8646     		mov lr, r0
 408 0336 5FEA1E4E 		lsrs lr, lr, # 16
 409 033a 0004     		lsls r0, r0, # 16
 410 033c 000C     		lsrs r0, r0, # 16
 411 033e 02FB0EF2 		mul r2, r2, lr
 412 0342 03FB0EF3 		mul r3, r3, lr
 413 0346 04FB00F4 		mul r4, r4, r0
 414 034a 05FB00F5 		mul r5, r5, r0
 415 034e 8E46     		mov lr, r1
 416 0350 5FEA1E4E 		lsrs lr, lr, # 16
 417 0354 0904     		lsls r1, r1, # 16
 418 0356 090C     		lsrs r1, r1, # 16
 419 0358 06FB0EF6 		mul r6, r6, lr
 420 035c 07FB0EF7 		mul r7, r7, lr
 421 0360 08FB01F8 		mul r8, r8, r1
 422 0364 09FB01F9 		mul r9, r9, r1
 423 0368 9211     		asrs r2, r2, # 6
 424 036a 9B11     		asrs r3, r3, # 6
 425 036c A411     		asrs r4, r4, # 6
 426 036e AD11     		asrs r5, r5, # 6
 427 0370 B611     		asrs r6, r6, # 6
 428 0372 BF11     		asrs r7, r7, # 6
 429 0374 5FEAA818 		asrs r8, r8, # 6
 430 0378 5FEAA919 		asrs r9, r9, # 6
 431 037c 9244     		add r10, r10, r2
 432 037e A244     		add r10, r10, r4
 433 0380 B244     		add r10, r10, r6
 434 0382 C244     		add r10, r10, r8
 435 0384 9B44     		add r11, r11, r3
 436 0386 AB44     		add r11, r11, r5
 437 0388 BB44     		add r11, r11, r7
 438 038a CB44     		add r11, r11, r9
 439 038c 5046     		mov r0, r10
 440 038e 5946     		mov r1, r11
 441 0390 AC4A     		ldr r2, = sp_zhizhen
 442 0392 D2F800D0 		ldr sp, [r2]
 443 0396 BDE8FC9F 		pop {r2-r12,pc}
 444              		
 445              	__xie_spi1:
 446 039a 30B5     		push {r4-r5,lr}
 447 039c A14C     		ldr r4, = 0x40013000
 448 039e 00F006F8 		bl __spi_mang
 449 03a2 2073     		strb r0, [r4,0x0c]
 450 03a4 40F2FF34 		ldr r4, = 0x3ff
 451              	__xie_spi1_yanshi:
 452 03a8 013C     		subs r4, r4, # 1
 453 03aa FDD1     		bne __xie_spi1_yanshi
 454 03ac 30BD     		pop {r4-r5,pc}
 455              		
 456              	__spi_mang:
ARM GAS  1.s 			page 9


 457 03ae A568     		ldr r5, [r4,0x08]
 458 03b0 2D06     		lsls r5, r5, # 24
 459 03b2 FCD4     		bmi __spi_mang
 460 03b4 7047     		bx lr
 461              	
 462              	__xie_lcd_ye:
 463              		@入口R0=数据首地址
 464 03b6 1EB5     		push {r1-r4,lr}
 465 03b8 B023     		movs r3, # 0xb0
 466 03ba 013B     		subs r3, r3, # 1
 467 03bc 0446     		mov r4, r0
 468              	__ye_jia:
 469 03be 9C48     		ldr r0, = 0x40023818
 470 03c0 1021     		movs r1, # 0x10
 471 03c2 0904     		lsls r1, r1, # 16
 472 03c4 0160     		str r1, [r0]            @RS=0
 473 03c6 4FF0FF02 		ldr r2, = 0xff
 474 03ca 00F01CF8 		bl __lcd_yanshi
 475 03ce 0133     		adds r3, r3, # 1
 476 03d0 B92B     		cmp r3, # 0xb9
 477 03d2 00D1     		bne __xie_ye_dizhi
 478 03d4 1EBD     		pop {r1-r4,pc}
 479              		@       movs r3, # 0xb0
 480              		@       mvns r4, r4
 481              		@       lsls r4, r4, # 24
 482              		@       lsrs r4, r4, # 24
 483              	__xie_ye_dizhi:
 484 03d6 1020     		movs r0, # 0x10
 485 03d8 FFF7DFFF 		bl __xie_spi1
 486 03dc 0020     		movs r0, # 0
 487 03de FFF7DCFF 		bl __xie_spi1
 488 03e2 1846     		mov r0, r3
 489 03e4 FFF7D9FF 		bl __xie_spi1
 490              	
 491 03e8 9148     		ldr r0, = 0x40023818
 492 03ea 1021     		movs r1, # 0x10
 493 03ec 0160     		str r1, [r0]            @RS=1
 494 03ee 4FF0FF02 		ldr r2, = 0xff
 495 03f2 00F008F8 		bl __lcd_yanshi
 496              	
 497 03f6 8421     		movs r1, # 132
 498              	__heng_sao:
 499 03f8 2078     		ldrb r0, [r4]
 500              		@       mov r0, r4
 501 03fa FFF7CEFF 		bl __xie_spi1
 502 03fe 0134     		adds r4, r4, # 1
 503 0400 0139     		subs r1, r1, # 1
 504 0402 F9D1     		bne __heng_sao
 505 0404 DBE7     		b __ye_jia
 506              	__lcd_yanshi:
 507 0406 013A     		subs r2, r2, # 1
 508 0408 FDD1     		bne __lcd_yanshi
 509 040a 7047     		bx lr
 510              		
 511              	__lcd_qingping:
 512 040c 1FB5     		push {r0-r4,lr}
 513 040e B023     		movs r3, # 0xb0
ARM GAS  1.s 			page 10


 514 0410 013B     		subs r3, r3, # 1
 515 0412 4FF00004 		mov r4, # 0
 516              	__ye_jia1:
 517 0416 8648     		ldr r0, = 0x40023818
 518 0418 1021     		movs r1, # 0x10
 519 041a 0904     		lsls r1, r1, # 16
 520 041c 0160     		str r1, [r0]            @RS=0
 521 041e 4FF0FF02 		ldr r2, = 0xff
 522 0422 FFF7F0FF 		bl __lcd_yanshi
 523 0426 0133     		adds r3, r3, # 1
 524 0428 B92B     		cmp r3, # 0xb9
 525 042a 00D1     		bne __xie_ye_dizhi1
 526 042c 1FBD     		pop {r0-r4,pc}
 527              	__xie_ye_dizhi1:
 528 042e 1020     		movs r0, # 0x10
 529 0430 FFF7B3FF 		bl __xie_spi1
 530 0434 0020     		movs r0, # 0
 531 0436 FFF7B0FF 		bl __xie_spi1
 532 043a 1846     		mov r0, r3
 533 043c FFF7ADFF 		bl __xie_spi1
 534              	
 535 0440 7B48     		ldr r0, = 0x40023818
 536 0442 1021     		movs r1, # 0x10
 537 0444 0160     		str r1, [r0]            @RS=1
 538 0446 4FF0FF02 		ldr r2, = 0xff
 539 044a FFF7DCFF 		bl __lcd_yanshi
 540 044e 8421     		movs r1, # 132
 541              	__heng_sao1:
 542 0450 2046     		mov r0, r4
 543 0452 FFF7A2FF 		bl __xie_spi1
 544 0456 0139     		subs r1, r1, # 1
 545 0458 FAD1     		bne __heng_sao1
 546 045a DCE7     		b __ye_jia1
 547              	
 548              		
 549              	__xie_lcd_weizhi:
 550              		@入口R0=要写的地址(低16=X，高16=Y=（0-131(r5=高4,R4=低4))
 551 045c 3EB5     		push {r1-r5,lr}
 552 045e 0546     		mov r5, r0
 553 0460 0446     		mov r4, r0
 554 0462 0004     		lsls r0, r0, # 16
 555 0464 000C     		lsrs r0, r0, # 16
 556 0466 2D0D     		lsrs r5, r5, # 20	@高4
 557 0468 2403     		lsls r4, r4, # 12
 558 046a 240F     		lsrs r4, r4, # 28
 559 046c 7049     	        ldr r1, = 0x40023818
 560 046e 1023     		movs r3, # 0x10
 561 0470 1B04     		lsls r3, r3, # 16
 562 0472 0B60     		str r3, [r1]            @RS=0
 563 0474 4FF0FF02 		ldr r2, = 0xff
 564 0478 FFF7C5FF 		bl __lcd_yanshi
 565 047c FFF78DFF 		bl __xie_spi1
 566              		
 567 0480 1020     		movs r0, # 0x10
 568 0482 2843     		orrs r0, r0, r5
 569 0484 FFF789FF 		bl __xie_spi1
 570              		
ARM GAS  1.s 			page 11


 571 0488 2046     		mov r0, r4
 572 048a FFF786FF 		bl __xie_spi1
 573 048e 1023     		movs r3, # 0x10
 574 0490 0B60     		str r3, [r1]            @RS=1
 575 0492 4FF0FF02 		ldr r2, = 0xff
 576 0496 FFF7B6FF 		bl __lcd_yanshi
 577 049a 3EBD     		pop {r1-r5,pc}
 578              	
 579              	
 580              	__xie_lcd_ascii:
 581 049c 2DE9F04F 		push {r4-r11,lr}
 582              		@入口r0=写几个字
 583              		@r1=字库单字长度
 584              		@r2=y宽（几行）
 585              		@r3=要写的地址
 586 04a0 644D     		ldr r5, = asciibiao
 587 04a2 9946     		mov r9, r3
 588 04a4 0026     		movs r6, # 0
 589 04a6 3746     		mov r7, r6
 590 04a8 8246     		mov r10, r0
 591 04aa 9346     		mov r11, r2	
 592 04ac 4A43     		muls r2, r2, r1
 593 04ae 9046     		mov r8, r2
 594              	__xie_lcd_dizhi:
 595 04b0 4846     		mov r0, r9
 596 04b2 FFF7D3FF 		bl __xie_lcd_weizhi
 597              	__du_ascii:
 598 04b6 A85D     		ldrb r0, [r5, r6]
 599              					@subs r0, r0, # 32	@字库偏移
 600 04b8 4843     		muls r0, r0, r1
 601 04ba 634B     		ldr r3, = da_a_labo_shuzi
 602 04bc 0344     		add r3, r3, r0
 603 04be DB19     		adds r3, r3, r7
 604              	__du_ziku_16_chushihua:
 605 04c0 0024     		movs r4, # 0
 606              	__du_ziku_16:
 607 04c2 185D     		ldrb r0, [r3, r4]
 608 04c4 0334     		adds r4, r4, # 3
 609 04c6 8C42     		cmp r4, r1
 610 04c8 03D0     		beq __duwan_16
 611 04ca FFF766FF 		bl __xie_spi1
 612 04ce 0046     		mov r0, r0
 613 04d0 F7E7     		b __du_ziku_16
 614              	__duwan_16:
 615 04d2 0136     		adds r6, r6, # 1
 616 04d4 5645     		cmp r6, r10
 617 04d6 EED1     		bne __du_ascii
 618 04d8 0026     		movs r6, # 0
 619 04da 0137     		adds r7, r7, # 1	@字库地址偏移
 620 04dc 19F10109 		adds r9, r9, # 1	@Y偏移
 621 04e0 5F45     		cmp r7, r11	
 622 04e2 E5D1     		bne __xie_lcd_dizhi
 623 04e4 BDE8F08F 		pop {r4-r11,pc}
 624              	_zhuanascii:							@ 16进制转ASCII
 625              		@ R0要转的数据， R1长度，R2结果表首地址, r3=小数点位置
 626 04e8 F0B5     		push {r4-r7,lr}
 627 04ea 1F46     		mov r7, r3
ARM GAS  1.s 			page 12


 628 04ec 0546     		mov r5, r0
 629 04ee 0E46     		mov r6, r1
 630 04f0 0A21     		movs r1, # 10
 631              	_xunhuanqiuma:
 632 04f2 B0FBF1F0 		udiv r0, r0, r1
 633 04f6 0446     		mov r4, r0
 634 04f8 4C43     		muls r4, r1
 635 04fa 2B1B     		subs r3, r5, r4
 636              	@	adds r3, r3, # 0x30	@ascii偏移
 637 04fc 0546     		mov r5, r0
 638 04fe 013E     		subs r6, r6, # 1
 639 0500 08D0     		beq _qiumafanhui
 640 0502 BE42     		cmp r6, r7
 641 0504 02D1     		bne _meidaoxiaoshudian
 642 0506 2E24     		movs r4, # 0x2e		@小数点
 643 0508 9455     		strb r4, [r2,r6]	@插入小数点
 644 050a 013E     		subs r6, r6, # 1
 645              	_meidaoxiaoshudian:
 646 050c 9355     		strb r3, [r2,r6]
 647 050e 3600     		movs r6, r6
 648 0510 EFD1     		bne _xunhuanqiuma
 649 0512 F0BD     		pop {r4-r7,pc}
 650              	_qiumafanhui:
 651 0514 9355     		strb r3, [r2, r6]
 652 0516 F0BD     		pop {r4-r7,pc}
 653              	
 654              	__suan_atan2:
 655              		@入口R0=实部，R1=虚部
 656              		@出口R0=角度
 657 0518 7CB5     		push {r2-r6,lr}
 658 051a 4C4E     		ldr r6, = atan_biao
 659 051c 0022     		movs r2, # 0
 660 051e 1346     		mov r3, r2
 661 0520 0000     		movs r0, r0
 662 0522 05D5     		bpl __panduan_xubu
 663 0524 4FF4B402 		ldr r2, = 5898240
 664 0528 C043     		mvns r0, r0
 665 052a C943     		mvns r1, r1
 666 052c 0130     		adds r0, r0, # 1
 667 052e 0131     		adds r1, r1, # 1
 668              	__panduan_xubu:
 669 0530 0900     		movs r1, r1
 670 0532 01D5     		bpl __suan_atan2_xunhuan
 671 0534 4FF43402 		ldr r2, = 11796480
 672              	__suan_atan2_xunhuan:
 673 0538 0900     		movs r1, r1
 674 053a 0AD5     		bpl __atan2_zhengzhuan
 675 053c 0446     		mov r4, r0	@x
 676 053e 0D46     		mov r5, r1	@y
 677 0540 1D41     		asrs r5, r5, r3
 678 0542 1C41     		asrs r4, r4, r3
 679 0544 401B     		subs r0, r0, r5
 680 0546 0919     		adds r1, r1, r4
 681 0548 1C46     		mov r4, r3
 682 054a A400     		lsls r4, r4, # 2
 683 054c 3459     		ldr r4, [r6, r4]
 684 054e 121B     		subs r2, r2, r4
ARM GAS  1.s 			page 13


 685 0550 09E0     		b __atan2_xuanzhuan
 686              	__atan2_zhengzhuan:
 687 0552 0446     		mov r4, r0	@x
 688 0554 0D46     		mov r5, r1	@y
 689 0556 1D41     		asrs r5, r5, r3
 690 0558 1C41     		asrs r4, r4, r3
 691 055a 4019     		adds r0, r0, r5
 692 055c 091B     		subs r1, r1, r4
 693 055e 1C46     		mov r4, r3
 694 0560 A400     		lsls r4, r4, # 2
 695 0562 3459     		ldr r4, [r6, r4]
 696 0564 1219     		adds r2, r2, r4
 697              	__atan2_xuanzhuan:
 698 0566 0133     		adds r3, r3, # 1
 699 0568 152B     		cmp r3, # 21
 700 056a E5D1     		bne __suan_atan2_xunhuan
 701 056c 0146     		mov r1, r0
 702 056e 1046     		mov r0,r2
 703 0570 7CBD     		pop {r2-r6,pc}
 704              	_nmi_handler:	
 705              	_hard_fault:	
 706              	_memory_fault:	
 707              	_bus_fault:	
 708              	_usage_fault:
 709              	aaa:
 710 0572 7047     		bx lr
 711              	__systick_zhongduan:				@syzd
 712 0574 2DE9FF5F 		push {r0-r12,lr}
 713              	
 714              	__systick_fanhui:
 715 0578 1460     		str r4, [r2]
 716 057a 3548     		ldr r0, = 0xe0000d04
 717 057c 4FF00071 		ldr r1, = 0x02000000
 718 0580 0160     		str r1, [r0]                 @ 清除SYSTICK中断
 719 0582 BDE8FF9F 		pop {r0-r12,pc}
 720              	_tim3:
 721 0586 2DE9FF5F 		push {r0-r12,lr}
 722 058a 3248     		ldr r0, = spwm_zhizhen
 723 058c 2049     		ldr r1, = dianyabiao
 724 058e 0268     		ldr r2, [r0]
 725 0590 8B5A     		ldrh r3, [r1, r2]
 726 0592 40F22037 		movw r7, # 800
 727 0596 0232     		adds r2, r2, # 2
 728 0598 BA42     		cmp r2, r7
 729 059a 00D9     		bls __du_ch2
 730 059c 0022     		movs r2, # 0
 731              	__du_ch2:
 732 059e 0260     		str r2, [r0]
 733 05a0 40F29018 		movw r8, # 400
 734 05a4 12EB0802 		adds r2, r2, r8
 735 05a8 BA42     		cmp r2, r7
 736 05aa 00D9     		bls __xieru_spwm
 737 05ac D21B     		subs r2, r2, r7
 738              	__xieru_spwm:
 739 05ae 31F80280 		ldrh r8, [r1, r2]
 740 05b2 294E     		ldr r6, = 0x40012c34
 741 05b4 0824     		movs r4, # 8
ARM GAS  1.s 			page 14


 742 05b6 41F6FF05 		movw r5, # 6399
 743 05ba 03FB04F3 		mul r3, r3, r4
 744 05be 08FB04F8 		mul r8, r8, r4
 745 05c2 03FB05F3 		mul r3, r3, r5
 746 05c6 08FB05F8 		mul r8, r8, r5
 747 05ca DB0B     		lsrs r3, r3, # 15
 748 05cc 5FEAD838 		lsrs r8, r8, # 15
 749 05d0 3360     		str r3, [r6]
 750 05d2 C6F80480 		str r8, [r6, # 0x04]
 751 05d6 1148     	        ldr r0, = 0x40000400
 752 05d8 0021     		movs r1, # 0
 753 05da 0161     		str r1, [r0, # 0x10]
 754 05dc BDE8FF9F 		pop {r0-r12,pc}
 755              		
 756 05e0 00200240 		.ltorg
 756      00100240 
 756      02003900 
 756      00000101 
 756      00E100E0 
 757              		.section .data
 758              		.equ STACHINIT,         0x20004000      @堆栈顶
 759              		.equ asciibiao,		0x20000000	@ASCII表
 760              		.equ spwm_zhizhen,	0x200001e8	@spwm表指针
 761              		.equ dianya_jiaodu,	0x200001ec	@电压角度
 762              		.equ cos_zhizhen,	0x200001f8	@COS 指针
 763              		.equ sp_zhizhen,	0x200001fc	@堆栈指针
 764              		.equ dianyabiao,	0x20000200	@电压表
 765              		.equ cos_biao,		0x20000300	@cos_表
 766              		.align 4
 767              	
 768              	atan_biao:		@角度
 769 0000 00801600 		.int 0x00168000,0x000D4853,0x000704A3,0x00039000,0x0001C9C5,0x0000E51B,0x00007295,0x0000394B,0x000
 769      53480D00 
 769      A3040700 
 769      00900300 
 769      C5C90100 
 770 0054 00000000 		.align 4
 770      00000000 
 770      00000000 
 771              	da_a_labo_shuzi:
 772 0060 00000080 		.byte 0x00, 0x00, 0x00, 0x80, 0xFF, 0x01, 0xE0, 0xFF, 0x07, 0xF8, 0xFF, 0x1F, 0x78, 0x00, 0x1E, 0x
 772      FF01E0FF 
 772      07F8FF1F 
 772      78001E1C 
 772      00380C00 
 773 0090 00000000 		.byte 0x00, 0x00, 0x00, 0x00, 0x00, 0x00, 0x00, 0x00, 0x00, 0x60, 0x00, 0x30, 0x60, 0x00, 0x30, 0x
 773      00000000 
 773      00600030 
 773      60003060 
 773      00307000 
 774 00c0 00000038 		.byte 0x00, 0x00, 0x00, 0x38, 0x00, 0x38, 0x18, 0x00, 0x3C, 0x1C, 0x00, 0x3E, 0x0C, 0x00, 0x37, 0x
 774      00381800 
 774      3C1C003E 
 774      0C00370C 
 774      80330CC0 
 775 00f0 00000000 		.byte 0x00, 0x00, 0x00, 0x00, 0x00, 0x1C, 0x38, 0x00, 0x18, 0x18, 0x00, 0x38, 0x1C, 0x00, 0x30, 0x
 775      001C3800 
ARM GAS  1.s 			page 15


 775      18180038 
 775      1C00300C 
 775      00300C0C 
 776 0120 00F00000 		.byte 0x00, 0xF0, 0x00, 0x00, 0xF8, 0x00, 0x00, 0xDC, 0x00, 0x00, 0xCE, 0x00, 0x00, 0xC7, 0x00, 0x
 776      F80000DC 
 776      0000CE00 
 776      00C700C0 
 776      C100E0C0 
 777 0150 00000000 		.byte 0x00, 0x00, 0x00, 0x00, 0x00, 0x1C, 0xFC, 0x07, 0x18, 0xFC, 0x07, 0x38, 0xFC, 0x07, 0x30, 0x
 777      001CFC07 
 777      18FC0738 
 777      FC07300C 
 777      06300C06 
 778 0180 00000000 		.byte 0x00, 0x00, 0x00, 0x00, 0xFE, 0x01, 0xC0, 0xFF, 0x07, 0xE0, 0xFF, 0x1F, 0xF0, 0x0C, 0x1E, 0x
 778      FE01C0FF 
 778      07E0FF1F 
 778      F00C1E38 
 778      04381806 
 779 01b0 0000000C 		.byte 0x00, 0x00, 0x00, 0x0C, 0x00, 0x00, 0x0C, 0x00, 0x00, 0x0C, 0x00, 0x20, 0x0C, 0x00, 0x38, 0x
 779      00000C00 
 779      000C0020 
 779      0C00380C 
 779      003E0CC0 
 780 01e0 00000000 		.byte 0x00, 0x00, 0x00, 0x00, 0xC0, 0x07, 0xE0, 0xE1, 0x0F, 0xF8, 0xF3, 0x1F, 0xF8, 0x3F, 0x1C, 0x
 780      C007E0E1 
 780      0FF8F31F 
 780      F83F1C1C 
 780      0F380C0E 
 781 0210 000000C0 		.byte 0x00, 0x00, 0x00, 0xC0, 0x0F, 0x00, 0xF0, 0x1F, 0x00, 0xF8, 0x3F, 0x38, 0x38, 0x78, 0x30, 0x
 781      0F00F01F 
 781      00F83F38 
 781      3878301C 
 781      70300C60 
 782              		
 783              	
 784              	
 785              		
ARM GAS  1.s 			page 16


DEFINED SYMBOLS
                 1.s:9      .text:0000000000000000 vectors
                            *ABS*:0000000020004000 STACHINIT
                 1.s:79     .text:0000000000000110 _start
                 1.s:704    .text:0000000000000572 _nmi_handler
                 1.s:705    .text:0000000000000572 _hard_fault
                 1.s:706    .text:0000000000000572 _memory_fault
                 1.s:707    .text:0000000000000572 _bus_fault
                 1.s:708    .text:0000000000000572 _usage_fault
                 1.s:709    .text:0000000000000572 aaa
                 1.s:711    .text:0000000000000574 __systick_zhongduan
                 1.s:720    .text:0000000000000586 _tim3
                 1.s:80     .text:0000000000000110 __shizhong
                            .text:0000000000000000 $d
                 1.s:81     .text:0000000000000110 $t
                 1.s:87     .text:0000000000000122 __denghse
                 1.s:91     .text:0000000000000128 __dengpllguan
                 1.s:103    .text:0000000000000140 __dengpll
                 1.s:107    .text:0000000000000146 __waishe_shizhong
                 1.s:129    .text:0000000000000162 _waishezhongduan
                 1.s:138    .text:000000000000016c _neicunqingling
                 1.s:142    .text:0000000000000176 _neicunqinglingxunhuan
                 1.s:149    .text:000000000000017e __io_shezhi
                 1.s:203    .text:00000000000001b4 __dma_chushihua
                            *ABS*:0000000020000200 dianyabiao
                 1.s:216    .text:00000000000001d4 __adc_chushihua
                 1.s:220    .text:00000000000001de __deng_adc_jiaozhun
                 1.s:224    .text:00000000000001e4 __deng_adc_zhunbeihao
                 1.s:247    .text:00000000000001f6 __tim3chushihua
                 1.s:258    .text:0000000000000210 __tim1_chushiha
                 1.s:275    .text:0000000000000238 __spi_chushihua
                 1.s:280    .text:0000000000000240 __lcd_chushihua
                 1.s:506    .text:0000000000000406 __lcd_yanshi
                 1.s:445    .text:000000000000039a __xie_spi1
                 1.s:511    .text:000000000000040c __lcd_qingping
                 1.s:330    .text:00000000000002a4 adc
                            *ABS*:0000000020000000 asciibiao
                 1.s:624    .text:00000000000004e8 _zhuanascii
                 1.s:580    .text:000000000000049c __xie_lcd_ascii
                 1.s:351    .text:00000000000002c8 __ting
                 1.s:358    .text:00000000000002d6 __led_kai_yanshi
                 1.s:363    .text:00000000000002e0 __led_guan_yanshi
                 1.s:369    .text:00000000000002ea __jishu_shiyan
                 1.s:380    .text:00000000000002fe __xianshi_shuzi
                 1.s:394    .text:0000000000000316 __dft_jisuan
                            *ABS*:00000000200001fc sp_zhizhen
                 1.s:403    .text:000000000000032c __dft_xunhuan
                 1.s:456    .text:00000000000003ae __spi_mang
                 1.s:451    .text:00000000000003a8 __xie_spi1_yanshi
                 1.s:462    .text:00000000000003b6 __xie_lcd_ye
                 1.s:468    .text:00000000000003be __ye_jia
                 1.s:483    .text:00000000000003d6 __xie_ye_dizhi
                 1.s:498    .text:00000000000003f8 __heng_sao
                 1.s:516    .text:0000000000000416 __ye_jia1
                 1.s:527    .text:000000000000042e __xie_ye_dizhi1
                 1.s:541    .text:0000000000000450 __heng_sao1
                 1.s:549    .text:000000000000045c __xie_lcd_weizhi
ARM GAS  1.s 			page 17


                 1.s:594    .text:00000000000004b0 __xie_lcd_dizhi
                 1.s:597    .text:00000000000004b6 __du_ascii
                 1.s:771    .data:0000000000000060 da_a_labo_shuzi
                 1.s:604    .text:00000000000004c0 __du_ziku_16_chushihua
                 1.s:606    .text:00000000000004c2 __du_ziku_16
                 1.s:614    .text:00000000000004d2 __duwan_16
                 1.s:631    .text:00000000000004f2 _xunhuanqiuma
                 1.s:650    .text:0000000000000514 _qiumafanhui
                 1.s:645    .text:000000000000050c _meidaoxiaoshudian
                 1.s:654    .text:0000000000000518 __suan_atan2
                 1.s:768    .data:0000000000000000 atan_biao
                 1.s:668    .text:0000000000000530 __panduan_xubu
                 1.s:672    .text:0000000000000538 __suan_atan2_xunhuan
                 1.s:686    .text:0000000000000552 __atan2_zhengzhuan
                 1.s:697    .text:0000000000000566 __atan2_xuanzhuan
                 1.s:714    .text:0000000000000578 __systick_fanhui
                            *ABS*:00000000200001e8 spwm_zhizhen
                 1.s:731    .text:000000000000059e __du_ch2
                 1.s:738    .text:00000000000005ae __xieru_spwm
                 1.s:756    .text:00000000000005e0 $d
                 1.s:761    *ABS*:00000000200001ec dianya_jiaodu
                 1.s:762    *ABS*:00000000200001f8 cos_zhizhen
                 1.s:765    *ABS*:0000000020000300 cos_biao
                 1.s:766    .data:0000000000000000 $d

NO UNDEFINED SYMBOLS
