ARM GAS  1.s 			page 1


   1              		@单片机：N32G430C8L7
   2              		@功能：ST7567  COG12864显示
   3              		@作者：yjmwxwx
   4              		@时间：20220726
   5              		@编译器：arm-none-eabi
   6              		.thumb
   7              		.syntax unified
   8              	.section .text
   9              	vectors:					@向量表
  10 0000 00400020 		.word STACHINIT	
  11 0004 11010000 		.word _start + 1			@复位向量
  12 0008 6F030000 	        .word _nmi_handler + 1 
  13 000c 6F030000 	        .word _hard_fault + 1 
  14 0010 6F030000 	        .word _memory_fault + 1 
  15 0014 6F030000 	        .word _bus_fault + 1
  16 0018 6F030000 	        .word _usage_fault + 1
  17 001c 00000000 		.word 0
  18 0020 00000000 		.word 0
  19 0024 00000000 		.word 0
  20 0028 00000000 		.word 0
  21 002c 6F030000 		.word aaa +1 @_svc_handler + 1
  22 0030 6F030000 		.word aaa +1 @_debugmon_handler + 1
  23 0034 00000000 		.word 0
  24 0038 6F030000 		.word aaa +1 @_pendsv_handler + 1
  25 003c 6F030000 		.word aaa +1 @_systick_handler +1
  26              		@@@@@@@@@@@@@@@@@@@@@@@@@@@@@@@
  27 0040 6F030000 		.word aaa +1 @0 _wwdg +1
  28 0044 6F030000 		.word aaa +1 @1 _pvd +1
  29 0048 6F030000 		.word aaa +1 @2 _rtc_tamper_stamp +1
  30 004c 6F030000 		.word aaa +1 @3 _rtc_wkup +1
  31 0050 6F030000 		.word aaa +1 @4 _flash +1
  32 0054 6F030000 		.word aaa +1 @5 _rcc +1
  33 0058 6F030000 		.word aaa +1 @6 _exti0 +1
  34 005c 6F030000 		.word aaa +1 @7 _exti1 +1
  35 0060 6F030000 		.word aaa +1 @8 _exti2 +1
  36 0064 6F030000 		.word aaa +1 @9 _exti3 +1
  37 0068 6F030000 		.word aaa +1 @10 _exti4 +1
  38 006c 6F030000 		.word aaa +1 @11 _dma_channel1 +1
  39 0070 6F030000 		.word aaa +1 @12 _dma_channel2 +1
  40 0074 6F030000 		.word aaa +1 @13 _dma_channel3 +1
  41 0078 6F030000 		.word aaa +1 @14 _dma_channel4 +1
  42 007c 6F030000 		.word aaa +1 @15 _dma_channel5 +1
  43 0080 6F030000 		.word aaa +1 @16 _dma_channel6 +1
  44 0084 6F030000 		.word aaa +1 @17 _dma_channel7 +1
  45 0088 6F030000 		.word aaa +1 @18 _dma_channel8 +1
  46 008c 6F030000 		.word aaa +1 @19 _adc +1
  47 0090 6F030000 		.word aaa +1 @20 _mmu +1
  48 0094 6F030000 		.word aaa +1 @21 _comp_1_2_3 +1
  49 0098 6F030000 		.word aaa +1 @22 _exti9_5 +1
  50 009c 6F030000 		.word aaa +1 @23 _tim1_brk +1
  51 00a0 6F030000 		.word aaa +1 @24 _tim1_up +1
  52 00a4 6F030000 		.word aaa +1 @25 _tim1_trg_com +1
  53 00a8 6F030000 		.word aaa +1 @26 _tim1_cc +1
  54 00ac 6F030000 		.word aaa +1 @28 _tim2 +1
  55 00b0 6F030000 		.word aaa +1 @29 _tim3 +1
  56 00b4 6F030000 		.word aaa +1 @30 _tim4 +1
  57 00b8 6F030000 		.word aaa +1 @31 _i2c1_ev +1
ARM GAS  1.s 			page 2


  58 00bc 6F030000 		.word aaa +1 @32 _i2c1_er +1
  59 00c0 6F030000 		.word aaa +1 @33 _i2c2_ev +1
  60 00c4 6F030000 		.word aaa +1 @34 _i2c2_er +1
  61 00c8 6F030000 		.word aaa +1 @35 _spi1 +1
  62 00cc 6F030000 		.word aaa +1 @36 _spi2 +1
  63 00d0 6F030000 		.word aaa +1 @37 _usart1 +1
  64 00d4 6F030000 		.word aaa +1 @38 _usart2 +1
  65 00d8 6F030000 		.word aaa +1 @39 _uart3 +1
  66 00dc 6F030000 		.word aaa +1 @40 _exti15_10 +1
  67 00e0 6F030000 		.word aaa +1 @41 _rtcalarm +1
  68 00e4 6F030000 		.word aaa +1 @42 _lptim_wkup +1
  69 00e8 6F030000 		.word aaa +1 @43 _tim8_brk +1
  70 00ec 6F030000 		.word aaa +1 @44 _tim8_up +1
  71 00f0 6F030000 		.word aaa +1 @45 _tim8_cc +1
  72 00f4 6F030000 		.word aaa +1 @46 _uart4 +1
  73 00f8 6F030000 		.word aaa +1 @47 _tim5 +1
  74 00fc 6F030000 		.word aaa +1 @48 _tim6 +1
  75 0100 6F030000 		.word aaa +1 @49 _can_tx +1
  76 0104 6F030000 		.word aaa +1 @50 _can_rx0 +1
  77 0108 6F030000 		.word aaa +1 @51 _can_rx1 +1
  78 010c 6F030000 		.word aaa +1 @52 _can_sce +1
  79              	_start:
  80              	__shizhong:
  81 0110 974A     		ldr r2, = 0x40022000   @FLASH访问控制
  82 0112 3321     		movs r1, # 0x33
  83 0114 1160     		str r1, [r2]           @FLASH缓冲 缓冲开启
  84 0116 9748     		ldr r0, = 0x40021000 @ rcc
  85 0118 4FF00111 		ldr r1, = 0x10001
  86 011c 0160     		str r1, [r0]
  87              	__denghse:
  88 011e 0168     		ldr r1, [r0]
  89 0120 8903     		lsls r1, r1, # 14
  90 0122 FCD5     		bpl __denghse
  91              	__dengpllguan:
  92 0124 0168     		ldr r1, [r0]
  93 0126 8901     		lsls r1, r1, # 6
  94 0128 FCD4     		bmi __dengpllguan
  95 012a 9349     		ldr r1, = 0x390002
  96 012c 0046     		mov r0, r0
  97 012e 4160     		str r1, [r0, # 0x04]
  98 0130 0046     		mov r0, r0
  99 0132 9249     		ldr r1, = 0x1010000
 100 0134 0046     		mov r0, r0
 101 0136 0160     		str r1, [r0]
 102              	
 103              	__dengpll:
 104 0138 0168     		ldr r1, [r0]
 105 013a 8901     		lsls r1, # 6
 106 013c FCD5     		bpl __dengpll
 107              	__waishe_shizhong:
 108              	@@@@@@@@@@@@@@@@@@@@@@@@@@@@@@@@@@@@@@@@@@@@@@@@@@@@@@@@@@@@@@@@@@@@@@@@@
 109              		@外设时钟
 110              		@rcc_ahbpclken  0x40021014
 111              		@0=dma,2=sram,4=flitf,6=crc,7=pa,8=pb,9=pc,10=pd,12=adc
 112              		@rcc_apb2pclken 0x40021018
 113              		@0=afio,1=beeper,11=tim1,12=spi1,13=tim8,14=usart1,17=uart3,19=spi2
 114              		@rcc_apb1pclken 0x4002101c
ARM GAS  1.s 			page 3


 115              		@0=tim2,1=tim3,2=tim4,3=tim5,4=tim6,6=comp,7=compfilt,11wwdg,
 116              		@17=usart2,21=i2c1,22=i2c2,25=can,28=pwr
 117              	@@@@@@@@@@@@@@@@@@@@@@@@@@@@@@@@@@@@@@@@@@@@@@@@@@@@@@@@@@@@@@@@@@@@@@@@@@
 118 013e 40F29471 		movw r1, # 0x794
 119 0142 4161     		str r1, [r0, # 0x14]
 120 0144 41F20001 		movw r1, # 0x1000
 121 0148 8161     		str r1, [r0, # 0x18]
 122              	
 123              	__io_shezhi:
 124              	@@@@@@@@@@@@@@@@@@@@@@@@@@@@@@@@@@@@@@@@@@@@@@@@@@@@@@@@@@@@@@@@@@@@@@@@@@@
 125              		@   pa=0x40023400,    pb=0x40023800,  pc=0x40023c00,  pd=0x40024000
 126              	        @0x00 端口模式寄存器(GPIOx_PMODE)
 127              		@寄存器复位值
 128              		@pa=0xabffffff  pb= 0xfffffebf  pc= 0xfc000000   pd=0xff000000
 129              		@00=输入模式，01=通用输出模式，10=复用功能模式，11模拟功能模式
 130              		@0x04 端口类型定义寄存器(GPIOx_POTYPE) 复位值0
 131              		@ 0=推挽输出，1=开漏输出
 132              		@0x08 翻转率配置寄存器(GPIOx_SR)
 133              		@复位值，PA=0XFFFF，PB=0XFFFF，PC=0XE000,PD=0XF001
 134              		@0=快速，1=慢速
 135              		@0x0c 端口上下拉寄存器(GPIOx_PUPD)
 136              		@寄存器复位值
 137              		@pa=0x64000000,pb=0x100,pc=0,pd=0x02
 138              		@00=无上拉下拉，01=上拉，10=下拉
 139              		@0x10 端口输入数据寄存器(GPIOx_PID)
 140              		@0x14 端口输出数据寄存器(GPIOx_POD)
 141              		@0x18 GPIO 端口位设置/清除寄存器(GPIOx_PBSC)
 142              		@高16位 pbcy = 1 IO低,  低16位 pbsy = 1 IO高
 143              		@0x1c 端口锁定配置寄存器(GPIOx_PLOCK)
 144              		@高16 PLOCKK=1端口配置锁键位被激活
 145              		@低16 PLOCKY=1锁定端口的配置
 146              		@0x20 复用功能低配置寄存器(GPIOx_AFL)
 147              		@复用功能高配置寄存器(GPIOx_AFH)
 148              		@af0=0000,af1=0001,af2=0010,af3=0011...................
 149              		@0x24 端口位清除寄存器(GPIOx_PBC)
 150              		@pbcy=1 清除对应的 PODy 位为 0
 151              		@0x28 驱动能力配置寄存器(GPIOx_DS)
 152              		@复位值
 153              		@PA=0X55555555,PB=0X55555555,PC=0X54000000,PD=0X55000001
 154              		@00=2mA,01=8mA,10=4mA,11=12mA
 155              		@@@@@@@@@@@@@@@@@@@@@@@@@@@@@@@@@@@@@@@@@@@@@@@@@@@@@@@@@@@@@@@@@@@@@@@@@@@@@@@@@@
 156              		@PA
 157 014a 8D48     		ldr r0, = 0x40023400
 158 014c 8D49     		ldr r1, = 0x6bfffffd
 159 014e 0160     		str r1, [r0]
 160 0150 4FF01051 		ldr r1, = 0x24000000
 161 0154 C160     		str r1, [r0, # 0x0c]
 162              		@PB
 163 0156 8C48     		ldr r0, = 0x40023800
 164 0158 6FF4C861 		ldr r1, = 0xfffff9bf
 165 015c 0160     		str r1, [r0]
 166 015e 0021     		movs r1, # 0
 167 0160 C160     		str r1, [r0, # 0x0c]
 168 0162 4FF48111 		ldr r1, = 0x102000
 169 0166 0162     		str r1, [r0, # 0x20]
 170              		
 171              	__spi_chushihua:
ARM GAS  1.s 			page 4


 172 0168 8848     		ldr r0, = 0x40013000	
 173 016a 44F26C31 		movw r1, # 0x436c
 174 016e 0160     		str r1, [r0]
 175              	
 176              	__lcd_chushihua:
 177 0170 8748     		ldr r0,  = 0x40023418
 178 0172 48F20001 		movw r1, # 0x8000
 179 0176 0160     		str r1, [r0]		@RST=1
 180 0178 6FF07F42 		ldr r2, = 0xffffff
 181 017c 00F08BF8 		bl __lcd_yanshi
 182              		
 183 0180 0904     		lsls r1, r1, # 16
 184 0182 0160     		str r1, [r0]		@RST=0
 185 0184 6FF07F42 		ldr r2, = 0xffffff
 186 0188 00F085F8 		bl __lcd_yanshi
 187              		
 188 018c 090C     		lsrs r1, r1, # 16
 189 018e 0160     		str r1, [r0]		@RST=1
 190 0190 6FF07F42 		ldr r2, = 0xffffff
 191 0194 00F07FF8 		bl __lcd_yanshi
 192              	
 193 0198 7E48     		ldr r0, = 0x40023818
 194 019a 1021     		movs r1, # 0x10
 195 019c 0904     		lsls r1, r1, # 16
 196 019e 0160     		str r1, [r0]		@RS=0
 197 01a0 6FF07F42 		ldr r2, = 0xffffff
 198 01a4 00F077F8 		bl __lcd_yanshi
 199              	
 200 01a8 A220     		movs r0, # 0xa2		@ 偏置选择
 201 01aa 00F03EF8 		bl __xie_spi1
 202 01ae A020     		movs r0, # 0xa0		@SEG方向（横 0=0到131，1=131到0）
 203 01b0 00F03BF8 		bl __xie_spi1
 204 01b4 C820     		movs r0, # 0xc8		@选择COM方向（竖 0=0到63, 1=63到1）
 205 01b6 00F038F8 		bl __xie_spi1
 206 01ba 2F20     		movs r0, # 0x2f		@选择调节率
 207 01bc 00F035F8 		bl __xie_spi1
 208 01c0 8120     		movs r0, # 0x81		@设置EV命令
 209 01c2 00F032F8 		bl __xie_spi1
 210 01c6 3020     		movs r0, # 0x30		@设置EV（0x00-0x3f 对比度）
 211 01c8 00F02FF8 		bl __xie_spi1
 212 01cc 2F20     		movs r0, # 0x2f		@助推器开启
 213 01ce 00F02CF8 		bl __xie_spi1		@调节器开、追踪器开
 214 01d2 AF20     		movs r0, # 0xaf		@显示开
 215 01d4 00F029F8 		bl __xie_spi1
 216              		
 217 01d8 00F060F8 		bl __lcd_qingping
 218 01dc 6E48     		ldr r0, = yjmwxwx	@ascii
 219 01de 0721     		movs r1, # 7		@长度
 220 01e0 0222     		movs r2, # 2		@宽度
 221 01e2 B023     		movs r3, # 0xb0		@lcd位置
 222 01e4 00F09DF8 		bl __xie_lcd_ascii
 223 01e8 6C48     		ldr r0, = n32g430
 224 01ea 0721     		movs r1, # 7
 225 01ec 0222     		movs r2, # 2
 226 01ee B223     		movs r3, # 0xb2
 227 01f0 00F097F8 		bl __xie_lcd_ascii
 228 01f4 6A48     		ldr r0, = _21ic.com
ARM GAS  1.s 			page 5


 229 01f6 0821     		movs r1, # 8
 230 01f8 0222     		movs r2, # 2
 231 01fa B423     		movs r3, # 0xb4
 232 01fc 00F091F8 		bl __xie_lcd_ascii
 233 0200 6848     		ldr r0, = nations
 234 0202 0721     		movs r1, # 7
 235 0204 0222     		movs r2, # 2
 236 0206 B623     		movs r3, # 0xb6
 237 0208 00F08BF8 		bl __xie_lcd_ascii
 238              		
 239              	__ting:
 240 020c 6048     		ldr r0, = 0x40023418
 241 020e 0122     		movs r2, # 0x01
 242 0210 1346     		mov r3, r2
 243 0212 0260     		str r2, [r0] @开
 244 0214 1B04     		lsls r3, r3,  # 16
 245 0216 6FF07F41 		ldr r1, = 0xffffff
 246              	__led_kai_yanshi:
 247 021a 0139     		subs r1, r1, # 1
 248 021c FDD1     		bne __led_kai_yanshi
 249 021e 6FF07F41 		ldr r1, = 0xffffff
 250 0222 0360     		str r3, [r0] @关
 251              	__led_guan_yanshi:
 252 0224 0139     		subs r1, r1, # 1
 253 0226 FDD1     		bne __led_guan_yanshi
 254 0228 F0E7     		b __ting
 255              	
 256              	
 257              	__xie_spi1:
 258 022a 30B5     		push {r4-r5,lr}
 259 022c 574C     		ldr r4, = 0x40013000
 260 022e 00F006F8 		bl __spi_mang
 261 0232 2073     		strb r0, [r4,0x0c]
 262 0234 40F2FF34 		ldr r4, = 0x3ff
 263              	__xie_spi1_yanshi:
 264 0238 013C     		subs r4, r4, # 1
 265 023a FDD1     		bne __xie_spi1_yanshi
 266 023c 30BD     		pop {r4-r5,pc}
 267              		
 268              	__spi_mang:
 269 023e A568     		ldr r5, [r4,0x08]
 270 0240 2D06     		lsls r5, r5, # 24
 271 0242 FCD4     		bmi __spi_mang
 272 0244 7047     		bx lr
 273              	
 274              	__xie_lcd_ye:
 275              		@入口R0=数据首地址
 276 0246 1EB5     		push {r1-r4,lr}
 277 0248 B023     		movs r3, # 0xb0
 278 024a 013B     		subs r3, r3, # 1
 279 024c 0446     		mov r4, r0
 280              	__ye_jia:
 281 024e 5148     		ldr r0, = 0x40023818
 282 0250 1021     		movs r1, # 0x10
 283 0252 0904     		lsls r1, r1, # 16
 284 0254 0160     		str r1, [r0]            @RS=0
 285 0256 4FF0FF02 		ldr r2, = 0xff
ARM GAS  1.s 			page 6


 286 025a 00F01CF8 		bl __lcd_yanshi
 287 025e 0133     		adds r3, r3, # 1
 288 0260 B92B     		cmp r3, # 0xb9
 289 0262 00D1     		bne __xie_ye_dizhi
 290 0264 1EBD     		pop {r1-r4,pc}
 291              		@       movs r3, # 0xb0
 292              		@       mvns r4, r4
 293              		@       lsls r4, r4, # 24
 294              		@       lsrs r4, r4, # 24
 295              	__xie_ye_dizhi:
 296 0266 1020     		movs r0, # 0x10
 297 0268 FFF7DFFF 		bl __xie_spi1
 298 026c 0020     		movs r0, # 0
 299 026e FFF7DCFF 		bl __xie_spi1
 300 0272 1846     		mov r0, r3
 301 0274 FFF7D9FF 		bl __xie_spi1
 302              	
 303 0278 4648     		ldr r0, = 0x40023818
 304 027a 1021     		movs r1, # 0x10
 305 027c 0160     		str r1, [r0]            @RS=1
 306 027e 4FF0FF02 		ldr r2, = 0xff
 307 0282 00F008F8 		bl __lcd_yanshi
 308              	
 309 0286 8421     		movs r1, # 132
 310              	__heng_sao:
 311 0288 2078     		ldrb r0, [r4]
 312              		@       mov r0, r4
 313 028a FFF7CEFF 		bl __xie_spi1
 314 028e 0134     		adds r4, r4, # 1
 315 0290 0139     		subs r1, r1, # 1
 316 0292 F9D1     		bne __heng_sao
 317 0294 DBE7     		b __ye_jia
 318              	__lcd_yanshi:
 319 0296 013A     		subs r2, r2, # 1
 320 0298 FDD1     		bne __lcd_yanshi
 321 029a 7047     		bx lr
 322              	__lcd_qingping:
 323 029c 1FB5     		push {r0-r4,lr}
 324 029e B023     		movs r3, # 0xb0
 325 02a0 013B     		subs r3, r3, # 1
 326 02a2 4FF00004 		mov r4, # 0
 327              	__ye_jia1:
 328 02a6 3B48     		ldr r0, = 0x40023818
 329 02a8 1021     		movs r1, # 0x10
 330 02aa 0904     		lsls r1, r1, # 16
 331 02ac 0160     		str r1, [r0]            @RS=0
 332 02ae 4FF0FF02 		ldr r2, = 0xff
 333 02b2 FFF7F0FF 		bl __lcd_yanshi
 334 02b6 0133     		adds r3, r3, # 1
 335 02b8 B92B     		cmp r3, # 0xb9
 336 02ba 00D1     		bne __xie_ye_dizhi1
 337 02bc 1FBD     		pop {r0-r4,pc}
 338              	__xie_ye_dizhi1:
 339 02be 1020     		movs r0, # 0x10
 340 02c0 FFF7B3FF 		bl __xie_spi1
 341 02c4 0020     		movs r0, # 0
 342 02c6 FFF7B0FF 		bl __xie_spi1
ARM GAS  1.s 			page 7


 343 02ca 1846     		mov r0, r3
 344 02cc FFF7ADFF 		bl __xie_spi1
 345              	
 346 02d0 3048     		ldr r0, = 0x40023818
 347 02d2 1021     		movs r1, # 0x10
 348 02d4 0160     		str r1, [r0]            @RS=1
 349 02d6 4FF0FF02 		ldr r2, = 0xff
 350 02da FFF7DCFF 		bl __lcd_yanshi
 351 02de 8421     		movs r1, # 132
 352              	__heng_sao1:
 353 02e0 2046     		mov r0, r4
 354 02e2 FFF7A2FF 		bl __xie_spi1
 355 02e6 0139     		subs r1, r1, # 1
 356 02e8 FAD1     		bne __heng_sao1
 357 02ea DCE7     		b __ye_jia1
 358              		
 359              	__xie_lcd_weizhi:
 360              		@入口R0=要写的地址
 361 02ec 0EB5     		push {r1-r3,lr}
 362 02ee 2949     	        ldr r1, = 0x40023818
 363 02f0 1023     		movs r3, # 0x10
 364 02f2 1B04     		lsls r3, r3, # 16
 365 02f4 0B60     		str r3, [r1]            @RS=0
 366 02f6 4FF0FF02 		ldr r2, = 0xff
 367 02fa FFF7CCFF 		bl __lcd_yanshi
 368 02fe FFF794FF 		bl __xie_spi1
 369 0302 1020     		movs r0, # 0x10
 370 0304 FFF791FF 		bl __xie_spi1
 371 0308 0020     		movs r0, # 0
 372 030a FFF78EFF 		bl __xie_spi1
 373 030e 1846     		mov r0, r3
 374 0310 FFF78BFF 		bl __xie_spi1
 375 0314 1023     		movs r3, # 0x10
 376 0316 0B60     		str r3, [r1]            @RS=1
 377 0318 4FF0FF02 		ldr r2, = 0xff
 378 031c FFF7BBFF 		bl __lcd_yanshi
 379 0320 0EBD     		pop {r1-r3,pc}
 380              		
 381              	__xie_lcd_ascii:
 382 0322 2DE9F043 		push {r4-r9,lr}
 383              		@入口r0=ASCII地址(32-127) r1=x宽，r2=y宽,r3=要写的地址
 384 0326 0546     		mov r5, r0
 385 0328 9946     		mov r9, r3
 386 032a 0026     		movs r6, # 0
 387 032c 3746     		mov r7, r6
 388 032e 9046     		mov r8, r2
 389 0330 5FEA0818 		lsls r8, r8, # 4
 390              	__xie_lcd_dizhi:
 391 0334 4846     		mov r0, r9
 392 0336 FFF7D9FF 		bl __xie_lcd_weizhi
 393              	__du_ascii:	
 394 033a A85D     		ldrb r0, [r5, r6]
 395 033c 2038     		subs r0, r0, # 32
 396 033e 4001     		lsls r0, r0, # 5
 397 0340 3844     		add r0, r0, r7
 398 0342 194B     		ldr r3, = ziku16x16
 399 0344 0344     		add r3, r3, r0
ARM GAS  1.s 			page 8


 400              	__du_ziku_16_chushihua:	
 401 0346 0024     		movs r4, # 0
 402              	__du_ziku_16:
 403 0348 185D     		ldrb r0, [r3, r4]
 404 034a A418     		adds r4, r4, r2
 405 034c 4445     		cmp r4, r8
 406 034e 03D0     		beq __duwan_16
 407 0350 FFF76BFF 		bl __xie_spi1
 408 0354 0046     		mov r0, r0
 409 0356 F7E7     		b __du_ziku_16
 410              	__duwan_16:
 411 0358 0136     		adds r6, r6, # 1
 412 035a 8E42     		cmp r6, r1
 413 035c EDD1     		bne __du_ascii
 414 035e 0026     		movs r6, # 0
 415 0360 0137     		adds r7, r7, # 1
 416 0362 19F10109 		adds r9, r9, # 1
 417 0366 9742     		cmp r7, r2
 418 0368 E4D1     		bne __xie_lcd_dizhi
 419 036a BDE8F083 		pop {r4-r9,pc}
 420              		
 421              	_nmi_handler:	
 422              	_hard_fault:	
 423              	_memory_fault:	
 424              	_bus_fault:	
 425              	_usage_fault:
 426              	aaa:
 427 036e 7047     		bx lr
 428 0370 00200240 		.ltorg
 428      00100240 
 428      02003900 
 428      00000101 
 428      00340240 
 429              		.section .data
 430              		.equ STACHINIT,         0x20004000      @堆栈顶
 431              		.align 4
 432              	ziku16x16:
 433 0000 00000000 		.byte 0x00, 0x00, 0x00, 0x00, 0x00, 0x00, 0x00, 0x00, 0x00, 0x00, 0x00, 0x00, 0x00, 0x00, 0x00, 0x
 433      00000000 
 433      00000000 
 433      00000000 
 433      00000000 
 434 0020 00000000 		.byte 0x00, 0x00, 0x00, 0x00, 0xFC, 0x1B, 0x00, 0x00, 0x00, 0x00, 0x00, 0x00, 0x00, 0x00, 0x00, 0x
 434      FC1B0000 
 434      00000000 
 434      00000000 
 434      00000000 
 435 0040 00001E00 		 .byte 0x00, 0x00, 0x1E, 0x00, 0x00, 0x00, 0x00, 0x00, 0x1E, 0x00, 0x00, 0x00, 0x00, 0x00, 0x00, 0
 435      00000000 
 435      1E000000 
 435      00000000 
 435      00000000 
 436 0060 00000002 		 .byte 0x00, 0x00, 0x00, 0x02, 0x20, 0x1A, 0xA0, 0x07, 0x70, 0x02, 0x2C, 0x1A, 0x20, 0x07, 0xF0, 0
 436      201AA007 
 436      70022C1A 
 436      2007F002 
 436      2C022000 
ARM GAS  1.s 			page 9


 437 0080 00007008 		 .byte 0x00, 0x00, 0x70, 0x08, 0x88, 0x10, 0x88, 0x10, 0xFE, 0xFF, 0x08, 0x11, 0x08, 0x11, 0x10, 0
 437      88108810 
 437      FEFF0811 
 437      0811100E 
 437      00000000 
 438 00a0 00007800 		 .byte 0x00, 0x00, 0x78, 0x00, 0x84, 0x00, 0x84, 0x00, 0x84, 0x00, 0x78, 0x10, 0x00, 0x0C, 0x00, 0
 438      84008400 
 438      84007810 
 438      000C0003 
 438      E0001800 
 439 00c0 00000007 		 .byte 0x00, 0x00, 0x00, 0x07, 0xB8, 0x08, 0x44, 0x10, 0x44, 0x10, 0xC4, 0x10, 0x44, 0x11, 0x38, 0
 439      B8084410 
 439      4410C410 
 439      4411380A 
 439      0004C00B 
 440 00e0 00001E00 		 .byte 0x00, 0x00, 0x1E, 0x00, 0x00, 0x00, 0x00, 0x00, 0x00, 0x00, 0x00, 0x00, 0x00, 0x00, 0x00, 0
 440      00000000 
 440      00000000 
 440      00000000 
 440      00000000 
 441 0100 0000E00F 		 .byte 0x00, 0x00, 0xE0, 0x0F, 0x18, 0x30, 0x04, 0x40, 0x02, 0x80, 0x00, 0x00, 0x00, 0x00, 0x00, 0
 441      18300440 
 441      02800000 
 441      00000000 
 441      00000000 
 442 0120 00000000 		 .byte 0x00, 0x00, 0x00, 0x00, 0x02, 0x80, 0x04, 0x40, 0x18, 0x30, 0xE0, 0x0F, 0x00, 0x00, 0x00, 0
 442      02800440 
 442      1830E00F 
 442      00000000 
 442      00000000 
 443 0140 00004400 		 .byte 0x00, 0x00, 0x44, 0x00, 0x28, 0x00, 0x10, 0x00, 0xFE, 0x00, 0x10, 0x00, 0x28, 0x00, 0x44, 0
 443      28001000 
 443      FE001000 
 443      28004400 
 443      00000000 
 444 0160 00000000 		 .byte 0x00, 0x00, 0x00, 0x00, 0x00, 0x01, 0x00, 0x01, 0x00, 0x01, 0x00, 0x01, 0xF0, 0x1F, 0x00, 0
 444      00010001 
 444      00010001 
 444      F01F0001 
 444      00010001 
 445 0180 000000C0 		 .byte 0x00, 0x00, 0x00, 0xC0, 0x00, 0x38, 0x00, 0x00, 0x00, 0x00, 0x00, 0x00, 0x00, 0x00, 0x00, 0
 445      00380000 
 445      00000000 
 445      00000000 
 445      00000000 
 446 01a0 00000001 		 .byte 0x00, 0x00, 0x00, 0x01, 0x00, 0x01, 0x00, 0x01, 0x00, 0x01, 0x00, 0x01, 0x00, 0x00, 0x00, 0
 446      00010001 
 446      00010001 
 446      00000000 
 446      00000000 
 447 01c0 00000000 		 .byte 0x00, 0x00, 0x00, 0x00, 0x00, 0x18, 0x00, 0x00, 0x00, 0x00, 0x00, 0x00, 0x00, 0x00, 0x00, 0
 447      00180000 
 447      00000000 
 447      00000000 
 447      00000000 
 448 01e0 00400038 		 .byte 0x00, 0x40, 0x00, 0x38, 0x00, 0x06, 0x80, 0x01, 0x60, 0x00, 0x1C, 0x00, 0x02, 0x00, 0x00, 0
 448      00068001 
ARM GAS  1.s 			page 10


 448      60001C00 
 448      02000000 
 448      00000000 
 449 0200 0000F007 		 .byte 0x00, 0x00, 0xF0, 0x07, 0x08, 0x08, 0x04, 0x10, 0x04, 0x10, 0x04, 0x10, 0x04, 0x10, 0x08, 0
 449      08080410 
 449      04100410 
 449      04100808 
 449      F0070000 
 450 0220 00000000 		 .byte 0x00, 0x00, 0x00, 0x00, 0x00, 0x00, 0x10, 0x10, 0x10, 0x10, 0xFC, 0x1F, 0x00, 0x10, 0x00, 0
 450      00001010 
 450      1010FC1F 
 450      00100010 
 450      00000000 
 451 0240 00000818 		 .byte 0x00, 0x00, 0x08, 0x18, 0x04, 0x14, 0x04, 0x14, 0x04, 0x12, 0x04, 0x12, 0x04, 0x11, 0x88, 0
 451      04140414 
 451      04120412 
 451      04118810 
 451      70100000 
 452 0260 00000808 		 .byte 0x00, 0x00, 0x08, 0x08, 0x04, 0x10, 0x04, 0x10, 0x44, 0x10, 0x44, 0x10, 0x44, 0x10, 0xA4, 0
 452      04100410 
 452      44104410 
 452      4410A408 
 452      18070000 
 453 0280 00000003 		 .byte 0x00, 0x00, 0x00, 0x03, 0x80, 0x02, 0x40, 0x02, 0x20, 0x02, 0x10, 0x02, 0x08, 0x02, 0xFC, 0
 453      80024002 
 453      20021002 
 453      0802FC1F 
 453      00020002 
 454 02a0 00000008 		 .byte 0x00, 0x00, 0x00, 0x08, 0x7C, 0x10, 0x44, 0x10, 0x44, 0x10, 0x44, 0x10, 0x44, 0x10, 0x84, 0
 454      7C104410 
 454      44104410 
 454      44108408 
 454      04070000 
 455 02c0 0000E007 		 .byte 0x00, 0x00, 0xE0, 0x07, 0x90, 0x08, 0x48, 0x10, 0x44, 0x10, 0x44, 0x10, 0x44, 0x10, 0x84, 0
 455      90084810 
 455      44104410 
 455      44108408 
 455      00070000 
 456 02e0 00000400 		 .byte 0x00, 0x00, 0x04, 0x00, 0x04, 0x10, 0x04, 0x0C, 0x04, 0x03, 0xC4, 0x00, 0x34, 0x00, 0x0C, 0
 456      0410040C 
 456      0403C400 
 456      34000C00 
 456      00000000 
 457 0300 00003006 		 .byte 0x00, 0x00, 0x30, 0x06, 0x48, 0x09, 0x84, 0x10, 0x84, 0x10, 0x84, 0x10, 0x84, 0x10, 0x48, 0
 457      48098410 
 457      84108410 
 457      84104809 
 457      30060000 
 458 0320 00007000 		 .byte 0x00, 0x00, 0x70, 0x00, 0x88, 0x10, 0x04, 0x11, 0x04, 0x11, 0x04, 0x11, 0x04, 0x09, 0x08, 0
 458      88100411 
 458      04110411 
 458      04090805 
 458      F0030000 
 459 0340 00000000 		 .byte 0x00, 0x00, 0x00, 0x00, 0x00, 0x00, 0x60, 0x18, 0x00, 0x00, 0x00, 0x00, 0x00, 0x00, 0x00, 0
 459      00006018 
 459      00000000 
 459      00000000 
ARM GAS  1.s 			page 11


 459      00000000 
 460 0360 00000000 		 .byte 0x00, 0x00, 0x00, 0x00, 0x00, 0xC0, 0x60, 0x38, 0x00, 0x00, 0x00, 0x00, 0x00, 0x00, 0x00, 0
 460      00C06038 
 460      00000000 
 460      00000000 
 460      00000000 
 461 0380 00000000 		 .byte 0x00, 0x00, 0x00, 0x00, 0x80, 0x01, 0x80, 0x01, 0x40, 0x02, 0x40, 0x02, 0x20, 0x04, 0x20, 0
 461      80018001 
 461      40024002 
 461      20042004 
 461      10081008 
 462 03a0 00000000 		 .byte 0x00, 0x00, 0x00, 0x00, 0x40, 0x02, 0x40, 0x02, 0x40, 0x02, 0x40, 0x02, 0x40, 0x02, 0x40, 0
 462      40024002 
 462      40024002 
 462      40024002 
 462      40024002 
 463 03c0 00000000 		 .byte 0x00, 0x00, 0x00, 0x00, 0x10, 0x08, 0x10, 0x08, 0x20, 0x04, 0x20, 0x04, 0x40, 0x02, 0x40, 0
 463      10081008 
 463      20042004 
 463      40024002 
 463      80018001 
 464 03e0 00000800 		 .byte 0x00, 0x00, 0x08, 0x00, 0x04, 0x00, 0x04, 0x1B, 0x84, 0x00, 0x44, 0x00, 0x38, 0x00, 0x00, 0
 464      0400041B 
 464      84004400 
 464      38000000 
 464      00000000 
 465 0400 0000C007 		 .byte 0x00, 0x00, 0xC0, 0x07, 0x30, 0x18, 0x08, 0x20, 0x88, 0x23, 0x44, 0x44, 0x24, 0x48, 0x24, 0
 465      30180820 
 465      88234444 
 465      24482448 
 465      2448E84F 
 466 0420 00180007 		 .byte 0x00, 0x18, 0x00, 0x07, 0xC0, 0x02, 0x38, 0x02, 0x04, 0x02, 0x04, 0x02, 0x38, 0x02, 0xC0, 0
 466      C0023802 
 466      04020402 
 466      3802C002 
 466      00070018 
 467 0440 0000FC1F 		 .byte 0x00, 0x00, 0xFC, 0x1F, 0x44, 0x10, 0x44, 0x10, 0x44, 0x10, 0x44, 0x10, 0x44, 0x10, 0xB8, 0
 467      44104410 
 467      44104410 
 467      4410B808 
 467      00070000 
 468 0460 0000E003 		 .byte 0x00, 0x00, 0xE0, 0x03, 0x18, 0x0C, 0x08, 0x08, 0x04, 0x10, 0x04, 0x10, 0x04, 0x10, 0x04, 0
 468      180C0808 
 468      04100410 
 468      04100410 
 468      0808180C 
 469 0480 0000FC1F 		 .byte 0x00, 0x00, 0xFC, 0x1F, 0x04, 0x10, 0x04, 0x10, 0x04, 0x10, 0x04, 0x10, 0x04, 0x10, 0x08, 0
 469      04100410 
 469      04100410 
 469      04100808 
 469      180CE003 
 470 04a0 0000FC1F 		 .byte 0x00, 0x00, 0xFC, 0x1F, 0x44, 0x10, 0x44, 0x10, 0x44, 0x10, 0x44, 0x10, 0x44, 0x10, 0x44, 0
 470      44104410 
 470      44104410 
 470      44104410 
 470      00000000 
 471 04c0 0000FC1F 		 .byte 0x00, 0x00, 0xFC, 0x1F, 0x44, 0x00, 0x44, 0x00, 0x44, 0x00, 0x44, 0x00, 0x44, 0x00, 0x44, 0
ARM GAS  1.s 			page 12


 471      44004400 
 471      44004400 
 471      44004400 
 471      04000000 
 472 04e0 0000E003 		 .byte 0x00, 0x00, 0xE0, 0x03, 0x18, 0x0C, 0x08, 0x08, 0x04, 0x10, 0x04, 0x10, 0x04, 0x10, 0x84, 0
 472      180C0808 
 472      04100410 
 472      04108410 
 472      84108810 
 473 0500 0000FC1F 		 .byte 0x00, 0x00, 0xFC, 0x1F, 0x40, 0x00, 0x40, 0x00, 0x40, 0x00, 0x40, 0x00, 0x40, 0x00, 0x40, 0
 473      40004000 
 473      40004000 
 473      40004000 
 473      4000FC1F 
 474 0520 00000410 		 .byte 0x00, 0x00, 0x04, 0x10, 0xFC, 0x1F, 0x04, 0x10, 0x00, 0x00, 0x00, 0x00, 0x00, 0x00, 0x00, 0
 474      FC1F0410 
 474      00000000 
 474      00000000 
 474      00000000 
 475 0540 00100010 		 .byte 0x00, 0x10, 0x00, 0x10, 0x04, 0x10, 0x04, 0x10, 0x04, 0x08, 0xFC, 0x07, 0x00, 0x00, 0x00, 0
 475      04100410 
 475      0408FC07 
 475      00000000 
 475      00000000 
 476 0560 0000FC1F 		 .byte 0x00, 0x00, 0xFC, 0x1F, 0x00, 0x01, 0x80, 0x00, 0x40, 0x01, 0x20, 0x02, 0x10, 0x04, 0x08, 0
 476      00018000 
 476      40012002 
 476      10040808 
 476      04100000 
 477 0580 0000FC1F 		 .byte 0x00, 0x00, 0xFC, 0x1F, 0x00, 0x10, 0x00, 0x10, 0x00, 0x10, 0x00, 0x10, 0x00, 0x10, 0x00, 0
 477      00100010 
 477      00100010 
 477      00100010 
 477      00000000 
 478 05a0 0000FC1F 		 .byte 0x00, 0x00, 0xFC, 0x1F, 0x04, 0x00, 0x18, 0x00, 0x60, 0x00, 0x80, 0x01, 0x00, 0x06, 0x80, 0
 478      04001800 
 478      60008001 
 478      00068001 
 478      60001800 
 479 05c0 0000FC1F 		 .byte 0x00, 0x00, 0xFC, 0x1F, 0x08, 0x00, 0x10, 0x00, 0x60, 0x00, 0x80, 0x00, 0x00, 0x03, 0x00, 0
 479      08001000 
 479      60008000 
 479      00030004 
 479      0008FC1F 
 480 05e0 0000E003 		 .byte 0x00, 0x00, 0xE0, 0x03, 0x18, 0x0C, 0x08, 0x08, 0x04, 0x10, 0x04, 0x10, 0x04, 0x10, 0x04, 0
 480      180C0808 
 480      04100410 
 480      04100410 
 480      0808180C 
 481 0600 0000FC1F 		 .byte 0x00, 0x00, 0xFC, 0x1F, 0x04, 0x01, 0x04, 0x01, 0x04, 0x01, 0x04, 0x01, 0x04, 0x01, 0x88, 0
 481      04010401 
 481      04010401 
 481      04018800 
 481      70000000 
 482 0620 0000E003 		 .byte 0x00, 0x00, 0xE0, 0x03, 0x18, 0x0C, 0x08, 0x08, 0x04, 0x10, 0x04, 0x10, 0x04, 0x10, 0x04, 0
 482      180C0808 
 482      04100410 
ARM GAS  1.s 			page 13


 482      04100470 
 482      0888188C 
 483 0640 0000FC1F 		 .byte 0x00, 0x00, 0xFC, 0x1F, 0x04, 0x01, 0x04, 0x01, 0x04, 0x01, 0x04, 0x01, 0x88, 0x02, 0x70, 0
 483      04010401 
 483      04010401 
 483      88027004 
 483      00080010 
 484 0660 00003004 		 .byte 0x00, 0x00, 0x30, 0x04, 0x48, 0x08, 0x84, 0x10, 0x84, 0x10, 0x84, 0x10, 0x84, 0x10, 0x04, 0
 484      48088410 
 484      84108410 
 484      84100409 
 484      08060000 
 485 0680 04000400 		 .byte 0x04, 0x00, 0x04, 0x00, 0x04, 0x00, 0x04, 0x00, 0xFC, 0x1F, 0x04, 0x00, 0x04, 0x00, 0x04, 0
 485      04000400 
 485      FC1F0400 
 485      04000400 
 485      04000000 
 486 06a0 0000FC07 		 .byte 0x00, 0x00, 0xFC, 0x07, 0x00, 0x08, 0x00, 0x10, 0x00, 0x10, 0x00, 0x10, 0x00, 0x10, 0x00, 0
 486      00080010 
 486      00100010 
 486      00100010 
 486      0008FC07 
 487 06c0 0C007000 		 .byte 0x0C, 0x00, 0x70, 0x00, 0x80, 0x01, 0x00, 0x0E, 0x00, 0x10, 0x00, 0x10, 0x00, 0x0E, 0x80, 0
 487      8001000E 
 487      00100010 
 487      000E8001 
 487      70000C00 
 488 06e0 00000C00 		 .byte 0x00, 0x00, 0x0C, 0x00, 0x70, 0x00, 0x80, 0x07, 0x00, 0x18, 0x00, 0x07, 0xF0, 0x00, 0x0C, 0
 488      70008007 
 488      00180007 
 488      F0000C00 
 488      F0000007 
 489 0700 00000410 		 .byte 0x00, 0x00, 0x04, 0x10, 0x18, 0x0C, 0x20, 0x02, 0xC0, 0x01, 0xC0, 0x01, 0x20, 0x02, 0x18, 0
 489      180C2002 
 489      C001C001 
 489      2002180C 
 489      04100000 
 490 0720 04000800 		 .byte 0x04, 0x00, 0x08, 0x00, 0x30, 0x00, 0x40, 0x00, 0x80, 0x1F, 0x40, 0x00, 0x30, 0x00, 0x08, 0
 490      30004000 
 490      801F4000 
 490      30000800 
 490      04000000 
 491 0740 00000418 		 .byte 0x00, 0x00, 0x04, 0x18, 0x04, 0x14, 0x04, 0x12, 0x84, 0x11, 0x44, 0x10, 0x24, 0x10, 0x14, 0
 491      04140412 
 491      84114410 
 491      24101410 
 491      0C100000 
 492 0760 00000000 		 .byte 0x00, 0x00, 0x00, 0x00, 0xFE, 0xFF, 0x02, 0x80, 0x02, 0x80, 0x02, 0x80, 0x00, 0x00, 0x00, 0
 492      FEFF0280 
 492      02800280 
 492      00000000 
 492      00000000 
 493 0780 02001C00 		 .byte 0x02, 0x00, 0x1C, 0x00, 0x60, 0x00, 0x80, 0x01, 0x00, 0x06, 0x00, 0x38, 0x00, 0x40, 0x00, 0
 493      60008001 
 493      00060038 
 493      00400000 
 493      00000000 
ARM GAS  1.s 			page 14


 494 07a0 00000280 		 .byte 0x00, 0x00, 0x02, 0x80, 0x02, 0x80, 0x02, 0x80, 0xFE, 0xFF, 0x00, 0x00, 0x00, 0x00, 0x00, 0
 494      02800280 
 494      FEFF0000 
 494      00000000 
 494      00000000 
 495 07c0 00004000 		 .byte 0x00, 0x00, 0x40, 0x00, 0x20, 0x00, 0x10, 0x00, 0x08, 0x00, 0x04, 0x00, 0x04, 0x00, 0x08, 0
 495      20001000 
 495      08000400 
 495      04000800 
 495      10002000 
 496 07e0 00400040 		 .byte 0x00, 0x40, 0x00, 0x40, 0x00, 0x40, 0x00, 0x40, 0x00, 0x40, 0x00, 0x40, 0x00, 0x40, 0x00, 0
 496      00400040 
 496      00400040 
 496      00400040 
 496      00400040 
 497 0800 00000000 		 .byte 0x00, 0x00, 0x00, 0x00, 0x00, 0x00, 0x02, 0x00, 0x04, 0x00, 0x00, 0x00, 0x00, 0x00, 0x00, 0
 497      00000200 
 497      04000000 
 497      00000000 
 497      00000000 
 498 0820 0000000E 		 .byte 0x00, 0x00, 0x00, 0x0E, 0x40, 0x11, 0x20, 0x11, 0x20, 0x11, 0x20, 0x11, 0x20, 0x09, 0xC0, 0
 498      40112011 
 498      20112011 
 498      2009C01F 
 498      00000000 
 499 0840 0000FE1F 		 .byte 0x00, 0x00, 0xFE, 0x1F, 0x40, 0x10, 0x20, 0x10, 0x20, 0x10, 0x20, 0x10, 0x40, 0x08, 0x80, 0
 499      40102010 
 499      20102010 
 499      40088007 
 499      00000000 
 500 0860 00008007 		 .byte 0x00, 0x00, 0x80, 0x07, 0x40, 0x08, 0x20, 0x10, 0x20, 0x10, 0x20, 0x10, 0x20, 0x10, 0x40, 0
 500      40082010 
 500      20102010 
 500      20104008 
 500      00000000 
 501 0880 00008007 		 .byte 0x00, 0x00, 0x80, 0x07, 0x40, 0x08, 0x20, 0x10, 0x20, 0x10, 0x20, 0x10, 0x20, 0x08, 0xFE, 0
 501      40082010 
 501      20102010 
 501      2008FE1F 
 501      00000000 
 502 08a0 00008007 		 .byte 0x00, 0x00, 0x80, 0x07, 0x40, 0x09, 0x20, 0x11, 0x20, 0x11, 0x20, 0x11, 0x40, 0x11, 0x80, 0
 502      40092011 
 502      20112011 
 502      40118009 
 502      00000000 
 503 08c0 00002000 		 .byte 0x00, 0x00, 0x20, 0x00, 0xFC, 0x1F, 0x22, 0x00, 0x22, 0x00, 0x22, 0x00, 0x00, 0x00, 0x00, 0
 503      FC1F2200 
 503      22002200 
 503      00000000 
 503      00000000 
 504 08e0 00008007 		 .byte 0x00, 0x00, 0x80, 0x07, 0x40, 0x48, 0x20, 0x90, 0x20, 0x90, 0x20, 0x90, 0x20, 0x48, 0xE0, 0
 504      40482090 
 504      20902090 
 504      2048E03F 
 504      00000000 
 505 0900 0000FE1F 		 .byte 0x00, 0x00, 0xFE, 0x1F, 0x40, 0x00, 0x20, 0x00, 0x20, 0x00, 0x20, 0x00, 0x20, 0x00, 0xC0, 0
 505      40002000 
ARM GAS  1.s 			page 15


 505      20002000 
 505      2000C01F 
 505      00000000 
 506 0920 0000E41F 		 .byte 0x00, 0x00, 0xE4, 0x1F, 0x00, 0x00, 0x00, 0x00, 0x00, 0x00, 0x00, 0x00, 0x00, 0x00, 0x00, 0
 506      00000000 
 506      00000000 
 506      00000000 
 506      00000000 
 507 0940 00802080 		 .byte 0x00, 0x80, 0x20, 0x80, 0x20, 0x80, 0xE4, 0x7F, 0x00, 0x00, 0x00, 0x00, 0x00, 0x00, 0x00, 0
 507      2080E47F 
 507      00000000 
 507      00000000 
 507      00000000 
 508 0960 0000FE1F 		 .byte 0x00, 0x00, 0xFE, 0x1F, 0x00, 0x02, 0x00, 0x01, 0x80, 0x02, 0x40, 0x04, 0x20, 0x08, 0x00, 0
 508      00020001 
 508      80024004 
 508      20080010 
 508      00000000 
 509 0980 0000FE1F 		 .byte 0x00, 0x00, 0xFE, 0x1F, 0x00, 0x00, 0x00, 0x00, 0x00, 0x00, 0x00, 0x00, 0x00, 0x00, 0x00, 0
 509      00000000 
 509      00000000 
 509      00000000 
 509      00000000 
 510 09a0 00000000 		 .byte 0x00, 0x00, 0x00, 0x00, 0xE0, 0x1F, 0x40, 0x00, 0x20, 0x00, 0x20, 0x00, 0x20, 0x00, 0xC0, 0
 510      E01F4000 
 510      20002000 
 510      2000C01F 
 510      40002000 
 511 09c0 0000E01F 		 .byte 0x00, 0x00, 0xE0, 0x1F, 0x40, 0x00, 0x20, 0x00, 0x20, 0x00, 0x20, 0x00, 0x20, 0x00, 0xC0, 0
 511      40002000 
 511      20002000 
 511      2000C01F 
 511      00000000 
 512 09e0 00008007 		 .byte 0x00, 0x00, 0x80, 0x07, 0x40, 0x08, 0x20, 0x10, 0x20, 0x10, 0x20, 0x10, 0x20, 0x10, 0x40, 0
 512      40082010 
 512      20102010 
 512      20104008 
 512      80070000 
 513 0a00 0000E0FF 		 .byte 0x00, 0x00, 0xE0, 0xFF, 0x40, 0x10, 0x20, 0x10, 0x20, 0x10, 0x20, 0x10, 0x40, 0x08, 0x80, 0
 513      40102010 
 513      20102010 
 513      40088007 
 513      00000000 
 514 0a20 00008007 		 .byte 0x00, 0x00, 0x80, 0x07, 0x40, 0x08, 0x20, 0x10, 0x20, 0x10, 0x20, 0x10, 0x20, 0x08, 0xE0, 0
 514      40082010 
 514      20102010 
 514      2008E0FF 
 514      00000000 
 515 0a40 0000E01F 		 .byte 0x00, 0x00, 0xE0, 0x1F, 0x40, 0x00, 0x20, 0x00, 0x20, 0x00, 0x20, 0x00, 0x00, 0x00, 0x00, 0
 515      40002000 
 515      20002000 
 515      00000000 
 515      00000000 
 516 0a60 0000C008 		 .byte 0x00, 0x00, 0xC0, 0x08, 0x20, 0x11, 0x20, 0x11, 0x20, 0x12, 0x20, 0x12, 0x40, 0x0C, 0x00, 0
 516      20112011 
 516      20122012 
 516      400C0000 
ARM GAS  1.s 			page 16


 516      00000000 
 517 0a80 00002000 		 .byte 0x00, 0x00, 0x20, 0x00, 0xF8, 0x0F, 0x20, 0x10, 0x20, 0x10, 0x20, 0x10, 0x00, 0x00, 0x00, 0
 517      F80F2010 
 517      20102010 
 517      00000000 
 517      00000000 
 518 0aa0 0000E00F 		 .byte 0x00, 0x00, 0xE0, 0x0F, 0x00, 0x10, 0x00, 0x10, 0x00, 0x10, 0x00, 0x10, 0x00, 0x08, 0xE0, 0
 518      00100010 
 518      00100010 
 518      0008E01F 
 518      00000000 
 519 0ac0 00006000 		 .byte 0x00, 0x00, 0x60, 0x00, 0x80, 0x03, 0x00, 0x0C, 0x00, 0x10, 0x00, 0x0C, 0x80, 0x03, 0x60, 0
 519      8003000C 
 519      0010000C 
 519      80036000 
 519      00000000 
 520 0ae0 00006000 		 .byte 0x00, 0x00, 0x60, 0x00, 0x80, 0x07, 0x00, 0x18, 0x00, 0x06, 0x80, 0x01, 0x60, 0x00, 0x80, 0
 520      80070018 
 520      00068001 
 520      60008001 
 520      00060018 
 521 0b00 00002010 		 .byte 0x00, 0x00, 0x20, 0x10, 0x40, 0x08, 0x80, 0x04, 0x00, 0x03, 0x80, 0x04, 0x40, 0x08, 0x20, 0
 521      40088004 
 521      00038004 
 521      40082010 
 521      00000000 
 522 0b20 00006000 		 .byte 0x00, 0x00, 0x60, 0x00, 0x80, 0x03, 0x00, 0xCC, 0x00, 0x30, 0x00, 0x0C, 0x80, 0x03, 0x60, 0
 522      800300CC 
 522      0030000C 
 522      80036000 
 522      00000000 
 523 0b40 00002018 		 .byte 0x00, 0x00, 0x20, 0x18, 0x20, 0x14, 0x20, 0x12, 0x20, 0x11, 0xA0, 0x10, 0x60, 0x10, 0x20, 0
 523      20142012 
 523      2011A010 
 523      60102010 
 523      00000000 
 524 0b60 00000001 		 .byte 0x00, 0x00, 0x00, 0x01, 0x00, 0x01, 0x80, 0x02, 0x7C, 0x7C, 0x02, 0x80, 0x02, 0x80, 0x02, 0
 524      00018002 
 524      7C7C0280 
 524      02800280 
 524      00000000 
 525 0b80 00000000 		 .byte 0x00, 0x00, 0x00, 0x00, 0x00, 0x00, 0xFE, 0xFF, 0x00, 0x00, 0x00, 0x00, 0x00, 0x00, 0x00, 0
 525      0000FEFF 
 525      00000000 
 525      00000000 
 525      00000000 
 526 0ba0 00000000 		 .byte 0x00, 0x00, 0x00, 0x00, 0x02, 0x80, 0x02, 0x80, 0x02, 0x80, 0x7C, 0x7C, 0x80, 0x02, 0x00, 0
 526      02800280 
 526      02807C7C 
 526      80020001 
 526      00010000 
 527 0bc0 00000003 		 .byte 0x00, 0x00, 0x00, 0x03, 0x80, 0x00, 0x40, 0x00, 0x40, 0x00, 0x80, 0x00, 0x00, 0x01, 0x00, 0
 527      80004000 
 527      40008000 
 527      00010002 
 527      00020001 
 528 0be0 FC1F0410 		 .byte 0xFC, 0x1F, 0x04, 0x10, 0x04, 0x10, 0xFC, 0x1F, 0x00, 0x00, 0x00, 0x00, 0x00, 0x00, 0x00, 0
ARM GAS  1.s 			page 17


 528      0410FC1F 
 528      00000000 
 528      00000000 
 528      00000000 
 529              		.align 4
 530              	yjmwxwx:
 531 0c00 796A6D77 		.ascii "yjmwxwx"
 531      787778
 532              	n32g430:
 533 0c07 6E333267 		.ascii "n32g430"
 533      343330
 534              	_21ic.com:
 535 0c0e 32314943 		.ascii "21IC.com"
 535      2E636F6D 
 536              	nations:
 537 0c16 4E617469 		.ascii "Nations"
 537      6F6E73
ARM GAS  1.s 			page 18


DEFINED SYMBOLS
                 1.s:9      .text:0000000000000000 vectors
                            *ABS*:0000000020004000 STACHINIT
                 1.s:79     .text:0000000000000110 _start
                 1.s:421    .text:000000000000036e _nmi_handler
                 1.s:422    .text:000000000000036e _hard_fault
                 1.s:423    .text:000000000000036e _memory_fault
                 1.s:424    .text:000000000000036e _bus_fault
                 1.s:425    .text:000000000000036e _usage_fault
                 1.s:426    .text:000000000000036e aaa
                 1.s:80     .text:0000000000000110 __shizhong
                            .text:0000000000000000 $d
                 1.s:81     .text:0000000000000110 $t
                 1.s:87     .text:000000000000011e __denghse
                 1.s:91     .text:0000000000000124 __dengpllguan
                 1.s:103    .text:0000000000000138 __dengpll
                 1.s:107    .text:000000000000013e __waishe_shizhong
                 1.s:123    .text:000000000000014a __io_shezhi
                 1.s:171    .text:0000000000000168 __spi_chushihua
                 1.s:176    .text:0000000000000170 __lcd_chushihua
                 1.s:318    .text:0000000000000296 __lcd_yanshi
                 1.s:257    .text:000000000000022a __xie_spi1
                 1.s:322    .text:000000000000029c __lcd_qingping
                 1.s:530    .data:0000000000000c00 yjmwxwx
                 1.s:381    .text:0000000000000322 __xie_lcd_ascii
                 1.s:532    .data:0000000000000c07 n32g430
                 1.s:534    .data:0000000000000c0e _21ic.com
                 1.s:536    .data:0000000000000c16 nations
                 1.s:239    .text:000000000000020c __ting
                 1.s:246    .text:000000000000021a __led_kai_yanshi
                 1.s:251    .text:0000000000000224 __led_guan_yanshi
                 1.s:268    .text:000000000000023e __spi_mang
                 1.s:263    .text:0000000000000238 __xie_spi1_yanshi
                 1.s:274    .text:0000000000000246 __xie_lcd_ye
                 1.s:280    .text:000000000000024e __ye_jia
                 1.s:295    .text:0000000000000266 __xie_ye_dizhi
                 1.s:310    .text:0000000000000288 __heng_sao
                 1.s:327    .text:00000000000002a6 __ye_jia1
                 1.s:338    .text:00000000000002be __xie_ye_dizhi1
                 1.s:352    .text:00000000000002e0 __heng_sao1
                 1.s:359    .text:00000000000002ec __xie_lcd_weizhi
                 1.s:390    .text:0000000000000334 __xie_lcd_dizhi
                 1.s:393    .text:000000000000033a __du_ascii
                 1.s:432    .data:0000000000000000 ziku16x16
                 1.s:400    .text:0000000000000346 __du_ziku_16_chushihua
                 1.s:402    .text:0000000000000348 __du_ziku_16
                 1.s:410    .text:0000000000000358 __duwan_16
                 1.s:428    .text:0000000000000370 $d
                 1.s:431    .data:0000000000000000 $d

NO UNDEFINED SYMBOLS
